
Ketron32.elf:     file format elf32-avr

Sections:
Idx Name          Size      VMA       LMA       File off  Algn
  0 .text         00007dc2  00000000  00000000  00000094  2**1
                  CONTENTS, ALLOC, LOAD, READONLY, CODE
  1 .data         0000012a  00800060  00007dc2  00007e56  2**0
                  CONTENTS, ALLOC, LOAD, DATA
  2 .bss          000002ff  0080018a  0080018a  00007f80  2**0
                  ALLOC
  3 .comment      00000030  00000000  00000000  00007f80  2**0
                  CONTENTS, READONLY
  4 .note.gnu.avr.deviceinfo 0000003c  00000000  00000000  00007fb0  2**2
                  CONTENTS, READONLY
  5 .debug_aranges 00000798  00000000  00000000  00007fec  2**0
                  CONTENTS, READONLY, DEBUGGING
  6 .debug_info   0000659d  00000000  00000000  00008784  2**0
                  CONTENTS, READONLY, DEBUGGING
  7 .debug_abbrev 00001ad9  00000000  00000000  0000ed21  2**0
                  CONTENTS, READONLY, DEBUGGING
  8 .debug_line   00005ef0  00000000  00000000  000107fa  2**0
                  CONTENTS, READONLY, DEBUGGING
  9 .debug_frame  00001e74  00000000  00000000  000166ec  2**2
                  CONTENTS, READONLY, DEBUGGING
 10 .debug_str    00001673  00000000  00000000  00018560  2**0
                  CONTENTS, READONLY, DEBUGGING
 11 .debug_loc    0000405f  00000000  00000000  00019bd3  2**0
                  CONTENTS, READONLY, DEBUGGING
 12 .debug_ranges 000006b8  00000000  00000000  0001dc32  2**0
                  CONTENTS, READONLY, DEBUGGING

Disassembly of section .text:

00000000 <__vectors>:
       0:	0c 94 fd 00 	jmp	0x1fa	; 0x1fa <__ctors_end>
       4:	0c 94 1a 01 	jmp	0x234	; 0x234 <__bad_interrupt>
       8:	0c 94 1a 01 	jmp	0x234	; 0x234 <__bad_interrupt>
       c:	0c 94 1a 01 	jmp	0x234	; 0x234 <__bad_interrupt>
      10:	0c 94 48 3c 	jmp	0x7890	; 0x7890 <__vector_4>
      14:	0c 94 22 3b 	jmp	0x7644	; 0x7644 <__vector_5>
      18:	0c 94 11 3c 	jmp	0x7822	; 0x7822 <__vector_6>
      1c:	0c 94 a3 3b 	jmp	0x7746	; 0x7746 <__vector_7>
      20:	0c 94 da 3b 	jmp	0x77b4	; 0x77b4 <__vector_8>
      24:	0c 94 eb 3a 	jmp	0x75d6	; 0x75d6 <__vector_9>
      28:	0c 94 6c 3b 	jmp	0x76d8	; 0x76d8 <__vector_10>
      2c:	0c 94 8e 3a 	jmp	0x751c	; 0x751c <__vector_11>
      30:	0c 94 1a 01 	jmp	0x234	; 0x234 <__bad_interrupt>
      34:	0c 94 ea 3d 	jmp	0x7bd4	; 0x7bd4 <__vector_13>
      38:	0c 94 1a 01 	jmp	0x234	; 0x234 <__bad_interrupt>
      3c:	0c 94 9f 3d 	jmp	0x7b3e	; 0x7b3e <__vector_15>
      40:	0c 94 bc 01 	jmp	0x378	; 0x378 <__vector_16>
      44:	0c 94 1a 01 	jmp	0x234	; 0x234 <__bad_interrupt>
      48:	0c 94 1a 01 	jmp	0x234	; 0x234 <__bad_interrupt>
      4c:	0c 94 1a 01 	jmp	0x234	; 0x234 <__bad_interrupt>
      50:	0c 94 1a 01 	jmp	0x234	; 0x234 <__bad_interrupt>
      54:	c6 32       	cpi	r28, 0x26	; 38
      56:	c8 32       	cpi	r28, 0x28	; 40
      58:	c8 32       	cpi	r28, 0x28	; 40
      5a:	c8 32       	cpi	r28, 0x28	; 40
      5c:	c8 32       	cpi	r28, 0x28	; 40
      5e:	c8 32       	cpi	r28, 0x28	; 40
      60:	c8 32       	cpi	r28, 0x28	; 40
      62:	c8 32       	cpi	r28, 0x28	; 40
      64:	c8 32       	cpi	r28, 0x28	; 40
      66:	c8 32       	cpi	r28, 0x28	; 40
      68:	c8 32       	cpi	r28, 0x28	; 40
      6a:	c8 32       	cpi	r28, 0x28	; 40
      6c:	c8 32       	cpi	r28, 0x28	; 40
      6e:	c8 32       	cpi	r28, 0x28	; 40
      70:	c8 32       	cpi	r28, 0x28	; 40
      72:	c8 32       	cpi	r28, 0x28	; 40
      74:	c6 32       	cpi	r28, 0x26	; 38
      76:	c8 32       	cpi	r28, 0x28	; 40
      78:	c8 32       	cpi	r28, 0x28	; 40
      7a:	c8 32       	cpi	r28, 0x28	; 40
      7c:	c8 32       	cpi	r28, 0x28	; 40
      7e:	c8 32       	cpi	r28, 0x28	; 40
      80:	c8 32       	cpi	r28, 0x28	; 40
      82:	c8 32       	cpi	r28, 0x28	; 40
      84:	c8 32       	cpi	r28, 0x28	; 40
      86:	c8 32       	cpi	r28, 0x28	; 40
      88:	c8 32       	cpi	r28, 0x28	; 40
      8a:	c8 32       	cpi	r28, 0x28	; 40
      8c:	c8 32       	cpi	r28, 0x28	; 40
      8e:	c8 32       	cpi	r28, 0x28	; 40
      90:	c8 32       	cpi	r28, 0x28	; 40
      92:	c8 32       	cpi	r28, 0x28	; 40
      94:	c6 32       	cpi	r28, 0x26	; 38
      96:	c8 32       	cpi	r28, 0x28	; 40
      98:	c8 32       	cpi	r28, 0x28	; 40
      9a:	c8 32       	cpi	r28, 0x28	; 40
      9c:	c8 32       	cpi	r28, 0x28	; 40
      9e:	c8 32       	cpi	r28, 0x28	; 40
      a0:	c8 32       	cpi	r28, 0x28	; 40
      a2:	c8 32       	cpi	r28, 0x28	; 40
      a4:	c8 32       	cpi	r28, 0x28	; 40
      a6:	c8 32       	cpi	r28, 0x28	; 40
      a8:	c8 32       	cpi	r28, 0x28	; 40
      aa:	c8 32       	cpi	r28, 0x28	; 40
      ac:	c8 32       	cpi	r28, 0x28	; 40
      ae:	c8 32       	cpi	r28, 0x28	; 40
      b0:	c8 32       	cpi	r28, 0x28	; 40
      b2:	c8 32       	cpi	r28, 0x28	; 40
      b4:	c6 32       	cpi	r28, 0x26	; 38
      b6:	c8 32       	cpi	r28, 0x28	; 40
      b8:	c8 32       	cpi	r28, 0x28	; 40
      ba:	c8 32       	cpi	r28, 0x28	; 40
      bc:	c8 32       	cpi	r28, 0x28	; 40
      be:	c8 32       	cpi	r28, 0x28	; 40
      c0:	c8 32       	cpi	r28, 0x28	; 40
      c2:	c8 32       	cpi	r28, 0x28	; 40
      c4:	c8 32       	cpi	r28, 0x28	; 40
      c6:	c8 32       	cpi	r28, 0x28	; 40
      c8:	c8 32       	cpi	r28, 0x28	; 40
      ca:	c8 32       	cpi	r28, 0x28	; 40
      cc:	c8 32       	cpi	r28, 0x28	; 40
      ce:	c8 32       	cpi	r28, 0x28	; 40
      d0:	c8 32       	cpi	r28, 0x28	; 40
      d2:	c8 32       	cpi	r28, 0x28	; 40
      d4:	c4 32       	cpi	r28, 0x24	; 36
      d6:	c8 32       	cpi	r28, 0x28	; 40
      d8:	c8 32       	cpi	r28, 0x28	; 40
      da:	c8 32       	cpi	r28, 0x28	; 40
      dc:	c8 32       	cpi	r28, 0x28	; 40
      de:	c8 32       	cpi	r28, 0x28	; 40
      e0:	c8 32       	cpi	r28, 0x28	; 40
      e2:	c8 32       	cpi	r28, 0x28	; 40
      e4:	c8 32       	cpi	r28, 0x28	; 40
      e6:	c8 32       	cpi	r28, 0x28	; 40
      e8:	c8 32       	cpi	r28, 0x28	; 40
      ea:	c8 32       	cpi	r28, 0x28	; 40
      ec:	c8 32       	cpi	r28, 0x28	; 40
      ee:	c8 32       	cpi	r28, 0x28	; 40
      f0:	c8 32       	cpi	r28, 0x28	; 40
      f2:	c8 32       	cpi	r28, 0x28	; 40
      f4:	c4 32       	cpi	r28, 0x24	; 36
      f6:	c8 32       	cpi	r28, 0x28	; 40
      f8:	c8 32       	cpi	r28, 0x28	; 40
      fa:	c8 32       	cpi	r28, 0x28	; 40
      fc:	c8 32       	cpi	r28, 0x28	; 40
      fe:	c8 32       	cpi	r28, 0x28	; 40
     100:	c8 32       	cpi	r28, 0x28	; 40
     102:	c8 32       	cpi	r28, 0x28	; 40
     104:	c8 32       	cpi	r28, 0x28	; 40
     106:	c8 32       	cpi	r28, 0x28	; 40
     108:	c8 32       	cpi	r28, 0x28	; 40
     10a:	c8 32       	cpi	r28, 0x28	; 40
     10c:	c8 32       	cpi	r28, 0x28	; 40
     10e:	c8 32       	cpi	r28, 0x28	; 40
     110:	c8 32       	cpi	r28, 0x28	; 40
     112:	c8 32       	cpi	r28, 0x28	; 40
     114:	c6 32       	cpi	r28, 0x26	; 38
     116:	c8 32       	cpi	r28, 0x28	; 40
     118:	c8 32       	cpi	r28, 0x28	; 40
     11a:	c8 32       	cpi	r28, 0x28	; 40
     11c:	c8 32       	cpi	r28, 0x28	; 40
     11e:	c8 32       	cpi	r28, 0x28	; 40
     120:	c8 32       	cpi	r28, 0x28	; 40
     122:	c8 32       	cpi	r28, 0x28	; 40
     124:	c8 32       	cpi	r28, 0x28	; 40
     126:	c8 32       	cpi	r28, 0x28	; 40
     128:	c8 32       	cpi	r28, 0x28	; 40
     12a:	c8 32       	cpi	r28, 0x28	; 40
     12c:	c8 32       	cpi	r28, 0x28	; 40
     12e:	c8 32       	cpi	r28, 0x28	; 40
     130:	c8 32       	cpi	r28, 0x28	; 40
     132:	c8 32       	cpi	r28, 0x28	; 40
     134:	c8 32       	cpi	r28, 0x28	; 40
     136:	c4 32       	cpi	r28, 0x24	; 36
     138:	c6 32       	cpi	r28, 0x26	; 38
     13a:	c4 32       	cpi	r28, 0x24	; 36
     13c:	c8 32       	cpi	r28, 0x28	; 40
     13e:	c8 32       	cpi	r28, 0x28	; 40
     140:	c2 32       	cpi	r28, 0x22	; 34
     142:	c8 32       	cpi	r28, 0x28	; 40
     144:	c2 32       	cpi	r28, 0x22	; 34
     146:	c2 32       	cpi	r28, 0x22	; 34
     148:	c2 32       	cpi	r28, 0x22	; 34
     14a:	c2 32       	cpi	r28, 0x22	; 34
     14c:	c2 32       	cpi	r28, 0x22	; 34
     14e:	c8 32       	cpi	r28, 0x28	; 40
     150:	c2 32       	cpi	r28, 0x22	; 34
     152:	c2 32       	cpi	r28, 0x22	; 34
     154:	c5 37       	cpi	r28, 0x75	; 117
     156:	ce 37       	cpi	r28, 0x7E	; 126
     158:	50 38       	cpi	r21, 0x80	; 128
     15a:	59 38       	cpi	r21, 0x89	; 137
     15c:	73 39       	cpi	r23, 0x93	; 147
     15e:	73 39       	cpi	r23, 0x93	; 147
     160:	73 39       	cpi	r23, 0x93	; 147
     162:	73 39       	cpi	r23, 0x93	; 147
     164:	73 39       	cpi	r23, 0x93	; 147
     166:	73 39       	cpi	r23, 0x93	; 147
     168:	12 39       	cpi	r17, 0x92	; 146
     16a:	1a 39       	cpi	r17, 0x9A	; 154
     16c:	2e 39       	cpi	r18, 0x9E	; 158
     16e:	42 39       	cpi	r20, 0x92	; 146
     170:	5f 39       	cpi	r21, 0x9F	; 159

00000172 <LcdCustomChar>:
     172:	00 1f 00 00 00 00 1f 00 00 1f 10 10 10 10 1f 00     ................
     182:	00 1f 18 18 18 18 1f 00 00 1f 1c 1c 1c 1c 1f 00     ................
     192:	00 1f 1e 1e 1e 1e 1f 00 00 1f 1f 1f 1f 1f 1f 00     ................
     1a2:	03 07 0f 1f 0f 07 03 00 00 1f 1f 1f 1f 1f 1f 00     ................
     1b2:	1b 1b 1b 1b 1b 1b 1b 00 18 1c 1e 1f 1e 1c 18 00     ................
     1c2:	00 04 04 0e 0e 1f 1f 00 00 1f 1f 0e 0e 04 04 00     ................
	...
     1da:	00 0e 19 15 13 0e 00 00 00 0e 15 15 15 0e 00 00     ................
     1ea:	00 0e 13 15 19 0e 00 00 00 0e 11 1f 11 0e 00 00     ................

000001fa <__ctors_end>:
     1fa:	11 24       	eor	r1, r1
     1fc:	1f be       	out	0x3f, r1	; 63
     1fe:	cf e5       	ldi	r28, 0x5F	; 95
     200:	d8 e0       	ldi	r29, 0x08	; 8
     202:	de bf       	out	0x3e, r29	; 62
     204:	cd bf       	out	0x3d, r28	; 61

00000206 <__do_copy_data>:
     206:	11 e0       	ldi	r17, 0x01	; 1
     208:	a0 e6       	ldi	r26, 0x60	; 96
     20a:	b0 e0       	ldi	r27, 0x00	; 0
     20c:	e2 ec       	ldi	r30, 0xC2	; 194
     20e:	fd e7       	ldi	r31, 0x7D	; 125
     210:	02 c0       	rjmp	.+4      	; 0x216 <__do_copy_data+0x10>
     212:	05 90       	lpm	r0, Z+
     214:	0d 92       	st	X+, r0
     216:	aa 38       	cpi	r26, 0x8A	; 138
     218:	b1 07       	cpc	r27, r17
     21a:	d9 f7       	brne	.-10     	; 0x212 <__do_copy_data+0xc>

0000021c <__do_clear_bss>:
     21c:	24 e0       	ldi	r18, 0x04	; 4
     21e:	aa e8       	ldi	r26, 0x8A	; 138
     220:	b1 e0       	ldi	r27, 0x01	; 1
     222:	01 c0       	rjmp	.+2      	; 0x226 <.do_clear_bss_start>

00000224 <.do_clear_bss_loop>:
     224:	1d 92       	st	X+, r1

00000226 <.do_clear_bss_start>:
     226:	a9 38       	cpi	r26, 0x89	; 137
     228:	b2 07       	cpc	r27, r18
     22a:	e1 f7       	brne	.-8      	; 0x224 <.do_clear_bss_loop>
     22c:	0e 94 cd 23 	call	0x479a	; 0x479a <main>
     230:	0c 94 df 3e 	jmp	0x7dbe	; 0x7dbe <_exit>

00000234 <__bad_interrupt>:
     234:	0c 94 00 00 	jmp	0	; 0x0 <__vectors>

00000238 <a2dInit>:
// starts conversion, waits until conversion is done, and returns result
unsigned char a2dConvert8bit(unsigned char ch)
{
	// do 10-bit conversion and return highest 8 bits
	return a2dConvert10bit(ch)>>2;			// return ADC MSB byte
}
     238:	cf 93       	push	r28
     23a:	df 93       	push	r29
     23c:	cd b7       	in	r28, 0x3d	; 61
     23e:	de b7       	in	r29, 0x3e	; 62
     240:	86 e2       	ldi	r24, 0x26	; 38
     242:	90 e0       	ldi	r25, 0x00	; 0
     244:	26 e2       	ldi	r18, 0x26	; 38
     246:	30 e0       	ldi	r19, 0x00	; 0
     248:	f9 01       	movw	r30, r18
     24a:	20 81       	ld	r18, Z
     24c:	20 68       	ori	r18, 0x80	; 128
     24e:	fc 01       	movw	r30, r24
     250:	20 83       	st	Z, r18
     252:	86 e2       	ldi	r24, 0x26	; 38
     254:	90 e0       	ldi	r25, 0x00	; 0
     256:	26 e2       	ldi	r18, 0x26	; 38
     258:	30 e0       	ldi	r19, 0x00	; 0
     25a:	f9 01       	movw	r30, r18
     25c:	20 81       	ld	r18, Z
     25e:	2f 7d       	andi	r18, 0xDF	; 223
     260:	fc 01       	movw	r30, r24
     262:	20 83       	st	Z, r18
     264:	86 e0       	ldi	r24, 0x06	; 6
     266:	0e 94 51 01 	call	0x2a2	; 0x2a2 <a2dSetPrescaler>
     26a:	81 e0       	ldi	r24, 0x01	; 1
     26c:	0e 94 68 01 	call	0x2d0	; 0x2d0 <a2dSetReference>
     270:	87 e2       	ldi	r24, 0x27	; 39
     272:	90 e0       	ldi	r25, 0x00	; 0
     274:	27 e2       	ldi	r18, 0x27	; 39
     276:	30 e0       	ldi	r19, 0x00	; 0
     278:	f9 01       	movw	r30, r18
     27a:	20 81       	ld	r18, Z
     27c:	2f 7d       	andi	r18, 0xDF	; 223
     27e:	fc 01       	movw	r30, r24
     280:	20 83       	st	Z, r18
     282:	86 e2       	ldi	r24, 0x26	; 38
     284:	90 e0       	ldi	r25, 0x00	; 0
     286:	26 e2       	ldi	r18, 0x26	; 38
     288:	30 e0       	ldi	r19, 0x00	; 0
     28a:	f9 01       	movw	r30, r18
     28c:	20 81       	ld	r18, Z
     28e:	28 60       	ori	r18, 0x08	; 8
     290:	fc 01       	movw	r30, r24
     292:	20 83       	st	Z, r18
     294:	10 92 2e 02 	sts	0x022E, r1	; 0x80022e <a2dCompleteFlag>
     298:	78 94       	sei
     29a:	00 00       	nop
     29c:	df 91       	pop	r29
     29e:	cf 91       	pop	r28
     2a0:	08 95       	ret

000002a2 <a2dSetPrescaler>:
     2a2:	cf 93       	push	r28
     2a4:	df 93       	push	r29
     2a6:	1f 92       	push	r1
     2a8:	cd b7       	in	r28, 0x3d	; 61
     2aa:	de b7       	in	r29, 0x3e	; 62
     2ac:	89 83       	std	Y+1, r24	; 0x01
     2ae:	86 e2       	ldi	r24, 0x26	; 38
     2b0:	90 e0       	ldi	r25, 0x00	; 0
     2b2:	26 e2       	ldi	r18, 0x26	; 38
     2b4:	30 e0       	ldi	r19, 0x00	; 0
     2b6:	f9 01       	movw	r30, r18
     2b8:	20 81       	ld	r18, Z
     2ba:	32 2f       	mov	r19, r18
     2bc:	38 7f       	andi	r19, 0xF8	; 248
     2be:	29 81       	ldd	r18, Y+1	; 0x01
     2c0:	23 2b       	or	r18, r19
     2c2:	fc 01       	movw	r30, r24
     2c4:	20 83       	st	Z, r18
     2c6:	00 00       	nop
     2c8:	0f 90       	pop	r0
     2ca:	df 91       	pop	r29
     2cc:	cf 91       	pop	r28
     2ce:	08 95       	ret

000002d0 <a2dSetReference>:
     2d0:	cf 93       	push	r28
     2d2:	df 93       	push	r29
     2d4:	1f 92       	push	r1
     2d6:	cd b7       	in	r28, 0x3d	; 61
     2d8:	de b7       	in	r29, 0x3e	; 62
     2da:	89 83       	std	Y+1, r24	; 0x01
     2dc:	87 e2       	ldi	r24, 0x27	; 39
     2de:	90 e0       	ldi	r25, 0x00	; 0
     2e0:	27 e2       	ldi	r18, 0x27	; 39
     2e2:	30 e0       	ldi	r19, 0x00	; 0
     2e4:	f9 01       	movw	r30, r18
     2e6:	20 81       	ld	r18, Z
     2e8:	42 2f       	mov	r20, r18
     2ea:	4f 73       	andi	r20, 0x3F	; 63
     2ec:	29 81       	ldd	r18, Y+1	; 0x01
     2ee:	22 2f       	mov	r18, r18
     2f0:	30 e0       	ldi	r19, 0x00	; 0
     2f2:	00 24       	eor	r0, r0
     2f4:	36 95       	lsr	r19
     2f6:	27 95       	ror	r18
     2f8:	07 94       	ror	r0
     2fa:	36 95       	lsr	r19
     2fc:	27 95       	ror	r18
     2fe:	07 94       	ror	r0
     300:	32 2f       	mov	r19, r18
     302:	20 2d       	mov	r18, r0
     304:	24 2b       	or	r18, r20
     306:	fc 01       	movw	r30, r24
     308:	20 83       	st	Z, r18
     30a:	00 00       	nop
     30c:	0f 90       	pop	r0
     30e:	df 91       	pop	r29
     310:	cf 91       	pop	r28
     312:	08 95       	ret

00000314 <a2dSetChannel>:
     314:	cf 93       	push	r28
     316:	df 93       	push	r29
     318:	1f 92       	push	r1
     31a:	cd b7       	in	r28, 0x3d	; 61
     31c:	de b7       	in	r29, 0x3e	; 62
     31e:	89 83       	std	Y+1, r24	; 0x01
     320:	87 e2       	ldi	r24, 0x27	; 39
     322:	90 e0       	ldi	r25, 0x00	; 0
     324:	27 e2       	ldi	r18, 0x27	; 39
     326:	30 e0       	ldi	r19, 0x00	; 0
     328:	f9 01       	movw	r30, r18
     32a:	20 81       	ld	r18, Z
     32c:	32 2f       	mov	r19, r18
     32e:	30 7e       	andi	r19, 0xE0	; 224
     330:	29 81       	ldd	r18, Y+1	; 0x01
     332:	2f 71       	andi	r18, 0x1F	; 31
     334:	23 2b       	or	r18, r19
     336:	fc 01       	movw	r30, r24
     338:	20 83       	st	Z, r18
     33a:	00 00       	nop
     33c:	0f 90       	pop	r0
     33e:	df 91       	pop	r29
     340:	cf 91       	pop	r28
     342:	08 95       	ret

00000344 <a2dStartConvert>:
     344:	cf 93       	push	r28
     346:	df 93       	push	r29
     348:	cd b7       	in	r28, 0x3d	; 61
     34a:	de b7       	in	r29, 0x3e	; 62
     34c:	86 e2       	ldi	r24, 0x26	; 38
     34e:	90 e0       	ldi	r25, 0x00	; 0
     350:	26 e2       	ldi	r18, 0x26	; 38
     352:	30 e0       	ldi	r19, 0x00	; 0
     354:	f9 01       	movw	r30, r18
     356:	20 81       	ld	r18, Z
     358:	20 61       	ori	r18, 0x10	; 16
     35a:	fc 01       	movw	r30, r24
     35c:	20 83       	st	Z, r18
     35e:	86 e2       	ldi	r24, 0x26	; 38
     360:	90 e0       	ldi	r25, 0x00	; 0
     362:	26 e2       	ldi	r18, 0x26	; 38
     364:	30 e0       	ldi	r19, 0x00	; 0
     366:	f9 01       	movw	r30, r18
     368:	20 81       	ld	r18, Z
     36a:	20 64       	ori	r18, 0x40	; 64
     36c:	fc 01       	movw	r30, r24
     36e:	20 83       	st	Z, r18
     370:	00 00       	nop
     372:	df 91       	pop	r29
     374:	cf 91       	pop	r28
     376:	08 95       	ret

00000378 <__vector_16>:

//! Interrupt handler for ADC complete interrupt.
SIGNAL(ADC_vect)
{
     378:	1f 92       	push	r1
     37a:	0f 92       	push	r0
     37c:	00 90 5f 00 	lds	r0, 0x005F	; 0x80005f <__TEXT_REGION_LENGTH__+0x7e005f>
     380:	0f 92       	push	r0
     382:	11 24       	eor	r1, r1
     384:	8f 93       	push	r24
     386:	cf 93       	push	r28
     388:	df 93       	push	r29
     38a:	cd b7       	in	r28, 0x3d	; 61
     38c:	de b7       	in	r29, 0x3e	; 62
	// set the a2d conversion flag to indicate "complete"
	a2dCompleteFlag = TRUE;
     38e:	81 e0       	ldi	r24, 0x01	; 1
     390:	80 93 2e 02 	sts	0x022E, r24	; 0x80022e <a2dCompleteFlag>
	
}
     394:	00 00       	nop
     396:	df 91       	pop	r29
     398:	cf 91       	pop	r28
     39a:	8f 91       	pop	r24
     39c:	0f 90       	pop	r0
     39e:	00 92 5f 00 	sts	0x005F, r0	; 0x80005f <__TEXT_REGION_LENGTH__+0x7e005f>
     3a2:	0f 90       	pop	r0
     3a4:	1f 90       	pop	r1
     3a6:	18 95       	reti

000003a8 <bufferInit>:
	// return character at index in buffer
	unsigned char data = buffer->dataptr[(buffer->dataindex+index)%(buffer->size)];
	// end critical section
	CRITICAL_SECTION_END;
	return data;
}
     3a8:	cf 93       	push	r28
     3aa:	df 93       	push	r29
     3ac:	cd b7       	in	r28, 0x3d	; 61
     3ae:	de b7       	in	r29, 0x3e	; 62
     3b0:	27 97       	sbiw	r28, 0x07	; 7
     3b2:	0f b6       	in	r0, 0x3f	; 63
     3b4:	f8 94       	cli
     3b6:	de bf       	out	0x3e, r29	; 62
     3b8:	0f be       	out	0x3f, r0	; 63
     3ba:	cd bf       	out	0x3d, r28	; 61
     3bc:	9b 83       	std	Y+3, r25	; 0x03
     3be:	8a 83       	std	Y+2, r24	; 0x02
     3c0:	7d 83       	std	Y+5, r23	; 0x05
     3c2:	6c 83       	std	Y+4, r22	; 0x04
     3c4:	5f 83       	std	Y+7, r21	; 0x07
     3c6:	4e 83       	std	Y+6, r20	; 0x06
     3c8:	8f e5       	ldi	r24, 0x5F	; 95
     3ca:	90 e0       	ldi	r25, 0x00	; 0
     3cc:	fc 01       	movw	r30, r24
     3ce:	80 81       	ld	r24, Z
     3d0:	89 83       	std	Y+1, r24	; 0x01
     3d2:	f8 94       	cli
     3d4:	8a 81       	ldd	r24, Y+2	; 0x02
     3d6:	9b 81       	ldd	r25, Y+3	; 0x03
     3d8:	2c 81       	ldd	r18, Y+4	; 0x04
     3da:	3d 81       	ldd	r19, Y+5	; 0x05
     3dc:	fc 01       	movw	r30, r24
     3de:	31 83       	std	Z+1, r19	; 0x01
     3e0:	20 83       	st	Z, r18
     3e2:	8a 81       	ldd	r24, Y+2	; 0x02
     3e4:	9b 81       	ldd	r25, Y+3	; 0x03
     3e6:	2e 81       	ldd	r18, Y+6	; 0x06
     3e8:	3f 81       	ldd	r19, Y+7	; 0x07
     3ea:	fc 01       	movw	r30, r24
     3ec:	33 83       	std	Z+3, r19	; 0x03
     3ee:	22 83       	std	Z+2, r18	; 0x02
     3f0:	8a 81       	ldd	r24, Y+2	; 0x02
     3f2:	9b 81       	ldd	r25, Y+3	; 0x03
     3f4:	fc 01       	movw	r30, r24
     3f6:	17 82       	std	Z+7, r1	; 0x07
     3f8:	16 82       	std	Z+6, r1	; 0x06
     3fa:	8a 81       	ldd	r24, Y+2	; 0x02
     3fc:	9b 81       	ldd	r25, Y+3	; 0x03
     3fe:	fc 01       	movw	r30, r24
     400:	15 82       	std	Z+5, r1	; 0x05
     402:	14 82       	std	Z+4, r1	; 0x04
     404:	8f e5       	ldi	r24, 0x5F	; 95
     406:	90 e0       	ldi	r25, 0x00	; 0
     408:	29 81       	ldd	r18, Y+1	; 0x01
     40a:	fc 01       	movw	r30, r24
     40c:	20 83       	st	Z, r18
     40e:	00 00       	nop
     410:	27 96       	adiw	r28, 0x07	; 7
     412:	0f b6       	in	r0, 0x3f	; 63
     414:	f8 94       	cli
     416:	de bf       	out	0x3e, r29	; 62
     418:	0f be       	out	0x3f, r0	; 63
     41a:	cd bf       	out	0x3d, r28	; 61
     41c:	df 91       	pop	r29
     41e:	cf 91       	pop	r28
     420:	08 95       	ret

00000422 <bufferGetFromFront>:
     422:	cf 93       	push	r28
     424:	df 93       	push	r29
     426:	00 d0       	rcall	.+0      	; 0x428 <bufferGetFromFront+0x6>
     428:	00 d0       	rcall	.+0      	; 0x42a <bufferGetFromFront+0x8>
     42a:	cd b7       	in	r28, 0x3d	; 61
     42c:	de b7       	in	r29, 0x3e	; 62
     42e:	9c 83       	std	Y+4, r25	; 0x04
     430:	8b 83       	std	Y+3, r24	; 0x03
     432:	19 82       	std	Y+1, r1	; 0x01
     434:	8f e5       	ldi	r24, 0x5F	; 95
     436:	90 e0       	ldi	r25, 0x00	; 0
     438:	fc 01       	movw	r30, r24
     43a:	80 81       	ld	r24, Z
     43c:	8a 83       	std	Y+2, r24	; 0x02
     43e:	f8 94       	cli
     440:	8b 81       	ldd	r24, Y+3	; 0x03
     442:	9c 81       	ldd	r25, Y+4	; 0x04
     444:	fc 01       	movw	r30, r24
     446:	84 81       	ldd	r24, Z+4	; 0x04
     448:	95 81       	ldd	r25, Z+5	; 0x05
     44a:	89 2b       	or	r24, r25
     44c:	09 f4       	brne	.+2      	; 0x450 <bufferGetFromFront+0x2e>
     44e:	47 c0       	rjmp	.+142    	; 0x4de <bufferGetFromFront+0xbc>
     450:	8b 81       	ldd	r24, Y+3	; 0x03
     452:	9c 81       	ldd	r25, Y+4	; 0x04
     454:	fc 01       	movw	r30, r24
     456:	20 81       	ld	r18, Z
     458:	31 81       	ldd	r19, Z+1	; 0x01
     45a:	8b 81       	ldd	r24, Y+3	; 0x03
     45c:	9c 81       	ldd	r25, Y+4	; 0x04
     45e:	fc 01       	movw	r30, r24
     460:	86 81       	ldd	r24, Z+6	; 0x06
     462:	97 81       	ldd	r25, Z+7	; 0x07
     464:	82 0f       	add	r24, r18
     466:	93 1f       	adc	r25, r19
     468:	fc 01       	movw	r30, r24
     46a:	80 81       	ld	r24, Z
     46c:	89 83       	std	Y+1, r24	; 0x01
     46e:	8b 81       	ldd	r24, Y+3	; 0x03
     470:	9c 81       	ldd	r25, Y+4	; 0x04
     472:	fc 01       	movw	r30, r24
     474:	86 81       	ldd	r24, Z+6	; 0x06
     476:	97 81       	ldd	r25, Z+7	; 0x07
     478:	9c 01       	movw	r18, r24
     47a:	2f 5f       	subi	r18, 0xFF	; 255
     47c:	3f 4f       	sbci	r19, 0xFF	; 255
     47e:	8b 81       	ldd	r24, Y+3	; 0x03
     480:	9c 81       	ldd	r25, Y+4	; 0x04
     482:	fc 01       	movw	r30, r24
     484:	37 83       	std	Z+7, r19	; 0x07
     486:	26 83       	std	Z+6, r18	; 0x06
     488:	8b 81       	ldd	r24, Y+3	; 0x03
     48a:	9c 81       	ldd	r25, Y+4	; 0x04
     48c:	fc 01       	movw	r30, r24
     48e:	26 81       	ldd	r18, Z+6	; 0x06
     490:	37 81       	ldd	r19, Z+7	; 0x07
     492:	8b 81       	ldd	r24, Y+3	; 0x03
     494:	9c 81       	ldd	r25, Y+4	; 0x04
     496:	fc 01       	movw	r30, r24
     498:	82 81       	ldd	r24, Z+2	; 0x02
     49a:	93 81       	ldd	r25, Z+3	; 0x03
     49c:	28 17       	cp	r18, r24
     49e:	39 07       	cpc	r19, r25
     4a0:	88 f0       	brcs	.+34     	; 0x4c4 <bufferGetFromFront+0xa2>
     4a2:	8b 81       	ldd	r24, Y+3	; 0x03
     4a4:	9c 81       	ldd	r25, Y+4	; 0x04
     4a6:	fc 01       	movw	r30, r24
     4a8:	26 81       	ldd	r18, Z+6	; 0x06
     4aa:	37 81       	ldd	r19, Z+7	; 0x07
     4ac:	8b 81       	ldd	r24, Y+3	; 0x03
     4ae:	9c 81       	ldd	r25, Y+4	; 0x04
     4b0:	fc 01       	movw	r30, r24
     4b2:	82 81       	ldd	r24, Z+2	; 0x02
     4b4:	93 81       	ldd	r25, Z+3	; 0x03
     4b6:	28 1b       	sub	r18, r24
     4b8:	39 0b       	sbc	r19, r25
     4ba:	8b 81       	ldd	r24, Y+3	; 0x03
     4bc:	9c 81       	ldd	r25, Y+4	; 0x04
     4be:	fc 01       	movw	r30, r24
     4c0:	37 83       	std	Z+7, r19	; 0x07
     4c2:	26 83       	std	Z+6, r18	; 0x06
     4c4:	8b 81       	ldd	r24, Y+3	; 0x03
     4c6:	9c 81       	ldd	r25, Y+4	; 0x04
     4c8:	fc 01       	movw	r30, r24
     4ca:	84 81       	ldd	r24, Z+4	; 0x04
     4cc:	95 81       	ldd	r25, Z+5	; 0x05
     4ce:	9c 01       	movw	r18, r24
     4d0:	21 50       	subi	r18, 0x01	; 1
     4d2:	31 09       	sbc	r19, r1
     4d4:	8b 81       	ldd	r24, Y+3	; 0x03
     4d6:	9c 81       	ldd	r25, Y+4	; 0x04
     4d8:	fc 01       	movw	r30, r24
     4da:	35 83       	std	Z+5, r19	; 0x05
     4dc:	24 83       	std	Z+4, r18	; 0x04
     4de:	8f e5       	ldi	r24, 0x5F	; 95
     4e0:	90 e0       	ldi	r25, 0x00	; 0
     4e2:	2a 81       	ldd	r18, Y+2	; 0x02
     4e4:	fc 01       	movw	r30, r24
     4e6:	20 83       	st	Z, r18
     4e8:	89 81       	ldd	r24, Y+1	; 0x01
     4ea:	0f 90       	pop	r0
     4ec:	0f 90       	pop	r0
     4ee:	0f 90       	pop	r0
     4f0:	0f 90       	pop	r0
     4f2:	df 91       	pop	r29
     4f4:	cf 91       	pop	r28
     4f6:	08 95       	ret

000004f8 <bufferAddToEnd>:

unsigned char bufferAddToEnd(cBuffer* buffer, unsigned char data)
{
     4f8:	cf 93       	push	r28
     4fa:	df 93       	push	r29
     4fc:	00 d0       	rcall	.+0      	; 0x4fe <bufferAddToEnd+0x6>
     4fe:	00 d0       	rcall	.+0      	; 0x500 <bufferAddToEnd+0x8>
     500:	cd b7       	in	r28, 0x3d	; 61
     502:	de b7       	in	r29, 0x3e	; 62
     504:	9b 83       	std	Y+3, r25	; 0x03
     506:	8a 83       	std	Y+2, r24	; 0x02
     508:	6c 83       	std	Y+4, r22	; 0x04
	// begin critical section
	CRITICAL_SECTION_START;
     50a:	8f e5       	ldi	r24, 0x5F	; 95
     50c:	90 e0       	ldi	r25, 0x00	; 0
     50e:	fc 01       	movw	r30, r24
     510:	80 81       	ld	r24, Z
     512:	89 83       	std	Y+1, r24	; 0x01
     514:	f8 94       	cli
	// make sure the buffer has room
	if(buffer->datalength < buffer->size)
     516:	8a 81       	ldd	r24, Y+2	; 0x02
     518:	9b 81       	ldd	r25, Y+3	; 0x03
     51a:	fc 01       	movw	r30, r24
     51c:	24 81       	ldd	r18, Z+4	; 0x04
     51e:	35 81       	ldd	r19, Z+5	; 0x05
     520:	8a 81       	ldd	r24, Y+2	; 0x02
     522:	9b 81       	ldd	r25, Y+3	; 0x03
     524:	fc 01       	movw	r30, r24
     526:	82 81       	ldd	r24, Z+2	; 0x02
     528:	93 81       	ldd	r25, Z+3	; 0x03
     52a:	28 17       	cp	r18, r24
     52c:	39 07       	cpc	r19, r25
     52e:	a0 f5       	brcc	.+104    	; 0x598 <bufferAddToEnd+0xa0>
	{
		// save data byte at end of buffer
		buffer->dataptr[(buffer->dataindex + buffer->datalength) % buffer->size] = data;
     530:	8a 81       	ldd	r24, Y+2	; 0x02
     532:	9b 81       	ldd	r25, Y+3	; 0x03
     534:	fc 01       	movw	r30, r24
     536:	20 81       	ld	r18, Z
     538:	31 81       	ldd	r19, Z+1	; 0x01
     53a:	8a 81       	ldd	r24, Y+2	; 0x02
     53c:	9b 81       	ldd	r25, Y+3	; 0x03
     53e:	fc 01       	movw	r30, r24
     540:	46 81       	ldd	r20, Z+6	; 0x06
     542:	57 81       	ldd	r21, Z+7	; 0x07
     544:	8a 81       	ldd	r24, Y+2	; 0x02
     546:	9b 81       	ldd	r25, Y+3	; 0x03
     548:	fc 01       	movw	r30, r24
     54a:	84 81       	ldd	r24, Z+4	; 0x04
     54c:	95 81       	ldd	r25, Z+5	; 0x05
     54e:	ba 01       	movw	r22, r20
     550:	68 0f       	add	r22, r24
     552:	79 1f       	adc	r23, r25
     554:	8a 81       	ldd	r24, Y+2	; 0x02
     556:	9b 81       	ldd	r25, Y+3	; 0x03
     558:	fc 01       	movw	r30, r24
     55a:	42 81       	ldd	r20, Z+2	; 0x02
     55c:	53 81       	ldd	r21, Z+3	; 0x03
     55e:	cb 01       	movw	r24, r22
     560:	ba 01       	movw	r22, r20
     562:	0e 94 4a 3e 	call	0x7c94	; 0x7c94 <__udivmodhi4>
     566:	82 0f       	add	r24, r18
     568:	93 1f       	adc	r25, r19
     56a:	2c 81       	ldd	r18, Y+4	; 0x04
     56c:	fc 01       	movw	r30, r24
     56e:	20 83       	st	Z, r18
		// increment the length
		buffer->datalength++;
     570:	8a 81       	ldd	r24, Y+2	; 0x02
     572:	9b 81       	ldd	r25, Y+3	; 0x03
     574:	fc 01       	movw	r30, r24
     576:	84 81       	ldd	r24, Z+4	; 0x04
     578:	95 81       	ldd	r25, Z+5	; 0x05
     57a:	9c 01       	movw	r18, r24
     57c:	2f 5f       	subi	r18, 0xFF	; 255
     57e:	3f 4f       	sbci	r19, 0xFF	; 255
     580:	8a 81       	ldd	r24, Y+2	; 0x02
     582:	9b 81       	ldd	r25, Y+3	; 0x03
     584:	fc 01       	movw	r30, r24
     586:	35 83       	std	Z+5, r19	; 0x05
     588:	24 83       	std	Z+4, r18	; 0x04
		// end critical section
		CRITICAL_SECTION_END;
     58a:	8f e5       	ldi	r24, 0x5F	; 95
     58c:	90 e0       	ldi	r25, 0x00	; 0
     58e:	29 81       	ldd	r18, Y+1	; 0x01
     590:	fc 01       	movw	r30, r24
     592:	20 83       	st	Z, r18
		// return success
		return -1;
     594:	8f ef       	ldi	r24, 0xFF	; 255
     596:	06 c0       	rjmp	.+12     	; 0x5a4 <bufferAddToEnd+0xac>
	}
	// end critical section
	CRITICAL_SECTION_END;
     598:	8f e5       	ldi	r24, 0x5F	; 95
     59a:	90 e0       	ldi	r25, 0x00	; 0
     59c:	29 81       	ldd	r18, Y+1	; 0x01
     59e:	fc 01       	movw	r30, r24
     5a0:	20 83       	st	Z, r18
	// return failure
	return 0;
     5a2:	80 e0       	ldi	r24, 0x00	; 0
}
     5a4:	0f 90       	pop	r0
     5a6:	0f 90       	pop	r0
     5a8:	0f 90       	pop	r0
     5aa:	0f 90       	pop	r0
     5ac:	df 91       	pop	r29
     5ae:	cf 91       	pop	r28
     5b0:	08 95       	ret

000005b2 <mem_cpy>:
		*tp = 0;
		FREE_BUF();
	}

	LEAVE_FF(dj.fs, res);
}
     5b2:	cf 93       	push	r28
     5b4:	df 93       	push	r29
     5b6:	cd b7       	in	r28, 0x3d	; 61
     5b8:	de b7       	in	r29, 0x3e	; 62
     5ba:	2a 97       	sbiw	r28, 0x0a	; 10
     5bc:	0f b6       	in	r0, 0x3f	; 63
     5be:	f8 94       	cli
     5c0:	de bf       	out	0x3e, r29	; 62
     5c2:	0f be       	out	0x3f, r0	; 63
     5c4:	cd bf       	out	0x3d, r28	; 61
     5c6:	9e 83       	std	Y+6, r25	; 0x06
     5c8:	8d 83       	std	Y+5, r24	; 0x05
     5ca:	78 87       	std	Y+8, r23	; 0x08
     5cc:	6f 83       	std	Y+7, r22	; 0x07
     5ce:	5a 87       	std	Y+10, r21	; 0x0a
     5d0:	49 87       	std	Y+9, r20	; 0x09
     5d2:	8d 81       	ldd	r24, Y+5	; 0x05
     5d4:	9e 81       	ldd	r25, Y+6	; 0x06
     5d6:	9a 83       	std	Y+2, r25	; 0x02
     5d8:	89 83       	std	Y+1, r24	; 0x01
     5da:	8f 81       	ldd	r24, Y+7	; 0x07
     5dc:	98 85       	ldd	r25, Y+8	; 0x08
     5de:	9c 83       	std	Y+4, r25	; 0x04
     5e0:	8b 83       	std	Y+3, r24	; 0x03
     5e2:	19 c0       	rjmp	.+50     	; 0x616 <mem_cpy+0x64>
     5e4:	8b 81       	ldd	r24, Y+3	; 0x03
     5e6:	9c 81       	ldd	r25, Y+4	; 0x04
     5e8:	fc 01       	movw	r30, r24
     5ea:	20 81       	ld	r18, Z
     5ec:	31 81       	ldd	r19, Z+1	; 0x01
     5ee:	89 81       	ldd	r24, Y+1	; 0x01
     5f0:	9a 81       	ldd	r25, Y+2	; 0x02
     5f2:	fc 01       	movw	r30, r24
     5f4:	31 83       	std	Z+1, r19	; 0x01
     5f6:	20 83       	st	Z, r18
     5f8:	89 81       	ldd	r24, Y+1	; 0x01
     5fa:	9a 81       	ldd	r25, Y+2	; 0x02
     5fc:	02 96       	adiw	r24, 0x02	; 2
     5fe:	9a 83       	std	Y+2, r25	; 0x02
     600:	89 83       	std	Y+1, r24	; 0x01
     602:	8b 81       	ldd	r24, Y+3	; 0x03
     604:	9c 81       	ldd	r25, Y+4	; 0x04
     606:	02 96       	adiw	r24, 0x02	; 2
     608:	9c 83       	std	Y+4, r25	; 0x04
     60a:	8b 83       	std	Y+3, r24	; 0x03
     60c:	89 85       	ldd	r24, Y+9	; 0x09
     60e:	9a 85       	ldd	r25, Y+10	; 0x0a
     610:	02 97       	sbiw	r24, 0x02	; 2
     612:	9a 87       	std	Y+10, r25	; 0x0a
     614:	89 87       	std	Y+9, r24	; 0x09
     616:	89 85       	ldd	r24, Y+9	; 0x09
     618:	9a 85       	ldd	r25, Y+10	; 0x0a
     61a:	02 97       	sbiw	r24, 0x02	; 2
     61c:	18 f7       	brcc	.-58     	; 0x5e4 <mem_cpy+0x32>
     61e:	12 c0       	rjmp	.+36     	; 0x644 <mem_cpy+0x92>
     620:	89 81       	ldd	r24, Y+1	; 0x01
     622:	9a 81       	ldd	r25, Y+2	; 0x02
     624:	9c 01       	movw	r18, r24
     626:	2f 5f       	subi	r18, 0xFF	; 255
     628:	3f 4f       	sbci	r19, 0xFF	; 255
     62a:	3a 83       	std	Y+2, r19	; 0x02
     62c:	29 83       	std	Y+1, r18	; 0x01
     62e:	2b 81       	ldd	r18, Y+3	; 0x03
     630:	3c 81       	ldd	r19, Y+4	; 0x04
     632:	a9 01       	movw	r20, r18
     634:	4f 5f       	subi	r20, 0xFF	; 255
     636:	5f 4f       	sbci	r21, 0xFF	; 255
     638:	5c 83       	std	Y+4, r21	; 0x04
     63a:	4b 83       	std	Y+3, r20	; 0x03
     63c:	f9 01       	movw	r30, r18
     63e:	20 81       	ld	r18, Z
     640:	fc 01       	movw	r30, r24
     642:	20 83       	st	Z, r18
     644:	89 85       	ldd	r24, Y+9	; 0x09
     646:	9a 85       	ldd	r25, Y+10	; 0x0a
     648:	9c 01       	movw	r18, r24
     64a:	21 50       	subi	r18, 0x01	; 1
     64c:	31 09       	sbc	r19, r1
     64e:	3a 87       	std	Y+10, r19	; 0x0a
     650:	29 87       	std	Y+9, r18	; 0x09
     652:	89 2b       	or	r24, r25
     654:	29 f7       	brne	.-54     	; 0x620 <mem_cpy+0x6e>
     656:	00 00       	nop
     658:	2a 96       	adiw	r28, 0x0a	; 10
     65a:	0f b6       	in	r0, 0x3f	; 63
     65c:	f8 94       	cli
     65e:	de bf       	out	0x3e, r29	; 62
     660:	0f be       	out	0x3f, r0	; 63
     662:	cd bf       	out	0x3d, r28	; 61
     664:	df 91       	pop	r29
     666:	cf 91       	pop	r28
     668:	08 95       	ret

0000066a <mem_set>:
     66a:	cf 93       	push	r28
     66c:	df 93       	push	r29
     66e:	cd b7       	in	r28, 0x3d	; 61
     670:	de b7       	in	r29, 0x3e	; 62
     672:	28 97       	sbiw	r28, 0x08	; 8
     674:	0f b6       	in	r0, 0x3f	; 63
     676:	f8 94       	cli
     678:	de bf       	out	0x3e, r29	; 62
     67a:	0f be       	out	0x3f, r0	; 63
     67c:	cd bf       	out	0x3d, r28	; 61
     67e:	9c 83       	std	Y+4, r25	; 0x04
     680:	8b 83       	std	Y+3, r24	; 0x03
     682:	7e 83       	std	Y+6, r23	; 0x06
     684:	6d 83       	std	Y+5, r22	; 0x05
     686:	58 87       	std	Y+8, r21	; 0x08
     688:	4f 83       	std	Y+7, r20	; 0x07
     68a:	8b 81       	ldd	r24, Y+3	; 0x03
     68c:	9c 81       	ldd	r25, Y+4	; 0x04
     68e:	9a 83       	std	Y+2, r25	; 0x02
     690:	89 83       	std	Y+1, r24	; 0x01
     692:	0a c0       	rjmp	.+20     	; 0x6a8 <mem_set+0x3e>
     694:	89 81       	ldd	r24, Y+1	; 0x01
     696:	9a 81       	ldd	r25, Y+2	; 0x02
     698:	9c 01       	movw	r18, r24
     69a:	2f 5f       	subi	r18, 0xFF	; 255
     69c:	3f 4f       	sbci	r19, 0xFF	; 255
     69e:	3a 83       	std	Y+2, r19	; 0x02
     6a0:	29 83       	std	Y+1, r18	; 0x01
     6a2:	2d 81       	ldd	r18, Y+5	; 0x05
     6a4:	fc 01       	movw	r30, r24
     6a6:	20 83       	st	Z, r18
     6a8:	8f 81       	ldd	r24, Y+7	; 0x07
     6aa:	98 85       	ldd	r25, Y+8	; 0x08
     6ac:	9c 01       	movw	r18, r24
     6ae:	21 50       	subi	r18, 0x01	; 1
     6b0:	31 09       	sbc	r19, r1
     6b2:	38 87       	std	Y+8, r19	; 0x08
     6b4:	2f 83       	std	Y+7, r18	; 0x07
     6b6:	89 2b       	or	r24, r25
     6b8:	69 f7       	brne	.-38     	; 0x694 <mem_set+0x2a>
     6ba:	00 00       	nop
     6bc:	28 96       	adiw	r28, 0x08	; 8
     6be:	0f b6       	in	r0, 0x3f	; 63
     6c0:	f8 94       	cli
     6c2:	de bf       	out	0x3e, r29	; 62
     6c4:	0f be       	out	0x3f, r0	; 63
     6c6:	cd bf       	out	0x3d, r28	; 61
     6c8:	df 91       	pop	r29
     6ca:	cf 91       	pop	r28
     6cc:	08 95       	ret

000006ce <mem_cmp>:
     6ce:	cf 93       	push	r28
     6d0:	df 93       	push	r29
     6d2:	cd b7       	in	r28, 0x3d	; 61
     6d4:	de b7       	in	r29, 0x3e	; 62
     6d6:	2c 97       	sbiw	r28, 0x0c	; 12
     6d8:	0f b6       	in	r0, 0x3f	; 63
     6da:	f8 94       	cli
     6dc:	de bf       	out	0x3e, r29	; 62
     6de:	0f be       	out	0x3f, r0	; 63
     6e0:	cd bf       	out	0x3d, r28	; 61
     6e2:	98 87       	std	Y+8, r25	; 0x08
     6e4:	8f 83       	std	Y+7, r24	; 0x07
     6e6:	7a 87       	std	Y+10, r23	; 0x0a
     6e8:	69 87       	std	Y+9, r22	; 0x09
     6ea:	5c 87       	std	Y+12, r21	; 0x0c
     6ec:	4b 87       	std	Y+11, r20	; 0x0b
     6ee:	8f 81       	ldd	r24, Y+7	; 0x07
     6f0:	98 85       	ldd	r25, Y+8	; 0x08
     6f2:	9a 83       	std	Y+2, r25	; 0x02
     6f4:	89 83       	std	Y+1, r24	; 0x01
     6f6:	89 85       	ldd	r24, Y+9	; 0x09
     6f8:	9a 85       	ldd	r25, Y+10	; 0x0a
     6fa:	9c 83       	std	Y+4, r25	; 0x04
     6fc:	8b 83       	std	Y+3, r24	; 0x03
     6fe:	1e 82       	std	Y+6, r1	; 0x06
     700:	1d 82       	std	Y+5, r1	; 0x05
     702:	00 00       	nop
     704:	8b 85       	ldd	r24, Y+11	; 0x0b
     706:	9c 85       	ldd	r25, Y+12	; 0x0c
     708:	9c 01       	movw	r18, r24
     70a:	21 50       	subi	r18, 0x01	; 1
     70c:	31 09       	sbc	r19, r1
     70e:	3c 87       	std	Y+12, r19	; 0x0c
     710:	2b 87       	std	Y+11, r18	; 0x0b
     712:	89 2b       	or	r24, r25
     714:	01 f1       	breq	.+64     	; 0x756 <mem_cmp+0x88>
     716:	89 81       	ldd	r24, Y+1	; 0x01
     718:	9a 81       	ldd	r25, Y+2	; 0x02
     71a:	9c 01       	movw	r18, r24
     71c:	2f 5f       	subi	r18, 0xFF	; 255
     71e:	3f 4f       	sbci	r19, 0xFF	; 255
     720:	3a 83       	std	Y+2, r19	; 0x02
     722:	29 83       	std	Y+1, r18	; 0x01
     724:	fc 01       	movw	r30, r24
     726:	80 81       	ld	r24, Z
     728:	28 2f       	mov	r18, r24
     72a:	30 e0       	ldi	r19, 0x00	; 0
     72c:	8b 81       	ldd	r24, Y+3	; 0x03
     72e:	9c 81       	ldd	r25, Y+4	; 0x04
     730:	ac 01       	movw	r20, r24
     732:	4f 5f       	subi	r20, 0xFF	; 255
     734:	5f 4f       	sbci	r21, 0xFF	; 255
     736:	5c 83       	std	Y+4, r21	; 0x04
     738:	4b 83       	std	Y+3, r20	; 0x03
     73a:	fc 01       	movw	r30, r24
     73c:	80 81       	ld	r24, Z
     73e:	88 2f       	mov	r24, r24
     740:	90 e0       	ldi	r25, 0x00	; 0
     742:	a9 01       	movw	r20, r18
     744:	48 1b       	sub	r20, r24
     746:	59 0b       	sbc	r21, r25
     748:	ca 01       	movw	r24, r20
     74a:	9e 83       	std	Y+6, r25	; 0x06
     74c:	8d 83       	std	Y+5, r24	; 0x05
     74e:	8d 81       	ldd	r24, Y+5	; 0x05
     750:	9e 81       	ldd	r25, Y+6	; 0x06
     752:	89 2b       	or	r24, r25
     754:	b9 f2       	breq	.-82     	; 0x704 <mem_cmp+0x36>
     756:	8d 81       	ldd	r24, Y+5	; 0x05
     758:	9e 81       	ldd	r25, Y+6	; 0x06
     75a:	2c 96       	adiw	r28, 0x0c	; 12
     75c:	0f b6       	in	r0, 0x3f	; 63
     75e:	f8 94       	cli
     760:	de bf       	out	0x3e, r29	; 62
     762:	0f be       	out	0x3f, r0	; 63
     764:	cd bf       	out	0x3d, r28	; 61
     766:	df 91       	pop	r29
     768:	cf 91       	pop	r28
     76a:	08 95       	ret

0000076c <chk_chr>:
     76c:	cf 93       	push	r28
     76e:	df 93       	push	r29
     770:	00 d0       	rcall	.+0      	; 0x772 <chk_chr+0x6>
     772:	00 d0       	rcall	.+0      	; 0x774 <chk_chr+0x8>
     774:	cd b7       	in	r28, 0x3d	; 61
     776:	de b7       	in	r29, 0x3e	; 62
     778:	9a 83       	std	Y+2, r25	; 0x02
     77a:	89 83       	std	Y+1, r24	; 0x01
     77c:	7c 83       	std	Y+4, r23	; 0x04
     77e:	6b 83       	std	Y+3, r22	; 0x03
     780:	05 c0       	rjmp	.+10     	; 0x78c <chk_chr+0x20>
     782:	89 81       	ldd	r24, Y+1	; 0x01
     784:	9a 81       	ldd	r25, Y+2	; 0x02
     786:	01 96       	adiw	r24, 0x01	; 1
     788:	9a 83       	std	Y+2, r25	; 0x02
     78a:	89 83       	std	Y+1, r24	; 0x01
     78c:	89 81       	ldd	r24, Y+1	; 0x01
     78e:	9a 81       	ldd	r25, Y+2	; 0x02
     790:	fc 01       	movw	r30, r24
     792:	80 81       	ld	r24, Z
     794:	88 23       	and	r24, r24
     796:	59 f0       	breq	.+22     	; 0x7ae <chk_chr+0x42>
     798:	89 81       	ldd	r24, Y+1	; 0x01
     79a:	9a 81       	ldd	r25, Y+2	; 0x02
     79c:	fc 01       	movw	r30, r24
     79e:	80 81       	ld	r24, Z
     7a0:	28 2f       	mov	r18, r24
     7a2:	30 e0       	ldi	r19, 0x00	; 0
     7a4:	8b 81       	ldd	r24, Y+3	; 0x03
     7a6:	9c 81       	ldd	r25, Y+4	; 0x04
     7a8:	28 17       	cp	r18, r24
     7aa:	39 07       	cpc	r19, r25
     7ac:	51 f7       	brne	.-44     	; 0x782 <chk_chr+0x16>
     7ae:	89 81       	ldd	r24, Y+1	; 0x01
     7b0:	9a 81       	ldd	r25, Y+2	; 0x02
     7b2:	fc 01       	movw	r30, r24
     7b4:	80 81       	ld	r24, Z
     7b6:	88 2f       	mov	r24, r24
     7b8:	90 e0       	ldi	r25, 0x00	; 0
     7ba:	0f 90       	pop	r0
     7bc:	0f 90       	pop	r0
     7be:	0f 90       	pop	r0
     7c0:	0f 90       	pop	r0
     7c2:	df 91       	pop	r29
     7c4:	cf 91       	pop	r28
     7c6:	08 95       	ret

000007c8 <move_window>:
     7c8:	0f 93       	push	r16
     7ca:	cf 93       	push	r28
     7cc:	df 93       	push	r29
     7ce:	cd b7       	in	r28, 0x3d	; 61
     7d0:	de b7       	in	r29, 0x3e	; 62
     7d2:	2b 97       	sbiw	r28, 0x0b	; 11
     7d4:	0f b6       	in	r0, 0x3f	; 63
     7d6:	f8 94       	cli
     7d8:	de bf       	out	0x3e, r29	; 62
     7da:	0f be       	out	0x3f, r0	; 63
     7dc:	cd bf       	out	0x3d, r28	; 61
     7de:	9f 83       	std	Y+7, r25	; 0x07
     7e0:	8e 83       	std	Y+6, r24	; 0x06
     7e2:	48 87       	std	Y+8, r20	; 0x08
     7e4:	59 87       	std	Y+9, r21	; 0x09
     7e6:	6a 87       	std	Y+10, r22	; 0x0a
     7e8:	7b 87       	std	Y+11, r23	; 0x0b
     7ea:	8e 81       	ldd	r24, Y+6	; 0x06
     7ec:	9f 81       	ldd	r25, Y+7	; 0x07
     7ee:	fc 01       	movw	r30, r24
     7f0:	86 a5       	ldd	r24, Z+46	; 0x2e
     7f2:	97 a5       	ldd	r25, Z+47	; 0x2f
     7f4:	a0 a9       	ldd	r26, Z+48	; 0x30
     7f6:	b1 a9       	ldd	r27, Z+49	; 0x31
     7f8:	89 83       	std	Y+1, r24	; 0x01
     7fa:	9a 83       	std	Y+2, r25	; 0x02
     7fc:	ab 83       	std	Y+3, r26	; 0x03
     7fe:	bc 83       	std	Y+4, r27	; 0x04
     800:	29 81       	ldd	r18, Y+1	; 0x01
     802:	3a 81       	ldd	r19, Y+2	; 0x02
     804:	4b 81       	ldd	r20, Y+3	; 0x03
     806:	5c 81       	ldd	r21, Y+4	; 0x04
     808:	88 85       	ldd	r24, Y+8	; 0x08
     80a:	99 85       	ldd	r25, Y+9	; 0x09
     80c:	aa 85       	ldd	r26, Y+10	; 0x0a
     80e:	bb 85       	ldd	r27, Y+11	; 0x0b
     810:	28 17       	cp	r18, r24
     812:	39 07       	cpc	r19, r25
     814:	4a 07       	cpc	r20, r26
     816:	5b 07       	cpc	r21, r27
     818:	09 f4       	brne	.+2      	; 0x81c <move_window+0x54>
     81a:	a0 c0       	rjmp	.+320    	; 0x95c <__stack+0xfd>
     81c:	8e 81       	ldd	r24, Y+6	; 0x06
     81e:	9f 81       	ldd	r25, Y+7	; 0x07
     820:	dc 01       	movw	r26, r24
     822:	14 96       	adiw	r26, 0x04	; 4
     824:	8c 91       	ld	r24, X
     826:	88 23       	and	r24, r24
     828:	09 f4       	brne	.+2      	; 0x82c <move_window+0x64>
     82a:	6d c0       	rjmp	.+218    	; 0x906 <__stack+0xa7>
     82c:	8e 81       	ldd	r24, Y+6	; 0x06
     82e:	9f 81       	ldd	r25, Y+7	; 0x07
     830:	bc 01       	movw	r22, r24
     832:	6e 5c       	subi	r22, 0xCE	; 206
     834:	7f 4f       	sbci	r23, 0xFF	; 255
     836:	8e 81       	ldd	r24, Y+6	; 0x06
     838:	9f 81       	ldd	r25, Y+7	; 0x07
     83a:	dc 01       	movw	r26, r24
     83c:	11 96       	adiw	r26, 0x01	; 1
     83e:	ec 91       	ld	r30, X
     840:	89 81       	ldd	r24, Y+1	; 0x01
     842:	9a 81       	ldd	r25, Y+2	; 0x02
     844:	ab 81       	ldd	r26, Y+3	; 0x03
     846:	bc 81       	ldd	r27, Y+4	; 0x04
     848:	01 e0       	ldi	r16, 0x01	; 1
     84a:	9c 01       	movw	r18, r24
     84c:	ad 01       	movw	r20, r26
     84e:	8e 2f       	mov	r24, r30
     850:	0e 94 bf 36 	call	0x6d7e	; 0x6d7e <disk_write>
     854:	88 23       	and	r24, r24
     856:	11 f0       	breq	.+4      	; 0x85c <move_window+0x94>
     858:	81 e0       	ldi	r24, 0x01	; 1
     85a:	81 c0       	rjmp	.+258    	; 0x95e <__stack+0xff>
     85c:	8e 81       	ldd	r24, Y+6	; 0x06
     85e:	9f 81       	ldd	r25, Y+7	; 0x07
     860:	fc 01       	movw	r30, r24
     862:	14 82       	std	Z+4, r1	; 0x04
     864:	8e 81       	ldd	r24, Y+6	; 0x06
     866:	9f 81       	ldd	r25, Y+7	; 0x07
     868:	dc 01       	movw	r26, r24
     86a:	92 96       	adiw	r26, 0x22	; 34
     86c:	2d 91       	ld	r18, X+
     86e:	3d 91       	ld	r19, X+
     870:	4d 91       	ld	r20, X+
     872:	5c 91       	ld	r21, X
     874:	95 97       	sbiw	r26, 0x25	; 37
     876:	8e 81       	ldd	r24, Y+6	; 0x06
     878:	9f 81       	ldd	r25, Y+7	; 0x07
     87a:	fc 01       	movw	r30, r24
     87c:	86 8d       	ldd	r24, Z+30	; 0x1e
     87e:	97 8d       	ldd	r25, Z+31	; 0x1f
     880:	a0 a1       	ldd	r26, Z+32	; 0x20
     882:	b1 a1       	ldd	r27, Z+33	; 0x21
     884:	28 0f       	add	r18, r24
     886:	39 1f       	adc	r19, r25
     888:	4a 1f       	adc	r20, r26
     88a:	5b 1f       	adc	r21, r27
     88c:	89 81       	ldd	r24, Y+1	; 0x01
     88e:	9a 81       	ldd	r25, Y+2	; 0x02
     890:	ab 81       	ldd	r26, Y+3	; 0x03
     892:	bc 81       	ldd	r27, Y+4	; 0x04
     894:	82 17       	cp	r24, r18
     896:	93 07       	cpc	r25, r19
     898:	a4 07       	cpc	r26, r20
     89a:	b5 07       	cpc	r27, r21
     89c:	a0 f5       	brcc	.+104    	; 0x906 <__stack+0xa7>
     89e:	8e 81       	ldd	r24, Y+6	; 0x06
     8a0:	9f 81       	ldd	r25, Y+7	; 0x07
     8a2:	dc 01       	movw	r26, r24
     8a4:	13 96       	adiw	r26, 0x03	; 3
     8a6:	8c 91       	ld	r24, X
     8a8:	8d 83       	std	Y+5, r24	; 0x05
     8aa:	2a c0       	rjmp	.+84     	; 0x900 <__stack+0xa1>
     8ac:	8e 81       	ldd	r24, Y+6	; 0x06
     8ae:	9f 81       	ldd	r25, Y+7	; 0x07
     8b0:	fc 01       	movw	r30, r24
     8b2:	86 8d       	ldd	r24, Z+30	; 0x1e
     8b4:	97 8d       	ldd	r25, Z+31	; 0x1f
     8b6:	a0 a1       	ldd	r26, Z+32	; 0x20
     8b8:	b1 a1       	ldd	r27, Z+33	; 0x21
     8ba:	29 81       	ldd	r18, Y+1	; 0x01
     8bc:	3a 81       	ldd	r19, Y+2	; 0x02
     8be:	4b 81       	ldd	r20, Y+3	; 0x03
     8c0:	5c 81       	ldd	r21, Y+4	; 0x04
     8c2:	82 0f       	add	r24, r18
     8c4:	93 1f       	adc	r25, r19
     8c6:	a4 1f       	adc	r26, r20
     8c8:	b5 1f       	adc	r27, r21
     8ca:	89 83       	std	Y+1, r24	; 0x01
     8cc:	9a 83       	std	Y+2, r25	; 0x02
     8ce:	ab 83       	std	Y+3, r26	; 0x03
     8d0:	bc 83       	std	Y+4, r27	; 0x04
     8d2:	8e 81       	ldd	r24, Y+6	; 0x06
     8d4:	9f 81       	ldd	r25, Y+7	; 0x07
     8d6:	bc 01       	movw	r22, r24
     8d8:	6e 5c       	subi	r22, 0xCE	; 206
     8da:	7f 4f       	sbci	r23, 0xFF	; 255
     8dc:	8e 81       	ldd	r24, Y+6	; 0x06
     8de:	9f 81       	ldd	r25, Y+7	; 0x07
     8e0:	dc 01       	movw	r26, r24
     8e2:	11 96       	adiw	r26, 0x01	; 1
     8e4:	ec 91       	ld	r30, X
     8e6:	89 81       	ldd	r24, Y+1	; 0x01
     8e8:	9a 81       	ldd	r25, Y+2	; 0x02
     8ea:	ab 81       	ldd	r26, Y+3	; 0x03
     8ec:	bc 81       	ldd	r27, Y+4	; 0x04
     8ee:	01 e0       	ldi	r16, 0x01	; 1
     8f0:	9c 01       	movw	r18, r24
     8f2:	ad 01       	movw	r20, r26
     8f4:	8e 2f       	mov	r24, r30
     8f6:	0e 94 bf 36 	call	0x6d7e	; 0x6d7e <disk_write>
     8fa:	8d 81       	ldd	r24, Y+5	; 0x05
     8fc:	81 50       	subi	r24, 0x01	; 1
     8fe:	8d 83       	std	Y+5, r24	; 0x05
     900:	8d 81       	ldd	r24, Y+5	; 0x05
     902:	82 30       	cpi	r24, 0x02	; 2
     904:	98 f6       	brcc	.-90     	; 0x8ac <__stack+0x4d>
     906:	88 85       	ldd	r24, Y+8	; 0x08
     908:	99 85       	ldd	r25, Y+9	; 0x09
     90a:	aa 85       	ldd	r26, Y+10	; 0x0a
     90c:	bb 85       	ldd	r27, Y+11	; 0x0b
     90e:	89 2b       	or	r24, r25
     910:	8a 2b       	or	r24, r26
     912:	8b 2b       	or	r24, r27
     914:	19 f1       	breq	.+70     	; 0x95c <__stack+0xfd>
     916:	8e 81       	ldd	r24, Y+6	; 0x06
     918:	9f 81       	ldd	r25, Y+7	; 0x07
     91a:	bc 01       	movw	r22, r24
     91c:	6e 5c       	subi	r22, 0xCE	; 206
     91e:	7f 4f       	sbci	r23, 0xFF	; 255
     920:	8e 81       	ldd	r24, Y+6	; 0x06
     922:	9f 81       	ldd	r25, Y+7	; 0x07
     924:	dc 01       	movw	r26, r24
     926:	11 96       	adiw	r26, 0x01	; 1
     928:	ec 91       	ld	r30, X
     92a:	88 85       	ldd	r24, Y+8	; 0x08
     92c:	99 85       	ldd	r25, Y+9	; 0x09
     92e:	aa 85       	ldd	r26, Y+10	; 0x0a
     930:	bb 85       	ldd	r27, Y+11	; 0x0b
     932:	01 e0       	ldi	r16, 0x01	; 1
     934:	9c 01       	movw	r18, r24
     936:	ad 01       	movw	r20, r26
     938:	8e 2f       	mov	r24, r30
     93a:	0e 94 32 36 	call	0x6c64	; 0x6c64 <disk_read>
     93e:	88 23       	and	r24, r24
     940:	11 f0       	breq	.+4      	; 0x946 <__stack+0xe7>
     942:	81 e0       	ldi	r24, 0x01	; 1
     944:	0c c0       	rjmp	.+24     	; 0x95e <__stack+0xff>
     946:	2e 81       	ldd	r18, Y+6	; 0x06
     948:	3f 81       	ldd	r19, Y+7	; 0x07
     94a:	88 85       	ldd	r24, Y+8	; 0x08
     94c:	99 85       	ldd	r25, Y+9	; 0x09
     94e:	aa 85       	ldd	r26, Y+10	; 0x0a
     950:	bb 85       	ldd	r27, Y+11	; 0x0b
     952:	f9 01       	movw	r30, r18
     954:	86 a7       	std	Z+46, r24	; 0x2e
     956:	97 a7       	std	Z+47, r25	; 0x2f
     958:	a0 ab       	std	Z+48, r26	; 0x30
     95a:	b1 ab       	std	Z+49, r27	; 0x31
     95c:	80 e0       	ldi	r24, 0x00	; 0
     95e:	2b 96       	adiw	r28, 0x0b	; 11
     960:	0f b6       	in	r0, 0x3f	; 63
     962:	f8 94       	cli
     964:	de bf       	out	0x3e, r29	; 62
     966:	0f be       	out	0x3f, r0	; 63
     968:	cd bf       	out	0x3d, r28	; 61
     96a:	df 91       	pop	r29
     96c:	cf 91       	pop	r28
     96e:	0f 91       	pop	r16
     970:	08 95       	ret

00000972 <sync>:
     972:	0f 93       	push	r16
     974:	cf 93       	push	r28
     976:	df 93       	push	r29
     978:	00 d0       	rcall	.+0      	; 0x97a <sync+0x8>
     97a:	00 d0       	rcall	.+0      	; 0x97c <sync+0xa>
     97c:	cd b7       	in	r28, 0x3d	; 61
     97e:	de b7       	in	r29, 0x3e	; 62
     980:	9b 83       	std	Y+3, r25	; 0x03
     982:	8a 83       	std	Y+2, r24	; 0x02
     984:	8a 81       	ldd	r24, Y+2	; 0x02
     986:	9b 81       	ldd	r25, Y+3	; 0x03
     988:	40 e0       	ldi	r20, 0x00	; 0
     98a:	50 e0       	ldi	r21, 0x00	; 0
     98c:	ba 01       	movw	r22, r20
     98e:	0e 94 e4 03 	call	0x7c8	; 0x7c8 <move_window>
     992:	89 83       	std	Y+1, r24	; 0x01
     994:	89 81       	ldd	r24, Y+1	; 0x01
     996:	88 23       	and	r24, r24
     998:	09 f0       	breq	.+2      	; 0x99c <sync+0x2a>
     99a:	91 c0       	rjmp	.+290    	; 0xabe <sync+0x14c>
     99c:	8a 81       	ldd	r24, Y+2	; 0x02
     99e:	9b 81       	ldd	r25, Y+3	; 0x03
     9a0:	fc 01       	movw	r30, r24
     9a2:	80 81       	ld	r24, Z
     9a4:	83 30       	cpi	r24, 0x03	; 3
     9a6:	09 f0       	breq	.+2      	; 0x9aa <sync+0x38>
     9a8:	7d c0       	rjmp	.+250    	; 0xaa4 <sync+0x132>
     9aa:	8a 81       	ldd	r24, Y+2	; 0x02
     9ac:	9b 81       	ldd	r25, Y+3	; 0x03
     9ae:	fc 01       	movw	r30, r24
     9b0:	85 81       	ldd	r24, Z+5	; 0x05
     9b2:	88 23       	and	r24, r24
     9b4:	09 f4       	brne	.+2      	; 0x9b8 <sync+0x46>
     9b6:	76 c0       	rjmp	.+236    	; 0xaa4 <sync+0x132>
     9b8:	8a 81       	ldd	r24, Y+2	; 0x02
     9ba:	9b 81       	ldd	r25, Y+3	; 0x03
     9bc:	fc 01       	movw	r30, r24
     9be:	16 a6       	std	Z+46, r1	; 0x2e
     9c0:	17 a6       	std	Z+47, r1	; 0x2f
     9c2:	10 aa       	std	Z+48, r1	; 0x30
     9c4:	11 aa       	std	Z+49, r1	; 0x31
     9c6:	8a 81       	ldd	r24, Y+2	; 0x02
     9c8:	9b 81       	ldd	r25, Y+3	; 0x03
     9ca:	c2 96       	adiw	r24, 0x32	; 50
     9cc:	40 e0       	ldi	r20, 0x00	; 0
     9ce:	52 e0       	ldi	r21, 0x02	; 2
     9d0:	60 e0       	ldi	r22, 0x00	; 0
     9d2:	70 e0       	ldi	r23, 0x00	; 0
     9d4:	0e 94 35 03 	call	0x66a	; 0x66a <mem_set>
     9d8:	8a 81       	ldd	r24, Y+2	; 0x02
     9da:	9b 81       	ldd	r25, Y+3	; 0x03
     9dc:	c2 96       	adiw	r24, 0x32	; 50
     9de:	82 50       	subi	r24, 0x02	; 2
     9e0:	9e 4f       	sbci	r25, 0xFE	; 254
     9e2:	25 e5       	ldi	r18, 0x55	; 85
     9e4:	3a ea       	ldi	r19, 0xAA	; 170
     9e6:	fc 01       	movw	r30, r24
     9e8:	31 83       	std	Z+1, r19	; 0x01
     9ea:	20 83       	st	Z, r18
     9ec:	8a 81       	ldd	r24, Y+2	; 0x02
     9ee:	9b 81       	ldd	r25, Y+3	; 0x03
     9f0:	9c 01       	movw	r18, r24
     9f2:	2e 5c       	subi	r18, 0xCE	; 206
     9f4:	3f 4f       	sbci	r19, 0xFF	; 255
     9f6:	82 e5       	ldi	r24, 0x52	; 82
     9f8:	92 e5       	ldi	r25, 0x52	; 82
     9fa:	a1 e6       	ldi	r26, 0x61	; 97
     9fc:	b1 e4       	ldi	r27, 0x41	; 65
     9fe:	f9 01       	movw	r30, r18
     a00:	80 83       	st	Z, r24
     a02:	91 83       	std	Z+1, r25	; 0x01
     a04:	a2 83       	std	Z+2, r26	; 0x02
     a06:	b3 83       	std	Z+3, r27	; 0x03
     a08:	8a 81       	ldd	r24, Y+2	; 0x02
     a0a:	9b 81       	ldd	r25, Y+3	; 0x03
     a0c:	c2 96       	adiw	r24, 0x32	; 50
     a0e:	9c 01       	movw	r18, r24
     a10:	2c 51       	subi	r18, 0x1C	; 28
     a12:	3e 4f       	sbci	r19, 0xFE	; 254
     a14:	82 e7       	ldi	r24, 0x72	; 114
     a16:	92 e7       	ldi	r25, 0x72	; 114
     a18:	a1 e4       	ldi	r26, 0x41	; 65
     a1a:	b1 e6       	ldi	r27, 0x61	; 97
     a1c:	f9 01       	movw	r30, r18
     a1e:	80 83       	st	Z, r24
     a20:	91 83       	std	Z+1, r25	; 0x01
     a22:	a2 83       	std	Z+2, r26	; 0x02
     a24:	b3 83       	std	Z+3, r27	; 0x03
     a26:	8a 81       	ldd	r24, Y+2	; 0x02
     a28:	9b 81       	ldd	r25, Y+3	; 0x03
     a2a:	c2 96       	adiw	r24, 0x32	; 50
     a2c:	9c 01       	movw	r18, r24
     a2e:	28 51       	subi	r18, 0x18	; 24
     a30:	3e 4f       	sbci	r19, 0xFE	; 254
     a32:	8a 81       	ldd	r24, Y+2	; 0x02
     a34:	9b 81       	ldd	r25, Y+3	; 0x03
     a36:	fc 01       	movw	r30, r24
     a38:	86 85       	ldd	r24, Z+14	; 0x0e
     a3a:	97 85       	ldd	r25, Z+15	; 0x0f
     a3c:	a0 89       	ldd	r26, Z+16	; 0x10
     a3e:	b1 89       	ldd	r27, Z+17	; 0x11
     a40:	f9 01       	movw	r30, r18
     a42:	80 83       	st	Z, r24
     a44:	91 83       	std	Z+1, r25	; 0x01
     a46:	a2 83       	std	Z+2, r26	; 0x02
     a48:	b3 83       	std	Z+3, r27	; 0x03
     a4a:	8a 81       	ldd	r24, Y+2	; 0x02
     a4c:	9b 81       	ldd	r25, Y+3	; 0x03
     a4e:	c2 96       	adiw	r24, 0x32	; 50
     a50:	9c 01       	movw	r18, r24
     a52:	24 51       	subi	r18, 0x14	; 20
     a54:	3e 4f       	sbci	r19, 0xFE	; 254
     a56:	8a 81       	ldd	r24, Y+2	; 0x02
     a58:	9b 81       	ldd	r25, Y+3	; 0x03
     a5a:	fc 01       	movw	r30, r24
     a5c:	82 85       	ldd	r24, Z+10	; 0x0a
     a5e:	93 85       	ldd	r25, Z+11	; 0x0b
     a60:	a4 85       	ldd	r26, Z+12	; 0x0c
     a62:	b5 85       	ldd	r27, Z+13	; 0x0d
     a64:	f9 01       	movw	r30, r18
     a66:	80 83       	st	Z, r24
     a68:	91 83       	std	Z+1, r25	; 0x01
     a6a:	a2 83       	std	Z+2, r26	; 0x02
     a6c:	b3 83       	std	Z+3, r27	; 0x03
     a6e:	8a 81       	ldd	r24, Y+2	; 0x02
     a70:	9b 81       	ldd	r25, Y+3	; 0x03
     a72:	fc 01       	movw	r30, r24
     a74:	82 89       	ldd	r24, Z+18	; 0x12
     a76:	93 89       	ldd	r25, Z+19	; 0x13
     a78:	a4 89       	ldd	r26, Z+20	; 0x14
     a7a:	b5 89       	ldd	r27, Z+21	; 0x15
     a7c:	2a 81       	ldd	r18, Y+2	; 0x02
     a7e:	3b 81       	ldd	r19, Y+3	; 0x03
     a80:	b9 01       	movw	r22, r18
     a82:	6e 5c       	subi	r22, 0xCE	; 206
     a84:	7f 4f       	sbci	r23, 0xFF	; 255
     a86:	2a 81       	ldd	r18, Y+2	; 0x02
     a88:	3b 81       	ldd	r19, Y+3	; 0x03
     a8a:	f9 01       	movw	r30, r18
     a8c:	f1 81       	ldd	r31, Z+1	; 0x01
     a8e:	fc 83       	std	Y+4, r31	; 0x04
     a90:	01 e0       	ldi	r16, 0x01	; 1
     a92:	9c 01       	movw	r18, r24
     a94:	ad 01       	movw	r20, r26
     a96:	8c 81       	ldd	r24, Y+4	; 0x04
     a98:	0e 94 bf 36 	call	0x6d7e	; 0x6d7e <disk_write>
     a9c:	8a 81       	ldd	r24, Y+2	; 0x02
     a9e:	9b 81       	ldd	r25, Y+3	; 0x03
     aa0:	fc 01       	movw	r30, r24
     aa2:	15 82       	std	Z+5, r1	; 0x05
     aa4:	8a 81       	ldd	r24, Y+2	; 0x02
     aa6:	9b 81       	ldd	r25, Y+3	; 0x03
     aa8:	fc 01       	movw	r30, r24
     aaa:	81 81       	ldd	r24, Z+1	; 0x01
     aac:	40 e0       	ldi	r20, 0x00	; 0
     aae:	50 e0       	ldi	r21, 0x00	; 0
     ab0:	60 e0       	ldi	r22, 0x00	; 0
     ab2:	0e 94 6a 37 	call	0x6ed4	; 0x6ed4 <disk_ioctl>
     ab6:	88 23       	and	r24, r24
     ab8:	11 f0       	breq	.+4      	; 0xabe <sync+0x14c>
     aba:	81 e0       	ldi	r24, 0x01	; 1
     abc:	89 83       	std	Y+1, r24	; 0x01
     abe:	89 81       	ldd	r24, Y+1	; 0x01
     ac0:	0f 90       	pop	r0
     ac2:	0f 90       	pop	r0
     ac4:	0f 90       	pop	r0
     ac6:	0f 90       	pop	r0
     ac8:	df 91       	pop	r29
     aca:	cf 91       	pop	r28
     acc:	0f 91       	pop	r16
     ace:	08 95       	ret

00000ad0 <clust2sect>:
     ad0:	cf 93       	push	r28
     ad2:	df 93       	push	r29
     ad4:	00 d0       	rcall	.+0      	; 0xad6 <clust2sect+0x6>
     ad6:	00 d0       	rcall	.+0      	; 0xad8 <clust2sect+0x8>
     ad8:	00 d0       	rcall	.+0      	; 0xada <clust2sect+0xa>
     ada:	cd b7       	in	r28, 0x3d	; 61
     adc:	de b7       	in	r29, 0x3e	; 62
     ade:	9a 83       	std	Y+2, r25	; 0x02
     ae0:	89 83       	std	Y+1, r24	; 0x01
     ae2:	4b 83       	std	Y+3, r20	; 0x03
     ae4:	5c 83       	std	Y+4, r21	; 0x04
     ae6:	6d 83       	std	Y+5, r22	; 0x05
     ae8:	7e 83       	std	Y+6, r23	; 0x06
     aea:	8b 81       	ldd	r24, Y+3	; 0x03
     aec:	9c 81       	ldd	r25, Y+4	; 0x04
     aee:	ad 81       	ldd	r26, Y+5	; 0x05
     af0:	be 81       	ldd	r27, Y+6	; 0x06
     af2:	02 97       	sbiw	r24, 0x02	; 2
     af4:	a1 09       	sbc	r26, r1
     af6:	b1 09       	sbc	r27, r1
     af8:	8b 83       	std	Y+3, r24	; 0x03
     afa:	9c 83       	std	Y+4, r25	; 0x04
     afc:	ad 83       	std	Y+5, r26	; 0x05
     afe:	be 83       	std	Y+6, r27	; 0x06
     b00:	89 81       	ldd	r24, Y+1	; 0x01
     b02:	9a 81       	ldd	r25, Y+2	; 0x02
     b04:	fc 01       	movw	r30, r24
     b06:	82 8d       	ldd	r24, Z+26	; 0x1a
     b08:	93 8d       	ldd	r25, Z+27	; 0x1b
     b0a:	a4 8d       	ldd	r26, Z+28	; 0x1c
     b0c:	b5 8d       	ldd	r27, Z+29	; 0x1d
     b0e:	9c 01       	movw	r18, r24
     b10:	ad 01       	movw	r20, r26
     b12:	22 50       	subi	r18, 0x02	; 2
     b14:	31 09       	sbc	r19, r1
     b16:	41 09       	sbc	r20, r1
     b18:	51 09       	sbc	r21, r1
     b1a:	8b 81       	ldd	r24, Y+3	; 0x03
     b1c:	9c 81       	ldd	r25, Y+4	; 0x04
     b1e:	ad 81       	ldd	r26, Y+5	; 0x05
     b20:	be 81       	ldd	r27, Y+6	; 0x06
     b22:	82 17       	cp	r24, r18
     b24:	93 07       	cpc	r25, r19
     b26:	a4 07       	cpc	r26, r20
     b28:	b5 07       	cpc	r27, r21
     b2a:	20 f0       	brcs	.+8      	; 0xb34 <clust2sect+0x64>
     b2c:	80 e0       	ldi	r24, 0x00	; 0
     b2e:	90 e0       	ldi	r25, 0x00	; 0
     b30:	dc 01       	movw	r26, r24
     b32:	1d c0       	rjmp	.+58     	; 0xb6e <clust2sect+0x9e>
     b34:	89 81       	ldd	r24, Y+1	; 0x01
     b36:	9a 81       	ldd	r25, Y+2	; 0x02
     b38:	fc 01       	movw	r30, r24
     b3a:	82 81       	ldd	r24, Z+2	; 0x02
     b3c:	28 2f       	mov	r18, r24
     b3e:	30 e0       	ldi	r19, 0x00	; 0
     b40:	40 e0       	ldi	r20, 0x00	; 0
     b42:	50 e0       	ldi	r21, 0x00	; 0
     b44:	8b 81       	ldd	r24, Y+3	; 0x03
     b46:	9c 81       	ldd	r25, Y+4	; 0x04
     b48:	ad 81       	ldd	r26, Y+5	; 0x05
     b4a:	be 81       	ldd	r27, Y+6	; 0x06
     b4c:	bc 01       	movw	r22, r24
     b4e:	cd 01       	movw	r24, r26
     b50:	0e 94 3a 3e 	call	0x7c74	; 0x7c74 <__mulsi3>
     b54:	9b 01       	movw	r18, r22
     b56:	ac 01       	movw	r20, r24
     b58:	89 81       	ldd	r24, Y+1	; 0x01
     b5a:	9a 81       	ldd	r25, Y+2	; 0x02
     b5c:	fc 01       	movw	r30, r24
     b5e:	82 a5       	ldd	r24, Z+42	; 0x2a
     b60:	93 a5       	ldd	r25, Z+43	; 0x2b
     b62:	a4 a5       	ldd	r26, Z+44	; 0x2c
     b64:	b5 a5       	ldd	r27, Z+45	; 0x2d
     b66:	82 0f       	add	r24, r18
     b68:	93 1f       	adc	r25, r19
     b6a:	a4 1f       	adc	r26, r20
     b6c:	b5 1f       	adc	r27, r21
     b6e:	bc 01       	movw	r22, r24
     b70:	cd 01       	movw	r24, r26
     b72:	26 96       	adiw	r28, 0x06	; 6
     b74:	0f b6       	in	r0, 0x3f	; 63
     b76:	f8 94       	cli
     b78:	de bf       	out	0x3e, r29	; 62
     b7a:	0f be       	out	0x3f, r0	; 63
     b7c:	cd bf       	out	0x3d, r28	; 61
     b7e:	df 91       	pop	r29
     b80:	cf 91       	pop	r28
     b82:	08 95       	ret

00000b84 <get_fat>:
     b84:	cf 93       	push	r28
     b86:	df 93       	push	r29
     b88:	cd b7       	in	r28, 0x3d	; 61
     b8a:	de b7       	in	r29, 0x3e	; 62
     b8c:	2c 97       	sbiw	r28, 0x0c	; 12
     b8e:	0f b6       	in	r0, 0x3f	; 63
     b90:	f8 94       	cli
     b92:	de bf       	out	0x3e, r29	; 62
     b94:	0f be       	out	0x3f, r0	; 63
     b96:	cd bf       	out	0x3d, r28	; 61
     b98:	98 87       	std	Y+8, r25	; 0x08
     b9a:	8f 83       	std	Y+7, r24	; 0x07
     b9c:	49 87       	std	Y+9, r20	; 0x09
     b9e:	5a 87       	std	Y+10, r21	; 0x0a
     ba0:	6b 87       	std	Y+11, r22	; 0x0b
     ba2:	7c 87       	std	Y+12, r23	; 0x0c
     ba4:	89 85       	ldd	r24, Y+9	; 0x09
     ba6:	9a 85       	ldd	r25, Y+10	; 0x0a
     ba8:	ab 85       	ldd	r26, Y+11	; 0x0b
     baa:	bc 85       	ldd	r27, Y+12	; 0x0c
     bac:	02 97       	sbiw	r24, 0x02	; 2
     bae:	a1 05       	cpc	r26, r1
     bb0:	b1 05       	cpc	r27, r1
     bb2:	80 f0       	brcs	.+32     	; 0xbd4 <get_fat+0x50>
     bb4:	8f 81       	ldd	r24, Y+7	; 0x07
     bb6:	98 85       	ldd	r25, Y+8	; 0x08
     bb8:	fc 01       	movw	r30, r24
     bba:	22 8d       	ldd	r18, Z+26	; 0x1a
     bbc:	33 8d       	ldd	r19, Z+27	; 0x1b
     bbe:	44 8d       	ldd	r20, Z+28	; 0x1c
     bc0:	55 8d       	ldd	r21, Z+29	; 0x1d
     bc2:	89 85       	ldd	r24, Y+9	; 0x09
     bc4:	9a 85       	ldd	r25, Y+10	; 0x0a
     bc6:	ab 85       	ldd	r26, Y+11	; 0x0b
     bc8:	bc 85       	ldd	r27, Y+12	; 0x0c
     bca:	82 17       	cp	r24, r18
     bcc:	93 07       	cpc	r25, r19
     bce:	a4 07       	cpc	r26, r20
     bd0:	b5 07       	cpc	r27, r21
     bd2:	28 f0       	brcs	.+10     	; 0xbde <get_fat+0x5a>
     bd4:	81 e0       	ldi	r24, 0x01	; 1
     bd6:	90 e0       	ldi	r25, 0x00	; 0
     bd8:	a0 e0       	ldi	r26, 0x00	; 0
     bda:	b0 e0       	ldi	r27, 0x00	; 0
     bdc:	25 c1       	rjmp	.+586    	; 0xe28 <get_fat+0x2a4>
     bde:	8f 81       	ldd	r24, Y+7	; 0x07
     be0:	98 85       	ldd	r25, Y+8	; 0x08
     be2:	fc 01       	movw	r30, r24
     be4:	80 81       	ld	r24, Z
     be6:	88 2f       	mov	r24, r24
     be8:	90 e0       	ldi	r25, 0x00	; 0
     bea:	82 30       	cpi	r24, 0x02	; 2
     bec:	91 05       	cpc	r25, r1
     bee:	09 f4       	brne	.+2      	; 0xbf2 <get_fat+0x6e>
     bf0:	98 c0       	rjmp	.+304    	; 0xd22 <get_fat+0x19e>
     bf2:	83 30       	cpi	r24, 0x03	; 3
     bf4:	91 05       	cpc	r25, r1
     bf6:	09 f4       	brne	.+2      	; 0xbfa <get_fat+0x76>
     bf8:	cd c0       	rjmp	.+410    	; 0xd94 <get_fat+0x210>
     bfa:	01 97       	sbiw	r24, 0x01	; 1
     bfc:	09 f0       	breq	.+2      	; 0xc00 <get_fat+0x7c>
     bfe:	11 c1       	rjmp	.+546    	; 0xe22 <get_fat+0x29e>
     c00:	89 85       	ldd	r24, Y+9	; 0x09
     c02:	9a 85       	ldd	r25, Y+10	; 0x0a
     c04:	9a 83       	std	Y+2, r25	; 0x02
     c06:	89 83       	std	Y+1, r24	; 0x01
     c08:	89 81       	ldd	r24, Y+1	; 0x01
     c0a:	9a 81       	ldd	r25, Y+2	; 0x02
     c0c:	96 95       	lsr	r25
     c0e:	87 95       	ror	r24
     c10:	29 81       	ldd	r18, Y+1	; 0x01
     c12:	3a 81       	ldd	r19, Y+2	; 0x02
     c14:	82 0f       	add	r24, r18
     c16:	93 1f       	adc	r25, r19
     c18:	9a 83       	std	Y+2, r25	; 0x02
     c1a:	89 83       	std	Y+1, r24	; 0x01
     c1c:	8f 81       	ldd	r24, Y+7	; 0x07
     c1e:	98 85       	ldd	r25, Y+8	; 0x08
     c20:	fc 01       	movw	r30, r24
     c22:	22 a1       	ldd	r18, Z+34	; 0x22
     c24:	33 a1       	ldd	r19, Z+35	; 0x23
     c26:	44 a1       	ldd	r20, Z+36	; 0x24
     c28:	55 a1       	ldd	r21, Z+37	; 0x25
     c2a:	89 81       	ldd	r24, Y+1	; 0x01
     c2c:	9a 81       	ldd	r25, Y+2	; 0x02
     c2e:	89 2f       	mov	r24, r25
     c30:	99 27       	eor	r25, r25
     c32:	86 95       	lsr	r24
     c34:	cc 01       	movw	r24, r24
     c36:	a0 e0       	ldi	r26, 0x00	; 0
     c38:	b0 e0       	ldi	r27, 0x00	; 0
     c3a:	82 0f       	add	r24, r18
     c3c:	93 1f       	adc	r25, r19
     c3e:	a4 1f       	adc	r26, r20
     c40:	b5 1f       	adc	r27, r21
     c42:	2f 81       	ldd	r18, Y+7	; 0x07
     c44:	38 85       	ldd	r19, Y+8	; 0x08
     c46:	ac 01       	movw	r20, r24
     c48:	bd 01       	movw	r22, r26
     c4a:	c9 01       	movw	r24, r18
     c4c:	0e 94 e4 03 	call	0x7c8	; 0x7c8 <move_window>
     c50:	88 23       	and	r24, r24
     c52:	09 f0       	breq	.+2      	; 0xc56 <get_fat+0xd2>
     c54:	df c0       	rjmp	.+446    	; 0xe14 <get_fat+0x290>
     c56:	89 81       	ldd	r24, Y+1	; 0x01
     c58:	9a 81       	ldd	r25, Y+2	; 0x02
     c5a:	91 70       	andi	r25, 0x01	; 1
     c5c:	2f 81       	ldd	r18, Y+7	; 0x07
     c5e:	38 85       	ldd	r19, Y+8	; 0x08
     c60:	82 0f       	add	r24, r18
     c62:	93 1f       	adc	r25, r19
     c64:	c2 96       	adiw	r24, 0x32	; 50
     c66:	fc 01       	movw	r30, r24
     c68:	80 81       	ld	r24, Z
     c6a:	88 2f       	mov	r24, r24
     c6c:	90 e0       	ldi	r25, 0x00	; 0
     c6e:	9c 83       	std	Y+4, r25	; 0x04
     c70:	8b 83       	std	Y+3, r24	; 0x03
     c72:	89 81       	ldd	r24, Y+1	; 0x01
     c74:	9a 81       	ldd	r25, Y+2	; 0x02
     c76:	01 96       	adiw	r24, 0x01	; 1
     c78:	9a 83       	std	Y+2, r25	; 0x02
     c7a:	89 83       	std	Y+1, r24	; 0x01
     c7c:	8f 81       	ldd	r24, Y+7	; 0x07
     c7e:	98 85       	ldd	r25, Y+8	; 0x08
     c80:	fc 01       	movw	r30, r24
     c82:	22 a1       	ldd	r18, Z+34	; 0x22
     c84:	33 a1       	ldd	r19, Z+35	; 0x23
     c86:	44 a1       	ldd	r20, Z+36	; 0x24
     c88:	55 a1       	ldd	r21, Z+37	; 0x25
     c8a:	89 81       	ldd	r24, Y+1	; 0x01
     c8c:	9a 81       	ldd	r25, Y+2	; 0x02
     c8e:	89 2f       	mov	r24, r25
     c90:	99 27       	eor	r25, r25
     c92:	86 95       	lsr	r24
     c94:	cc 01       	movw	r24, r24
     c96:	a0 e0       	ldi	r26, 0x00	; 0
     c98:	b0 e0       	ldi	r27, 0x00	; 0
     c9a:	82 0f       	add	r24, r18
     c9c:	93 1f       	adc	r25, r19
     c9e:	a4 1f       	adc	r26, r20
     ca0:	b5 1f       	adc	r27, r21
     ca2:	2f 81       	ldd	r18, Y+7	; 0x07
     ca4:	38 85       	ldd	r19, Y+8	; 0x08
     ca6:	ac 01       	movw	r20, r24
     ca8:	bd 01       	movw	r22, r26
     caa:	c9 01       	movw	r24, r18
     cac:	0e 94 e4 03 	call	0x7c8	; 0x7c8 <move_window>
     cb0:	88 23       	and	r24, r24
     cb2:	09 f0       	breq	.+2      	; 0xcb6 <get_fat+0x132>
     cb4:	b1 c0       	rjmp	.+354    	; 0xe18 <get_fat+0x294>
     cb6:	89 81       	ldd	r24, Y+1	; 0x01
     cb8:	9a 81       	ldd	r25, Y+2	; 0x02
     cba:	91 70       	andi	r25, 0x01	; 1
     cbc:	2f 81       	ldd	r18, Y+7	; 0x07
     cbe:	38 85       	ldd	r19, Y+8	; 0x08
     cc0:	82 0f       	add	r24, r18
     cc2:	93 1f       	adc	r25, r19
     cc4:	c2 96       	adiw	r24, 0x32	; 50
     cc6:	fc 01       	movw	r30, r24
     cc8:	80 81       	ld	r24, Z
     cca:	88 2f       	mov	r24, r24
     ccc:	90 e0       	ldi	r25, 0x00	; 0
     cce:	98 2f       	mov	r25, r24
     cd0:	88 27       	eor	r24, r24
     cd2:	9c 01       	movw	r18, r24
     cd4:	8b 81       	ldd	r24, Y+3	; 0x03
     cd6:	9c 81       	ldd	r25, Y+4	; 0x04
     cd8:	82 2b       	or	r24, r18
     cda:	93 2b       	or	r25, r19
     cdc:	9c 83       	std	Y+4, r25	; 0x04
     cde:	8b 83       	std	Y+3, r24	; 0x03
     ce0:	89 85       	ldd	r24, Y+9	; 0x09
     ce2:	9a 85       	ldd	r25, Y+10	; 0x0a
     ce4:	ab 85       	ldd	r26, Y+11	; 0x0b
     ce6:	bc 85       	ldd	r27, Y+12	; 0x0c
     ce8:	81 70       	andi	r24, 0x01	; 1
     cea:	99 27       	eor	r25, r25
     cec:	aa 27       	eor	r26, r26
     cee:	bb 27       	eor	r27, r27
     cf0:	89 2b       	or	r24, r25
     cf2:	8a 2b       	or	r24, r26
     cf4:	8b 2b       	or	r24, r27
     cf6:	61 f0       	breq	.+24     	; 0xd10 <get_fat+0x18c>
     cf8:	8b 81       	ldd	r24, Y+3	; 0x03
     cfa:	9c 81       	ldd	r25, Y+4	; 0x04
     cfc:	92 95       	swap	r25
     cfe:	82 95       	swap	r24
     d00:	8f 70       	andi	r24, 0x0F	; 15
     d02:	89 27       	eor	r24, r25
     d04:	9f 70       	andi	r25, 0x0F	; 15
     d06:	89 27       	eor	r24, r25
     d08:	cc 01       	movw	r24, r24
     d0a:	a0 e0       	ldi	r26, 0x00	; 0
     d0c:	b0 e0       	ldi	r27, 0x00	; 0
     d0e:	8c c0       	rjmp	.+280    	; 0xe28 <get_fat+0x2a4>
     d10:	8b 81       	ldd	r24, Y+3	; 0x03
     d12:	9c 81       	ldd	r25, Y+4	; 0x04
     d14:	cc 01       	movw	r24, r24
     d16:	a0 e0       	ldi	r26, 0x00	; 0
     d18:	b0 e0       	ldi	r27, 0x00	; 0
     d1a:	9f 70       	andi	r25, 0x0F	; 15
     d1c:	aa 27       	eor	r26, r26
     d1e:	bb 27       	eor	r27, r27
     d20:	83 c0       	rjmp	.+262    	; 0xe28 <get_fat+0x2a4>
     d22:	8f 81       	ldd	r24, Y+7	; 0x07
     d24:	98 85       	ldd	r25, Y+8	; 0x08
     d26:	fc 01       	movw	r30, r24
     d28:	22 a1       	ldd	r18, Z+34	; 0x22
     d2a:	33 a1       	ldd	r19, Z+35	; 0x23
     d2c:	44 a1       	ldd	r20, Z+36	; 0x24
     d2e:	55 a1       	ldd	r21, Z+37	; 0x25
     d30:	89 85       	ldd	r24, Y+9	; 0x09
     d32:	9a 85       	ldd	r25, Y+10	; 0x0a
     d34:	ab 85       	ldd	r26, Y+11	; 0x0b
     d36:	bc 85       	ldd	r27, Y+12	; 0x0c
     d38:	89 2f       	mov	r24, r25
     d3a:	9a 2f       	mov	r25, r26
     d3c:	ab 2f       	mov	r26, r27
     d3e:	bb 27       	eor	r27, r27
     d40:	82 0f       	add	r24, r18
     d42:	93 1f       	adc	r25, r19
     d44:	a4 1f       	adc	r26, r20
     d46:	b5 1f       	adc	r27, r21
     d48:	2f 81       	ldd	r18, Y+7	; 0x07
     d4a:	38 85       	ldd	r19, Y+8	; 0x08
     d4c:	ac 01       	movw	r20, r24
     d4e:	bd 01       	movw	r22, r26
     d50:	c9 01       	movw	r24, r18
     d52:	0e 94 e4 03 	call	0x7c8	; 0x7c8 <move_window>
     d56:	88 23       	and	r24, r24
     d58:	09 f0       	breq	.+2      	; 0xd5c <get_fat+0x1d8>
     d5a:	60 c0       	rjmp	.+192    	; 0xe1c <get_fat+0x298>
     d5c:	89 85       	ldd	r24, Y+9	; 0x09
     d5e:	9a 85       	ldd	r25, Y+10	; 0x0a
     d60:	ab 85       	ldd	r26, Y+11	; 0x0b
     d62:	bc 85       	ldd	r27, Y+12	; 0x0c
     d64:	88 0f       	add	r24, r24
     d66:	99 1f       	adc	r25, r25
     d68:	aa 1f       	adc	r26, r26
     d6a:	bb 1f       	adc	r27, r27
     d6c:	8e 7f       	andi	r24, 0xFE	; 254
     d6e:	91 70       	andi	r25, 0x01	; 1
     d70:	aa 27       	eor	r26, r26
     d72:	bb 27       	eor	r27, r27
     d74:	c2 96       	adiw	r24, 0x32	; 50
     d76:	2f 81       	ldd	r18, Y+7	; 0x07
     d78:	38 85       	ldd	r19, Y+8	; 0x08
     d7a:	82 0f       	add	r24, r18
     d7c:	93 1f       	adc	r25, r19
     d7e:	9e 83       	std	Y+6, r25	; 0x06
     d80:	8d 83       	std	Y+5, r24	; 0x05
     d82:	8d 81       	ldd	r24, Y+5	; 0x05
     d84:	9e 81       	ldd	r25, Y+6	; 0x06
     d86:	fc 01       	movw	r30, r24
     d88:	80 81       	ld	r24, Z
     d8a:	91 81       	ldd	r25, Z+1	; 0x01
     d8c:	cc 01       	movw	r24, r24
     d8e:	a0 e0       	ldi	r26, 0x00	; 0
     d90:	b0 e0       	ldi	r27, 0x00	; 0
     d92:	4a c0       	rjmp	.+148    	; 0xe28 <get_fat+0x2a4>
     d94:	8f 81       	ldd	r24, Y+7	; 0x07
     d96:	98 85       	ldd	r25, Y+8	; 0x08
     d98:	fc 01       	movw	r30, r24
     d9a:	22 a1       	ldd	r18, Z+34	; 0x22
     d9c:	33 a1       	ldd	r19, Z+35	; 0x23
     d9e:	44 a1       	ldd	r20, Z+36	; 0x24
     da0:	55 a1       	ldd	r21, Z+37	; 0x25
     da2:	89 85       	ldd	r24, Y+9	; 0x09
     da4:	9a 85       	ldd	r25, Y+10	; 0x0a
     da6:	ab 85       	ldd	r26, Y+11	; 0x0b
     da8:	bc 85       	ldd	r27, Y+12	; 0x0c
     daa:	68 94       	set
     dac:	16 f8       	bld	r1, 6
     dae:	b6 95       	lsr	r27
     db0:	a7 95       	ror	r26
     db2:	97 95       	ror	r25
     db4:	87 95       	ror	r24
     db6:	16 94       	lsr	r1
     db8:	d1 f7       	brne	.-12     	; 0xdae <get_fat+0x22a>
     dba:	82 0f       	add	r24, r18
     dbc:	93 1f       	adc	r25, r19
     dbe:	a4 1f       	adc	r26, r20
     dc0:	b5 1f       	adc	r27, r21
     dc2:	2f 81       	ldd	r18, Y+7	; 0x07
     dc4:	38 85       	ldd	r19, Y+8	; 0x08
     dc6:	ac 01       	movw	r20, r24
     dc8:	bd 01       	movw	r22, r26
     dca:	c9 01       	movw	r24, r18
     dcc:	0e 94 e4 03 	call	0x7c8	; 0x7c8 <move_window>
     dd0:	88 23       	and	r24, r24
     dd2:	31 f5       	brne	.+76     	; 0xe20 <get_fat+0x29c>
     dd4:	89 85       	ldd	r24, Y+9	; 0x09
     dd6:	9a 85       	ldd	r25, Y+10	; 0x0a
     dd8:	ab 85       	ldd	r26, Y+11	; 0x0b
     dda:	bc 85       	ldd	r27, Y+12	; 0x0c
     ddc:	88 0f       	add	r24, r24
     dde:	99 1f       	adc	r25, r25
     de0:	aa 1f       	adc	r26, r26
     de2:	bb 1f       	adc	r27, r27
     de4:	88 0f       	add	r24, r24
     de6:	99 1f       	adc	r25, r25
     de8:	aa 1f       	adc	r26, r26
     dea:	bb 1f       	adc	r27, r27
     dec:	8c 7f       	andi	r24, 0xFC	; 252
     dee:	91 70       	andi	r25, 0x01	; 1
     df0:	aa 27       	eor	r26, r26
     df2:	bb 27       	eor	r27, r27
     df4:	c2 96       	adiw	r24, 0x32	; 50
     df6:	2f 81       	ldd	r18, Y+7	; 0x07
     df8:	38 85       	ldd	r19, Y+8	; 0x08
     dfa:	82 0f       	add	r24, r18
     dfc:	93 1f       	adc	r25, r19
     dfe:	9e 83       	std	Y+6, r25	; 0x06
     e00:	8d 83       	std	Y+5, r24	; 0x05
     e02:	8d 81       	ldd	r24, Y+5	; 0x05
     e04:	9e 81       	ldd	r25, Y+6	; 0x06
     e06:	fc 01       	movw	r30, r24
     e08:	80 81       	ld	r24, Z
     e0a:	91 81       	ldd	r25, Z+1	; 0x01
     e0c:	a2 81       	ldd	r26, Z+2	; 0x02
     e0e:	b3 81       	ldd	r27, Z+3	; 0x03
     e10:	bf 70       	andi	r27, 0x0F	; 15
     e12:	0a c0       	rjmp	.+20     	; 0xe28 <get_fat+0x2a4>
     e14:	00 00       	nop
     e16:	05 c0       	rjmp	.+10     	; 0xe22 <get_fat+0x29e>
     e18:	00 00       	nop
     e1a:	03 c0       	rjmp	.+6      	; 0xe22 <get_fat+0x29e>
     e1c:	00 00       	nop
     e1e:	01 c0       	rjmp	.+2      	; 0xe22 <get_fat+0x29e>
     e20:	00 00       	nop
     e22:	8f ef       	ldi	r24, 0xFF	; 255
     e24:	9f ef       	ldi	r25, 0xFF	; 255
     e26:	dc 01       	movw	r26, r24
     e28:	bc 01       	movw	r22, r24
     e2a:	cd 01       	movw	r24, r26
     e2c:	2c 96       	adiw	r28, 0x0c	; 12
     e2e:	0f b6       	in	r0, 0x3f	; 63
     e30:	f8 94       	cli
     e32:	de bf       	out	0x3e, r29	; 62
     e34:	0f be       	out	0x3f, r0	; 63
     e36:	cd bf       	out	0x3d, r28	; 61
     e38:	df 91       	pop	r29
     e3a:	cf 91       	pop	r28
     e3c:	08 95       	ret

00000e3e <put_fat>:
     e3e:	0f 93       	push	r16
     e40:	1f 93       	push	r17
     e42:	cf 93       	push	r28
     e44:	df 93       	push	r29
     e46:	cd b7       	in	r28, 0x3d	; 61
     e48:	de b7       	in	r29, 0x3e	; 62
     e4a:	2f 97       	sbiw	r28, 0x0f	; 15
     e4c:	0f b6       	in	r0, 0x3f	; 63
     e4e:	f8 94       	cli
     e50:	de bf       	out	0x3e, r29	; 62
     e52:	0f be       	out	0x3f, r0	; 63
     e54:	cd bf       	out	0x3d, r28	; 61
     e56:	9f 83       	std	Y+7, r25	; 0x07
     e58:	8e 83       	std	Y+6, r24	; 0x06
     e5a:	48 87       	std	Y+8, r20	; 0x08
     e5c:	59 87       	std	Y+9, r21	; 0x09
     e5e:	6a 87       	std	Y+10, r22	; 0x0a
     e60:	7b 87       	std	Y+11, r23	; 0x0b
     e62:	0c 87       	std	Y+12, r16	; 0x0c
     e64:	1d 87       	std	Y+13, r17	; 0x0d
     e66:	2e 87       	std	Y+14, r18	; 0x0e
     e68:	3f 87       	std	Y+15, r19	; 0x0f
     e6a:	88 85       	ldd	r24, Y+8	; 0x08
     e6c:	99 85       	ldd	r25, Y+9	; 0x09
     e6e:	aa 85       	ldd	r26, Y+10	; 0x0a
     e70:	bb 85       	ldd	r27, Y+11	; 0x0b
     e72:	02 97       	sbiw	r24, 0x02	; 2
     e74:	a1 05       	cpc	r26, r1
     e76:	b1 05       	cpc	r27, r1
     e78:	80 f0       	brcs	.+32     	; 0xe9a <put_fat+0x5c>
     e7a:	8e 81       	ldd	r24, Y+6	; 0x06
     e7c:	9f 81       	ldd	r25, Y+7	; 0x07
     e7e:	fc 01       	movw	r30, r24
     e80:	22 8d       	ldd	r18, Z+26	; 0x1a
     e82:	33 8d       	ldd	r19, Z+27	; 0x1b
     e84:	44 8d       	ldd	r20, Z+28	; 0x1c
     e86:	55 8d       	ldd	r21, Z+29	; 0x1d
     e88:	88 85       	ldd	r24, Y+8	; 0x08
     e8a:	99 85       	ldd	r25, Y+9	; 0x09
     e8c:	aa 85       	ldd	r26, Y+10	; 0x0a
     e8e:	bb 85       	ldd	r27, Y+11	; 0x0b
     e90:	82 17       	cp	r24, r18
     e92:	93 07       	cpc	r25, r19
     e94:	a4 07       	cpc	r26, r20
     e96:	b5 07       	cpc	r27, r21
     e98:	18 f0       	brcs	.+6      	; 0xea0 <put_fat+0x62>
     e9a:	82 e0       	ldi	r24, 0x02	; 2
     e9c:	89 83       	std	Y+1, r24	; 0x01
     e9e:	74 c1       	rjmp	.+744    	; 0x1188 <put_fat+0x34a>
     ea0:	8e 81       	ldd	r24, Y+6	; 0x06
     ea2:	9f 81       	ldd	r25, Y+7	; 0x07
     ea4:	fc 01       	movw	r30, r24
     ea6:	80 81       	ld	r24, Z
     ea8:	88 2f       	mov	r24, r24
     eaa:	90 e0       	ldi	r25, 0x00	; 0
     eac:	82 30       	cpi	r24, 0x02	; 2
     eae:	91 05       	cpc	r25, r1
     eb0:	09 f4       	brne	.+2      	; 0xeb4 <put_fat+0x76>
     eb2:	c4 c0       	rjmp	.+392    	; 0x103c <put_fat+0x1fe>
     eb4:	83 30       	cpi	r24, 0x03	; 3
     eb6:	91 05       	cpc	r25, r1
     eb8:	09 f4       	brne	.+2      	; 0xebc <put_fat+0x7e>
     eba:	fa c0       	rjmp	.+500    	; 0x10b0 <put_fat+0x272>
     ebc:	01 97       	sbiw	r24, 0x01	; 1
     ebe:	09 f0       	breq	.+2      	; 0xec2 <put_fat+0x84>
     ec0:	54 c1       	rjmp	.+680    	; 0x116a <put_fat+0x32c>
     ec2:	88 85       	ldd	r24, Y+8	; 0x08
     ec4:	99 85       	ldd	r25, Y+9	; 0x09
     ec6:	9b 83       	std	Y+3, r25	; 0x03
     ec8:	8a 83       	std	Y+2, r24	; 0x02
     eca:	8a 81       	ldd	r24, Y+2	; 0x02
     ecc:	9b 81       	ldd	r25, Y+3	; 0x03
     ece:	96 95       	lsr	r25
     ed0:	87 95       	ror	r24
     ed2:	2a 81       	ldd	r18, Y+2	; 0x02
     ed4:	3b 81       	ldd	r19, Y+3	; 0x03
     ed6:	82 0f       	add	r24, r18
     ed8:	93 1f       	adc	r25, r19
     eda:	9b 83       	std	Y+3, r25	; 0x03
     edc:	8a 83       	std	Y+2, r24	; 0x02
     ede:	8e 81       	ldd	r24, Y+6	; 0x06
     ee0:	9f 81       	ldd	r25, Y+7	; 0x07
     ee2:	fc 01       	movw	r30, r24
     ee4:	22 a1       	ldd	r18, Z+34	; 0x22
     ee6:	33 a1       	ldd	r19, Z+35	; 0x23
     ee8:	44 a1       	ldd	r20, Z+36	; 0x24
     eea:	55 a1       	ldd	r21, Z+37	; 0x25
     eec:	8a 81       	ldd	r24, Y+2	; 0x02
     eee:	9b 81       	ldd	r25, Y+3	; 0x03
     ef0:	89 2f       	mov	r24, r25
     ef2:	99 27       	eor	r25, r25
     ef4:	86 95       	lsr	r24
     ef6:	cc 01       	movw	r24, r24
     ef8:	a0 e0       	ldi	r26, 0x00	; 0
     efa:	b0 e0       	ldi	r27, 0x00	; 0
     efc:	82 0f       	add	r24, r18
     efe:	93 1f       	adc	r25, r19
     f00:	a4 1f       	adc	r26, r20
     f02:	b5 1f       	adc	r27, r21
     f04:	2e 81       	ldd	r18, Y+6	; 0x06
     f06:	3f 81       	ldd	r19, Y+7	; 0x07
     f08:	ac 01       	movw	r20, r24
     f0a:	bd 01       	movw	r22, r26
     f0c:	c9 01       	movw	r24, r18
     f0e:	0e 94 e4 03 	call	0x7c8	; 0x7c8 <move_window>
     f12:	89 83       	std	Y+1, r24	; 0x01
     f14:	89 81       	ldd	r24, Y+1	; 0x01
     f16:	88 23       	and	r24, r24
     f18:	09 f0       	breq	.+2      	; 0xf1c <put_fat+0xde>
     f1a:	2a c1       	rjmp	.+596    	; 0x1170 <put_fat+0x332>
     f1c:	8a 81       	ldd	r24, Y+2	; 0x02
     f1e:	9b 81       	ldd	r25, Y+3	; 0x03
     f20:	91 70       	andi	r25, 0x01	; 1
     f22:	c2 96       	adiw	r24, 0x32	; 50
     f24:	2e 81       	ldd	r18, Y+6	; 0x06
     f26:	3f 81       	ldd	r19, Y+7	; 0x07
     f28:	82 0f       	add	r24, r18
     f2a:	93 1f       	adc	r25, r19
     f2c:	9d 83       	std	Y+5, r25	; 0x05
     f2e:	8c 83       	std	Y+4, r24	; 0x04
     f30:	88 85       	ldd	r24, Y+8	; 0x08
     f32:	99 85       	ldd	r25, Y+9	; 0x09
     f34:	aa 85       	ldd	r26, Y+10	; 0x0a
     f36:	bb 85       	ldd	r27, Y+11	; 0x0b
     f38:	81 70       	andi	r24, 0x01	; 1
     f3a:	99 27       	eor	r25, r25
     f3c:	aa 27       	eor	r26, r26
     f3e:	bb 27       	eor	r27, r27
     f40:	89 2b       	or	r24, r25
     f42:	8a 2b       	or	r24, r26
     f44:	8b 2b       	or	r24, r27
     f46:	91 f0       	breq	.+36     	; 0xf6c <put_fat+0x12e>
     f48:	8c 81       	ldd	r24, Y+4	; 0x04
     f4a:	9d 81       	ldd	r25, Y+5	; 0x05
     f4c:	fc 01       	movw	r30, r24
     f4e:	80 81       	ld	r24, Z
     f50:	28 2f       	mov	r18, r24
     f52:	2f 70       	andi	r18, 0x0F	; 15
     f54:	8c 85       	ldd	r24, Y+12	; 0x0c
     f56:	88 2f       	mov	r24, r24
     f58:	90 e0       	ldi	r25, 0x00	; 0
     f5a:	82 95       	swap	r24
     f5c:	92 95       	swap	r25
     f5e:	90 7f       	andi	r25, 0xF0	; 240
     f60:	98 27       	eor	r25, r24
     f62:	80 7f       	andi	r24, 0xF0	; 240
     f64:	98 27       	eor	r25, r24
     f66:	82 2b       	or	r24, r18
     f68:	28 2f       	mov	r18, r24
     f6a:	01 c0       	rjmp	.+2      	; 0xf6e <put_fat+0x130>
     f6c:	2c 85       	ldd	r18, Y+12	; 0x0c
     f6e:	8c 81       	ldd	r24, Y+4	; 0x04
     f70:	9d 81       	ldd	r25, Y+5	; 0x05
     f72:	fc 01       	movw	r30, r24
     f74:	20 83       	st	Z, r18
     f76:	8a 81       	ldd	r24, Y+2	; 0x02
     f78:	9b 81       	ldd	r25, Y+3	; 0x03
     f7a:	01 96       	adiw	r24, 0x01	; 1
     f7c:	9b 83       	std	Y+3, r25	; 0x03
     f7e:	8a 83       	std	Y+2, r24	; 0x02
     f80:	8e 81       	ldd	r24, Y+6	; 0x06
     f82:	9f 81       	ldd	r25, Y+7	; 0x07
     f84:	21 e0       	ldi	r18, 0x01	; 1
     f86:	fc 01       	movw	r30, r24
     f88:	24 83       	std	Z+4, r18	; 0x04
     f8a:	8e 81       	ldd	r24, Y+6	; 0x06
     f8c:	9f 81       	ldd	r25, Y+7	; 0x07
     f8e:	fc 01       	movw	r30, r24
     f90:	22 a1       	ldd	r18, Z+34	; 0x22
     f92:	33 a1       	ldd	r19, Z+35	; 0x23
     f94:	44 a1       	ldd	r20, Z+36	; 0x24
     f96:	55 a1       	ldd	r21, Z+37	; 0x25
     f98:	8a 81       	ldd	r24, Y+2	; 0x02
     f9a:	9b 81       	ldd	r25, Y+3	; 0x03
     f9c:	89 2f       	mov	r24, r25
     f9e:	99 27       	eor	r25, r25
     fa0:	86 95       	lsr	r24
     fa2:	cc 01       	movw	r24, r24
     fa4:	a0 e0       	ldi	r26, 0x00	; 0
     fa6:	b0 e0       	ldi	r27, 0x00	; 0
     fa8:	82 0f       	add	r24, r18
     faa:	93 1f       	adc	r25, r19
     fac:	a4 1f       	adc	r26, r20
     fae:	b5 1f       	adc	r27, r21
     fb0:	2e 81       	ldd	r18, Y+6	; 0x06
     fb2:	3f 81       	ldd	r19, Y+7	; 0x07
     fb4:	ac 01       	movw	r20, r24
     fb6:	bd 01       	movw	r22, r26
     fb8:	c9 01       	movw	r24, r18
     fba:	0e 94 e4 03 	call	0x7c8	; 0x7c8 <move_window>
     fbe:	89 83       	std	Y+1, r24	; 0x01
     fc0:	89 81       	ldd	r24, Y+1	; 0x01
     fc2:	88 23       	and	r24, r24
     fc4:	09 f0       	breq	.+2      	; 0xfc8 <put_fat+0x18a>
     fc6:	d6 c0       	rjmp	.+428    	; 0x1174 <put_fat+0x336>
     fc8:	8a 81       	ldd	r24, Y+2	; 0x02
     fca:	9b 81       	ldd	r25, Y+3	; 0x03
     fcc:	91 70       	andi	r25, 0x01	; 1
     fce:	c2 96       	adiw	r24, 0x32	; 50
     fd0:	2e 81       	ldd	r18, Y+6	; 0x06
     fd2:	3f 81       	ldd	r19, Y+7	; 0x07
     fd4:	82 0f       	add	r24, r18
     fd6:	93 1f       	adc	r25, r19
     fd8:	9d 83       	std	Y+5, r25	; 0x05
     fda:	8c 83       	std	Y+4, r24	; 0x04
     fdc:	88 85       	ldd	r24, Y+8	; 0x08
     fde:	99 85       	ldd	r25, Y+9	; 0x09
     fe0:	aa 85       	ldd	r26, Y+10	; 0x0a
     fe2:	bb 85       	ldd	r27, Y+11	; 0x0b
     fe4:	81 70       	andi	r24, 0x01	; 1
     fe6:	99 27       	eor	r25, r25
     fe8:	aa 27       	eor	r26, r26
     fea:	bb 27       	eor	r27, r27
     fec:	89 2b       	or	r24, r25
     fee:	8a 2b       	or	r24, r26
     ff0:	8b 2b       	or	r24, r27
     ff2:	71 f0       	breq	.+28     	; 0x1010 <put_fat+0x1d2>
     ff4:	8c 85       	ldd	r24, Y+12	; 0x0c
     ff6:	9d 85       	ldd	r25, Y+13	; 0x0d
     ff8:	ae 85       	ldd	r26, Y+14	; 0x0e
     ffa:	bf 85       	ldd	r27, Y+15	; 0x0f
     ffc:	68 94       	set
     ffe:	13 f8       	bld	r1, 3
    1000:	b6 95       	lsr	r27
    1002:	a7 95       	ror	r26
    1004:	97 95       	ror	r25
    1006:	87 95       	ror	r24
    1008:	16 94       	lsr	r1
    100a:	d1 f7       	brne	.-12     	; 0x1000 <put_fat+0x1c2>
    100c:	28 2f       	mov	r18, r24
    100e:	11 c0       	rjmp	.+34     	; 0x1032 <put_fat+0x1f4>
    1010:	8c 81       	ldd	r24, Y+4	; 0x04
    1012:	9d 81       	ldd	r25, Y+5	; 0x05
    1014:	fc 01       	movw	r30, r24
    1016:	80 81       	ld	r24, Z
    1018:	28 2f       	mov	r18, r24
    101a:	20 7f       	andi	r18, 0xF0	; 240
    101c:	8c 85       	ldd	r24, Y+12	; 0x0c
    101e:	9d 85       	ldd	r25, Y+13	; 0x0d
    1020:	ae 85       	ldd	r26, Y+14	; 0x0e
    1022:	bf 85       	ldd	r27, Y+15	; 0x0f
    1024:	89 2f       	mov	r24, r25
    1026:	9a 2f       	mov	r25, r26
    1028:	ab 2f       	mov	r26, r27
    102a:	bb 27       	eor	r27, r27
    102c:	8f 70       	andi	r24, 0x0F	; 15
    102e:	82 2b       	or	r24, r18
    1030:	28 2f       	mov	r18, r24
    1032:	8c 81       	ldd	r24, Y+4	; 0x04
    1034:	9d 81       	ldd	r25, Y+5	; 0x05
    1036:	fc 01       	movw	r30, r24
    1038:	20 83       	st	Z, r18
    103a:	a1 c0       	rjmp	.+322    	; 0x117e <put_fat+0x340>
    103c:	8e 81       	ldd	r24, Y+6	; 0x06
    103e:	9f 81       	ldd	r25, Y+7	; 0x07
    1040:	fc 01       	movw	r30, r24
    1042:	22 a1       	ldd	r18, Z+34	; 0x22
    1044:	33 a1       	ldd	r19, Z+35	; 0x23
    1046:	44 a1       	ldd	r20, Z+36	; 0x24
    1048:	55 a1       	ldd	r21, Z+37	; 0x25
    104a:	88 85       	ldd	r24, Y+8	; 0x08
    104c:	99 85       	ldd	r25, Y+9	; 0x09
    104e:	aa 85       	ldd	r26, Y+10	; 0x0a
    1050:	bb 85       	ldd	r27, Y+11	; 0x0b
    1052:	89 2f       	mov	r24, r25
    1054:	9a 2f       	mov	r25, r26
    1056:	ab 2f       	mov	r26, r27
    1058:	bb 27       	eor	r27, r27
    105a:	82 0f       	add	r24, r18
    105c:	93 1f       	adc	r25, r19
    105e:	a4 1f       	adc	r26, r20
    1060:	b5 1f       	adc	r27, r21
    1062:	2e 81       	ldd	r18, Y+6	; 0x06
    1064:	3f 81       	ldd	r19, Y+7	; 0x07
    1066:	ac 01       	movw	r20, r24
    1068:	bd 01       	movw	r22, r26
    106a:	c9 01       	movw	r24, r18
    106c:	0e 94 e4 03 	call	0x7c8	; 0x7c8 <move_window>
    1070:	89 83       	std	Y+1, r24	; 0x01
    1072:	89 81       	ldd	r24, Y+1	; 0x01
    1074:	88 23       	and	r24, r24
    1076:	09 f0       	breq	.+2      	; 0x107a <put_fat+0x23c>
    1078:	7f c0       	rjmp	.+254    	; 0x1178 <put_fat+0x33a>
    107a:	88 85       	ldd	r24, Y+8	; 0x08
    107c:	99 85       	ldd	r25, Y+9	; 0x09
    107e:	aa 85       	ldd	r26, Y+10	; 0x0a
    1080:	bb 85       	ldd	r27, Y+11	; 0x0b
    1082:	88 0f       	add	r24, r24
    1084:	99 1f       	adc	r25, r25
    1086:	aa 1f       	adc	r26, r26
    1088:	bb 1f       	adc	r27, r27
    108a:	8e 7f       	andi	r24, 0xFE	; 254
    108c:	91 70       	andi	r25, 0x01	; 1
    108e:	aa 27       	eor	r26, r26
    1090:	bb 27       	eor	r27, r27
    1092:	c2 96       	adiw	r24, 0x32	; 50
    1094:	2e 81       	ldd	r18, Y+6	; 0x06
    1096:	3f 81       	ldd	r19, Y+7	; 0x07
    1098:	82 0f       	add	r24, r18
    109a:	93 1f       	adc	r25, r19
    109c:	9d 83       	std	Y+5, r25	; 0x05
    109e:	8c 83       	std	Y+4, r24	; 0x04
    10a0:	2c 85       	ldd	r18, Y+12	; 0x0c
    10a2:	3d 85       	ldd	r19, Y+13	; 0x0d
    10a4:	8c 81       	ldd	r24, Y+4	; 0x04
    10a6:	9d 81       	ldd	r25, Y+5	; 0x05
    10a8:	fc 01       	movw	r30, r24
    10aa:	31 83       	std	Z+1, r19	; 0x01
    10ac:	20 83       	st	Z, r18
    10ae:	67 c0       	rjmp	.+206    	; 0x117e <put_fat+0x340>
    10b0:	8e 81       	ldd	r24, Y+6	; 0x06
    10b2:	9f 81       	ldd	r25, Y+7	; 0x07
    10b4:	fc 01       	movw	r30, r24
    10b6:	22 a1       	ldd	r18, Z+34	; 0x22
    10b8:	33 a1       	ldd	r19, Z+35	; 0x23
    10ba:	44 a1       	ldd	r20, Z+36	; 0x24
    10bc:	55 a1       	ldd	r21, Z+37	; 0x25
    10be:	88 85       	ldd	r24, Y+8	; 0x08
    10c0:	99 85       	ldd	r25, Y+9	; 0x09
    10c2:	aa 85       	ldd	r26, Y+10	; 0x0a
    10c4:	bb 85       	ldd	r27, Y+11	; 0x0b
    10c6:	68 94       	set
    10c8:	16 f8       	bld	r1, 6
    10ca:	b6 95       	lsr	r27
    10cc:	a7 95       	ror	r26
    10ce:	97 95       	ror	r25
    10d0:	87 95       	ror	r24
    10d2:	16 94       	lsr	r1
    10d4:	d1 f7       	brne	.-12     	; 0x10ca <put_fat+0x28c>
    10d6:	82 0f       	add	r24, r18
    10d8:	93 1f       	adc	r25, r19
    10da:	a4 1f       	adc	r26, r20
    10dc:	b5 1f       	adc	r27, r21
    10de:	2e 81       	ldd	r18, Y+6	; 0x06
    10e0:	3f 81       	ldd	r19, Y+7	; 0x07
    10e2:	ac 01       	movw	r20, r24
    10e4:	bd 01       	movw	r22, r26
    10e6:	c9 01       	movw	r24, r18
    10e8:	0e 94 e4 03 	call	0x7c8	; 0x7c8 <move_window>
    10ec:	89 83       	std	Y+1, r24	; 0x01
    10ee:	89 81       	ldd	r24, Y+1	; 0x01
    10f0:	88 23       	and	r24, r24
    10f2:	09 f0       	breq	.+2      	; 0x10f6 <put_fat+0x2b8>
    10f4:	43 c0       	rjmp	.+134    	; 0x117c <put_fat+0x33e>
    10f6:	88 85       	ldd	r24, Y+8	; 0x08
    10f8:	99 85       	ldd	r25, Y+9	; 0x09
    10fa:	aa 85       	ldd	r26, Y+10	; 0x0a
    10fc:	bb 85       	ldd	r27, Y+11	; 0x0b
    10fe:	88 0f       	add	r24, r24
    1100:	99 1f       	adc	r25, r25
    1102:	aa 1f       	adc	r26, r26
    1104:	bb 1f       	adc	r27, r27
    1106:	88 0f       	add	r24, r24
    1108:	99 1f       	adc	r25, r25
    110a:	aa 1f       	adc	r26, r26
    110c:	bb 1f       	adc	r27, r27
    110e:	8c 7f       	andi	r24, 0xFC	; 252
    1110:	91 70       	andi	r25, 0x01	; 1
    1112:	aa 27       	eor	r26, r26
    1114:	bb 27       	eor	r27, r27
    1116:	c2 96       	adiw	r24, 0x32	; 50
    1118:	2e 81       	ldd	r18, Y+6	; 0x06
    111a:	3f 81       	ldd	r19, Y+7	; 0x07
    111c:	82 0f       	add	r24, r18
    111e:	93 1f       	adc	r25, r19
    1120:	9d 83       	std	Y+5, r25	; 0x05
    1122:	8c 83       	std	Y+4, r24	; 0x04
    1124:	8c 81       	ldd	r24, Y+4	; 0x04
    1126:	9d 81       	ldd	r25, Y+5	; 0x05
    1128:	fc 01       	movw	r30, r24
    112a:	80 81       	ld	r24, Z
    112c:	91 81       	ldd	r25, Z+1	; 0x01
    112e:	a2 81       	ldd	r26, Z+2	; 0x02
    1130:	b3 81       	ldd	r27, Z+3	; 0x03
    1132:	88 27       	eor	r24, r24
    1134:	99 27       	eor	r25, r25
    1136:	aa 27       	eor	r26, r26
    1138:	b0 7f       	andi	r27, 0xF0	; 240
    113a:	2c 85       	ldd	r18, Y+12	; 0x0c
    113c:	3d 85       	ldd	r19, Y+13	; 0x0d
    113e:	4e 85       	ldd	r20, Y+14	; 0x0e
    1140:	5f 85       	ldd	r21, Y+15	; 0x0f
    1142:	82 2b       	or	r24, r18
    1144:	93 2b       	or	r25, r19
    1146:	a4 2b       	or	r26, r20
    1148:	b5 2b       	or	r27, r21
    114a:	8c 87       	std	Y+12, r24	; 0x0c
    114c:	9d 87       	std	Y+13, r25	; 0x0d
    114e:	ae 87       	std	Y+14, r26	; 0x0e
    1150:	bf 87       	std	Y+15, r27	; 0x0f
    1152:	2c 81       	ldd	r18, Y+4	; 0x04
    1154:	3d 81       	ldd	r19, Y+5	; 0x05
    1156:	8c 85       	ldd	r24, Y+12	; 0x0c
    1158:	9d 85       	ldd	r25, Y+13	; 0x0d
    115a:	ae 85       	ldd	r26, Y+14	; 0x0e
    115c:	bf 85       	ldd	r27, Y+15	; 0x0f
    115e:	f9 01       	movw	r30, r18
    1160:	80 83       	st	Z, r24
    1162:	91 83       	std	Z+1, r25	; 0x01
    1164:	a2 83       	std	Z+2, r26	; 0x02
    1166:	b3 83       	std	Z+3, r27	; 0x03
    1168:	0a c0       	rjmp	.+20     	; 0x117e <put_fat+0x340>
    116a:	82 e0       	ldi	r24, 0x02	; 2
    116c:	89 83       	std	Y+1, r24	; 0x01
    116e:	07 c0       	rjmp	.+14     	; 0x117e <put_fat+0x340>
    1170:	00 00       	nop
    1172:	05 c0       	rjmp	.+10     	; 0x117e <put_fat+0x340>
    1174:	00 00       	nop
    1176:	03 c0       	rjmp	.+6      	; 0x117e <put_fat+0x340>
    1178:	00 00       	nop
    117a:	01 c0       	rjmp	.+2      	; 0x117e <put_fat+0x340>
    117c:	00 00       	nop
    117e:	8e 81       	ldd	r24, Y+6	; 0x06
    1180:	9f 81       	ldd	r25, Y+7	; 0x07
    1182:	21 e0       	ldi	r18, 0x01	; 1
    1184:	fc 01       	movw	r30, r24
    1186:	24 83       	std	Z+4, r18	; 0x04
    1188:	89 81       	ldd	r24, Y+1	; 0x01
    118a:	2f 96       	adiw	r28, 0x0f	; 15
    118c:	0f b6       	in	r0, 0x3f	; 63
    118e:	f8 94       	cli
    1190:	de bf       	out	0x3e, r29	; 62
    1192:	0f be       	out	0x3f, r0	; 63
    1194:	cd bf       	out	0x3d, r28	; 61
    1196:	df 91       	pop	r29
    1198:	cf 91       	pop	r28
    119a:	1f 91       	pop	r17
    119c:	0f 91       	pop	r16
    119e:	08 95       	ret

000011a0 <remove_chain>:
    11a0:	0f 93       	push	r16
    11a2:	1f 93       	push	r17
    11a4:	cf 93       	push	r28
    11a6:	df 93       	push	r29
    11a8:	cd b7       	in	r28, 0x3d	; 61
    11aa:	de b7       	in	r29, 0x3e	; 62
    11ac:	2b 97       	sbiw	r28, 0x0b	; 11
    11ae:	0f b6       	in	r0, 0x3f	; 63
    11b0:	f8 94       	cli
    11b2:	de bf       	out	0x3e, r29	; 62
    11b4:	0f be       	out	0x3f, r0	; 63
    11b6:	cd bf       	out	0x3d, r28	; 61
    11b8:	9f 83       	std	Y+7, r25	; 0x07
    11ba:	8e 83       	std	Y+6, r24	; 0x06
    11bc:	48 87       	std	Y+8, r20	; 0x08
    11be:	59 87       	std	Y+9, r21	; 0x09
    11c0:	6a 87       	std	Y+10, r22	; 0x0a
    11c2:	7b 87       	std	Y+11, r23	; 0x0b
    11c4:	88 85       	ldd	r24, Y+8	; 0x08
    11c6:	99 85       	ldd	r25, Y+9	; 0x09
    11c8:	aa 85       	ldd	r26, Y+10	; 0x0a
    11ca:	bb 85       	ldd	r27, Y+11	; 0x0b
    11cc:	02 97       	sbiw	r24, 0x02	; 2
    11ce:	a1 05       	cpc	r26, r1
    11d0:	b1 05       	cpc	r27, r1
    11d2:	80 f0       	brcs	.+32     	; 0x11f4 <remove_chain+0x54>
    11d4:	8e 81       	ldd	r24, Y+6	; 0x06
    11d6:	9f 81       	ldd	r25, Y+7	; 0x07
    11d8:	fc 01       	movw	r30, r24
    11da:	22 8d       	ldd	r18, Z+26	; 0x1a
    11dc:	33 8d       	ldd	r19, Z+27	; 0x1b
    11de:	44 8d       	ldd	r20, Z+28	; 0x1c
    11e0:	55 8d       	ldd	r21, Z+29	; 0x1d
    11e2:	88 85       	ldd	r24, Y+8	; 0x08
    11e4:	99 85       	ldd	r25, Y+9	; 0x09
    11e6:	aa 85       	ldd	r26, Y+10	; 0x0a
    11e8:	bb 85       	ldd	r27, Y+11	; 0x0b
    11ea:	82 17       	cp	r24, r18
    11ec:	93 07       	cpc	r25, r19
    11ee:	a4 07       	cpc	r26, r20
    11f0:	b5 07       	cpc	r27, r21
    11f2:	18 f0       	brcs	.+6      	; 0x11fa <remove_chain+0x5a>
    11f4:	82 e0       	ldi	r24, 0x02	; 2
    11f6:	89 83       	std	Y+1, r24	; 0x01
    11f8:	85 c0       	rjmp	.+266    	; 0x1304 <remove_chain+0x164>
    11fa:	19 82       	std	Y+1, r1	; 0x01
    11fc:	6e c0       	rjmp	.+220    	; 0x12da <remove_chain+0x13a>
    11fe:	88 85       	ldd	r24, Y+8	; 0x08
    1200:	99 85       	ldd	r25, Y+9	; 0x09
    1202:	aa 85       	ldd	r26, Y+10	; 0x0a
    1204:	bb 85       	ldd	r27, Y+11	; 0x0b
    1206:	2e 81       	ldd	r18, Y+6	; 0x06
    1208:	3f 81       	ldd	r19, Y+7	; 0x07
    120a:	ac 01       	movw	r20, r24
    120c:	bd 01       	movw	r22, r26
    120e:	c9 01       	movw	r24, r18
    1210:	0e 94 c2 05 	call	0xb84	; 0xb84 <get_fat>
    1214:	dc 01       	movw	r26, r24
    1216:	cb 01       	movw	r24, r22
    1218:	8a 83       	std	Y+2, r24	; 0x02
    121a:	9b 83       	std	Y+3, r25	; 0x03
    121c:	ac 83       	std	Y+4, r26	; 0x04
    121e:	bd 83       	std	Y+5, r27	; 0x05
    1220:	8a 81       	ldd	r24, Y+2	; 0x02
    1222:	9b 81       	ldd	r25, Y+3	; 0x03
    1224:	ac 81       	ldd	r26, Y+4	; 0x04
    1226:	bd 81       	ldd	r27, Y+5	; 0x05
    1228:	89 2b       	or	r24, r25
    122a:	8a 2b       	or	r24, r26
    122c:	8b 2b       	or	r24, r27
    122e:	09 f4       	brne	.+2      	; 0x1232 <remove_chain+0x92>
    1230:	66 c0       	rjmp	.+204    	; 0x12fe <remove_chain+0x15e>
    1232:	8a 81       	ldd	r24, Y+2	; 0x02
    1234:	9b 81       	ldd	r25, Y+3	; 0x03
    1236:	ac 81       	ldd	r26, Y+4	; 0x04
    1238:	bd 81       	ldd	r27, Y+5	; 0x05
    123a:	01 97       	sbiw	r24, 0x01	; 1
    123c:	a1 05       	cpc	r26, r1
    123e:	b1 05       	cpc	r27, r1
    1240:	19 f4       	brne	.+6      	; 0x1248 <remove_chain+0xa8>
    1242:	82 e0       	ldi	r24, 0x02	; 2
    1244:	89 83       	std	Y+1, r24	; 0x01
    1246:	5e c0       	rjmp	.+188    	; 0x1304 <remove_chain+0x164>
    1248:	8a 81       	ldd	r24, Y+2	; 0x02
    124a:	9b 81       	ldd	r25, Y+3	; 0x03
    124c:	ac 81       	ldd	r26, Y+4	; 0x04
    124e:	bd 81       	ldd	r27, Y+5	; 0x05
    1250:	8f 3f       	cpi	r24, 0xFF	; 255
    1252:	9f 4f       	sbci	r25, 0xFF	; 255
    1254:	af 4f       	sbci	r26, 0xFF	; 255
    1256:	bf 4f       	sbci	r27, 0xFF	; 255
    1258:	19 f4       	brne	.+6      	; 0x1260 <remove_chain+0xc0>
    125a:	81 e0       	ldi	r24, 0x01	; 1
    125c:	89 83       	std	Y+1, r24	; 0x01
    125e:	52 c0       	rjmp	.+164    	; 0x1304 <remove_chain+0x164>
    1260:	88 85       	ldd	r24, Y+8	; 0x08
    1262:	99 85       	ldd	r25, Y+9	; 0x09
    1264:	aa 85       	ldd	r26, Y+10	; 0x0a
    1266:	bb 85       	ldd	r27, Y+11	; 0x0b
    1268:	ee 81       	ldd	r30, Y+6	; 0x06
    126a:	ff 81       	ldd	r31, Y+7	; 0x07
    126c:	00 e0       	ldi	r16, 0x00	; 0
    126e:	10 e0       	ldi	r17, 0x00	; 0
    1270:	98 01       	movw	r18, r16
    1272:	ac 01       	movw	r20, r24
    1274:	bd 01       	movw	r22, r26
    1276:	cf 01       	movw	r24, r30
    1278:	0e 94 1f 07 	call	0xe3e	; 0xe3e <put_fat>
    127c:	89 83       	std	Y+1, r24	; 0x01
    127e:	89 81       	ldd	r24, Y+1	; 0x01
    1280:	88 23       	and	r24, r24
    1282:	09 f0       	breq	.+2      	; 0x1286 <remove_chain+0xe6>
    1284:	3e c0       	rjmp	.+124    	; 0x1302 <remove_chain+0x162>
    1286:	8e 81       	ldd	r24, Y+6	; 0x06
    1288:	9f 81       	ldd	r25, Y+7	; 0x07
    128a:	fc 01       	movw	r30, r24
    128c:	86 85       	ldd	r24, Z+14	; 0x0e
    128e:	97 85       	ldd	r25, Z+15	; 0x0f
    1290:	a0 89       	ldd	r26, Z+16	; 0x10
    1292:	b1 89       	ldd	r27, Z+17	; 0x11
    1294:	8f 3f       	cpi	r24, 0xFF	; 255
    1296:	9f 4f       	sbci	r25, 0xFF	; 255
    1298:	af 4f       	sbci	r26, 0xFF	; 255
    129a:	bf 4f       	sbci	r27, 0xFF	; 255
    129c:	b1 f0       	breq	.+44     	; 0x12ca <remove_chain+0x12a>
    129e:	8e 81       	ldd	r24, Y+6	; 0x06
    12a0:	9f 81       	ldd	r25, Y+7	; 0x07
    12a2:	fc 01       	movw	r30, r24
    12a4:	86 85       	ldd	r24, Z+14	; 0x0e
    12a6:	97 85       	ldd	r25, Z+15	; 0x0f
    12a8:	a0 89       	ldd	r26, Z+16	; 0x10
    12aa:	b1 89       	ldd	r27, Z+17	; 0x11
    12ac:	01 96       	adiw	r24, 0x01	; 1
    12ae:	a1 1d       	adc	r26, r1
    12b0:	b1 1d       	adc	r27, r1
    12b2:	2e 81       	ldd	r18, Y+6	; 0x06
    12b4:	3f 81       	ldd	r19, Y+7	; 0x07
    12b6:	f9 01       	movw	r30, r18
    12b8:	86 87       	std	Z+14, r24	; 0x0e
    12ba:	97 87       	std	Z+15, r25	; 0x0f
    12bc:	a0 8b       	std	Z+16, r26	; 0x10
    12be:	b1 8b       	std	Z+17, r27	; 0x11
    12c0:	8e 81       	ldd	r24, Y+6	; 0x06
    12c2:	9f 81       	ldd	r25, Y+7	; 0x07
    12c4:	21 e0       	ldi	r18, 0x01	; 1
    12c6:	fc 01       	movw	r30, r24
    12c8:	25 83       	std	Z+5, r18	; 0x05
    12ca:	8a 81       	ldd	r24, Y+2	; 0x02
    12cc:	9b 81       	ldd	r25, Y+3	; 0x03
    12ce:	ac 81       	ldd	r26, Y+4	; 0x04
    12d0:	bd 81       	ldd	r27, Y+5	; 0x05
    12d2:	88 87       	std	Y+8, r24	; 0x08
    12d4:	99 87       	std	Y+9, r25	; 0x09
    12d6:	aa 87       	std	Y+10, r26	; 0x0a
    12d8:	bb 87       	std	Y+11, r27	; 0x0b
    12da:	8e 81       	ldd	r24, Y+6	; 0x06
    12dc:	9f 81       	ldd	r25, Y+7	; 0x07
    12de:	fc 01       	movw	r30, r24
    12e0:	22 8d       	ldd	r18, Z+26	; 0x1a
    12e2:	33 8d       	ldd	r19, Z+27	; 0x1b
    12e4:	44 8d       	ldd	r20, Z+28	; 0x1c
    12e6:	55 8d       	ldd	r21, Z+29	; 0x1d
    12e8:	88 85       	ldd	r24, Y+8	; 0x08
    12ea:	99 85       	ldd	r25, Y+9	; 0x09
    12ec:	aa 85       	ldd	r26, Y+10	; 0x0a
    12ee:	bb 85       	ldd	r27, Y+11	; 0x0b
    12f0:	82 17       	cp	r24, r18
    12f2:	93 07       	cpc	r25, r19
    12f4:	a4 07       	cpc	r26, r20
    12f6:	b5 07       	cpc	r27, r21
    12f8:	08 f4       	brcc	.+2      	; 0x12fc <remove_chain+0x15c>
    12fa:	81 cf       	rjmp	.-254    	; 0x11fe <remove_chain+0x5e>
    12fc:	03 c0       	rjmp	.+6      	; 0x1304 <remove_chain+0x164>
    12fe:	00 00       	nop
    1300:	01 c0       	rjmp	.+2      	; 0x1304 <remove_chain+0x164>
    1302:	00 00       	nop
    1304:	89 81       	ldd	r24, Y+1	; 0x01
    1306:	2b 96       	adiw	r28, 0x0b	; 11
    1308:	0f b6       	in	r0, 0x3f	; 63
    130a:	f8 94       	cli
    130c:	de bf       	out	0x3e, r29	; 62
    130e:	0f be       	out	0x3f, r0	; 63
    1310:	cd bf       	out	0x3d, r28	; 61
    1312:	df 91       	pop	r29
    1314:	cf 91       	pop	r28
    1316:	1f 91       	pop	r17
    1318:	0f 91       	pop	r16
    131a:	08 95       	ret

0000131c <create_chain>:
    131c:	0f 93       	push	r16
    131e:	1f 93       	push	r17
    1320:	cf 93       	push	r28
    1322:	df 93       	push	r29
    1324:	cd b7       	in	r28, 0x3d	; 61
    1326:	de b7       	in	r29, 0x3e	; 62
    1328:	63 97       	sbiw	r28, 0x13	; 19
    132a:	0f b6       	in	r0, 0x3f	; 63
    132c:	f8 94       	cli
    132e:	de bf       	out	0x3e, r29	; 62
    1330:	0f be       	out	0x3f, r0	; 63
    1332:	cd bf       	out	0x3d, r28	; 61
    1334:	9f 87       	std	Y+15, r25	; 0x0f
    1336:	8e 87       	std	Y+14, r24	; 0x0e
    1338:	48 8b       	std	Y+16, r20	; 0x10
    133a:	59 8b       	std	Y+17, r21	; 0x11
    133c:	6a 8b       	std	Y+18, r22	; 0x12
    133e:	7b 8b       	std	Y+19, r23	; 0x13
    1340:	88 89       	ldd	r24, Y+16	; 0x10
    1342:	99 89       	ldd	r25, Y+17	; 0x11
    1344:	aa 89       	ldd	r26, Y+18	; 0x12
    1346:	bb 89       	ldd	r27, Y+19	; 0x13
    1348:	89 2b       	or	r24, r25
    134a:	8a 2b       	or	r24, r26
    134c:	8b 2b       	or	r24, r27
    134e:	69 f5       	brne	.+90     	; 0x13aa <create_chain+0x8e>
    1350:	8e 85       	ldd	r24, Y+14	; 0x0e
    1352:	9f 85       	ldd	r25, Y+15	; 0x0f
    1354:	fc 01       	movw	r30, r24
    1356:	82 85       	ldd	r24, Z+10	; 0x0a
    1358:	93 85       	ldd	r25, Z+11	; 0x0b
    135a:	a4 85       	ldd	r26, Z+12	; 0x0c
    135c:	b5 85       	ldd	r27, Z+13	; 0x0d
    135e:	8d 83       	std	Y+5, r24	; 0x05
    1360:	9e 83       	std	Y+6, r25	; 0x06
    1362:	af 83       	std	Y+7, r26	; 0x07
    1364:	b8 87       	std	Y+8, r27	; 0x08
    1366:	8d 81       	ldd	r24, Y+5	; 0x05
    1368:	9e 81       	ldd	r25, Y+6	; 0x06
    136a:	af 81       	ldd	r26, Y+7	; 0x07
    136c:	b8 85       	ldd	r27, Y+8	; 0x08
    136e:	89 2b       	or	r24, r25
    1370:	8a 2b       	or	r24, r26
    1372:	8b 2b       	or	r24, r27
    1374:	89 f0       	breq	.+34     	; 0x1398 <create_chain+0x7c>
    1376:	8e 85       	ldd	r24, Y+14	; 0x0e
    1378:	9f 85       	ldd	r25, Y+15	; 0x0f
    137a:	fc 01       	movw	r30, r24
    137c:	22 8d       	ldd	r18, Z+26	; 0x1a
    137e:	33 8d       	ldd	r19, Z+27	; 0x1b
    1380:	44 8d       	ldd	r20, Z+28	; 0x1c
    1382:	55 8d       	ldd	r21, Z+29	; 0x1d
    1384:	8d 81       	ldd	r24, Y+5	; 0x05
    1386:	9e 81       	ldd	r25, Y+6	; 0x06
    1388:	af 81       	ldd	r26, Y+7	; 0x07
    138a:	b8 85       	ldd	r27, Y+8	; 0x08
    138c:	82 17       	cp	r24, r18
    138e:	93 07       	cpc	r25, r19
    1390:	a4 07       	cpc	r26, r20
    1392:	b5 07       	cpc	r27, r21
    1394:	08 f4       	brcc	.+2      	; 0x1398 <create_chain+0x7c>
    1396:	44 c0       	rjmp	.+136    	; 0x1420 <create_chain+0x104>
    1398:	81 e0       	ldi	r24, 0x01	; 1
    139a:	90 e0       	ldi	r25, 0x00	; 0
    139c:	a0 e0       	ldi	r26, 0x00	; 0
    139e:	b0 e0       	ldi	r27, 0x00	; 0
    13a0:	8d 83       	std	Y+5, r24	; 0x05
    13a2:	9e 83       	std	Y+6, r25	; 0x06
    13a4:	af 83       	std	Y+7, r26	; 0x07
    13a6:	b8 87       	std	Y+8, r27	; 0x08
    13a8:	3b c0       	rjmp	.+118    	; 0x1420 <create_chain+0x104>
    13aa:	88 89       	ldd	r24, Y+16	; 0x10
    13ac:	99 89       	ldd	r25, Y+17	; 0x11
    13ae:	aa 89       	ldd	r26, Y+18	; 0x12
    13b0:	bb 89       	ldd	r27, Y+19	; 0x13
    13b2:	2e 85       	ldd	r18, Y+14	; 0x0e
    13b4:	3f 85       	ldd	r19, Y+15	; 0x0f
    13b6:	ac 01       	movw	r20, r24
    13b8:	bd 01       	movw	r22, r26
    13ba:	c9 01       	movw	r24, r18
    13bc:	0e 94 c2 05 	call	0xb84	; 0xb84 <get_fat>
    13c0:	dc 01       	movw	r26, r24
    13c2:	cb 01       	movw	r24, r22
    13c4:	8a 87       	std	Y+10, r24	; 0x0a
    13c6:	9b 87       	std	Y+11, r25	; 0x0b
    13c8:	ac 87       	std	Y+12, r26	; 0x0c
    13ca:	bd 87       	std	Y+13, r27	; 0x0d
    13cc:	8a 85       	ldd	r24, Y+10	; 0x0a
    13ce:	9b 85       	ldd	r25, Y+11	; 0x0b
    13d0:	ac 85       	ldd	r26, Y+12	; 0x0c
    13d2:	bd 85       	ldd	r27, Y+13	; 0x0d
    13d4:	02 97       	sbiw	r24, 0x02	; 2
    13d6:	a1 05       	cpc	r26, r1
    13d8:	b1 05       	cpc	r27, r1
    13da:	28 f4       	brcc	.+10     	; 0x13e6 <create_chain+0xca>
    13dc:	81 e0       	ldi	r24, 0x01	; 1
    13de:	90 e0       	ldi	r25, 0x00	; 0
    13e0:	a0 e0       	ldi	r26, 0x00	; 0
    13e2:	b0 e0       	ldi	r27, 0x00	; 0
    13e4:	0c c1       	rjmp	.+536    	; 0x15fe <create_chain+0x2e2>
    13e6:	8e 85       	ldd	r24, Y+14	; 0x0e
    13e8:	9f 85       	ldd	r25, Y+15	; 0x0f
    13ea:	fc 01       	movw	r30, r24
    13ec:	22 8d       	ldd	r18, Z+26	; 0x1a
    13ee:	33 8d       	ldd	r19, Z+27	; 0x1b
    13f0:	44 8d       	ldd	r20, Z+28	; 0x1c
    13f2:	55 8d       	ldd	r21, Z+29	; 0x1d
    13f4:	8a 85       	ldd	r24, Y+10	; 0x0a
    13f6:	9b 85       	ldd	r25, Y+11	; 0x0b
    13f8:	ac 85       	ldd	r26, Y+12	; 0x0c
    13fa:	bd 85       	ldd	r27, Y+13	; 0x0d
    13fc:	82 17       	cp	r24, r18
    13fe:	93 07       	cpc	r25, r19
    1400:	a4 07       	cpc	r26, r20
    1402:	b5 07       	cpc	r27, r21
    1404:	28 f4       	brcc	.+10     	; 0x1410 <create_chain+0xf4>
    1406:	8a 85       	ldd	r24, Y+10	; 0x0a
    1408:	9b 85       	ldd	r25, Y+11	; 0x0b
    140a:	ac 85       	ldd	r26, Y+12	; 0x0c
    140c:	bd 85       	ldd	r27, Y+13	; 0x0d
    140e:	f7 c0       	rjmp	.+494    	; 0x15fe <create_chain+0x2e2>
    1410:	88 89       	ldd	r24, Y+16	; 0x10
    1412:	99 89       	ldd	r25, Y+17	; 0x11
    1414:	aa 89       	ldd	r26, Y+18	; 0x12
    1416:	bb 89       	ldd	r27, Y+19	; 0x13
    1418:	8d 83       	std	Y+5, r24	; 0x05
    141a:	9e 83       	std	Y+6, r25	; 0x06
    141c:	af 83       	std	Y+7, r26	; 0x07
    141e:	b8 87       	std	Y+8, r27	; 0x08
    1420:	8d 81       	ldd	r24, Y+5	; 0x05
    1422:	9e 81       	ldd	r25, Y+6	; 0x06
    1424:	af 81       	ldd	r26, Y+7	; 0x07
    1426:	b8 85       	ldd	r27, Y+8	; 0x08
    1428:	89 83       	std	Y+1, r24	; 0x01
    142a:	9a 83       	std	Y+2, r25	; 0x02
    142c:	ab 83       	std	Y+3, r26	; 0x03
    142e:	bc 83       	std	Y+4, r27	; 0x04
    1430:	89 81       	ldd	r24, Y+1	; 0x01
    1432:	9a 81       	ldd	r25, Y+2	; 0x02
    1434:	ab 81       	ldd	r26, Y+3	; 0x03
    1436:	bc 81       	ldd	r27, Y+4	; 0x04
    1438:	01 96       	adiw	r24, 0x01	; 1
    143a:	a1 1d       	adc	r26, r1
    143c:	b1 1d       	adc	r27, r1
    143e:	89 83       	std	Y+1, r24	; 0x01
    1440:	9a 83       	std	Y+2, r25	; 0x02
    1442:	ab 83       	std	Y+3, r26	; 0x03
    1444:	bc 83       	std	Y+4, r27	; 0x04
    1446:	8e 85       	ldd	r24, Y+14	; 0x0e
    1448:	9f 85       	ldd	r25, Y+15	; 0x0f
    144a:	fc 01       	movw	r30, r24
    144c:	22 8d       	ldd	r18, Z+26	; 0x1a
    144e:	33 8d       	ldd	r19, Z+27	; 0x1b
    1450:	44 8d       	ldd	r20, Z+28	; 0x1c
    1452:	55 8d       	ldd	r21, Z+29	; 0x1d
    1454:	89 81       	ldd	r24, Y+1	; 0x01
    1456:	9a 81       	ldd	r25, Y+2	; 0x02
    1458:	ab 81       	ldd	r26, Y+3	; 0x03
    145a:	bc 81       	ldd	r27, Y+4	; 0x04
    145c:	82 17       	cp	r24, r18
    145e:	93 07       	cpc	r25, r19
    1460:	a4 07       	cpc	r26, r20
    1462:	b5 07       	cpc	r27, r21
    1464:	c8 f0       	brcs	.+50     	; 0x1498 <create_chain+0x17c>
    1466:	82 e0       	ldi	r24, 0x02	; 2
    1468:	90 e0       	ldi	r25, 0x00	; 0
    146a:	a0 e0       	ldi	r26, 0x00	; 0
    146c:	b0 e0       	ldi	r27, 0x00	; 0
    146e:	89 83       	std	Y+1, r24	; 0x01
    1470:	9a 83       	std	Y+2, r25	; 0x02
    1472:	ab 83       	std	Y+3, r26	; 0x03
    1474:	bc 83       	std	Y+4, r27	; 0x04
    1476:	29 81       	ldd	r18, Y+1	; 0x01
    1478:	3a 81       	ldd	r19, Y+2	; 0x02
    147a:	4b 81       	ldd	r20, Y+3	; 0x03
    147c:	5c 81       	ldd	r21, Y+4	; 0x04
    147e:	8d 81       	ldd	r24, Y+5	; 0x05
    1480:	9e 81       	ldd	r25, Y+6	; 0x06
    1482:	af 81       	ldd	r26, Y+7	; 0x07
    1484:	b8 85       	ldd	r27, Y+8	; 0x08
    1486:	82 17       	cp	r24, r18
    1488:	93 07       	cpc	r25, r19
    148a:	a4 07       	cpc	r26, r20
    148c:	b5 07       	cpc	r27, r21
    148e:	20 f4       	brcc	.+8      	; 0x1498 <create_chain+0x17c>
    1490:	80 e0       	ldi	r24, 0x00	; 0
    1492:	90 e0       	ldi	r25, 0x00	; 0
    1494:	dc 01       	movw	r26, r24
    1496:	b3 c0       	rjmp	.+358    	; 0x15fe <create_chain+0x2e2>
    1498:	89 81       	ldd	r24, Y+1	; 0x01
    149a:	9a 81       	ldd	r25, Y+2	; 0x02
    149c:	ab 81       	ldd	r26, Y+3	; 0x03
    149e:	bc 81       	ldd	r27, Y+4	; 0x04
    14a0:	2e 85       	ldd	r18, Y+14	; 0x0e
    14a2:	3f 85       	ldd	r19, Y+15	; 0x0f
    14a4:	ac 01       	movw	r20, r24
    14a6:	bd 01       	movw	r22, r26
    14a8:	c9 01       	movw	r24, r18
    14aa:	0e 94 c2 05 	call	0xb84	; 0xb84 <get_fat>
    14ae:	dc 01       	movw	r26, r24
    14b0:	cb 01       	movw	r24, r22
    14b2:	8a 87       	std	Y+10, r24	; 0x0a
    14b4:	9b 87       	std	Y+11, r25	; 0x0b
    14b6:	ac 87       	std	Y+12, r26	; 0x0c
    14b8:	bd 87       	std	Y+13, r27	; 0x0d
    14ba:	8a 85       	ldd	r24, Y+10	; 0x0a
    14bc:	9b 85       	ldd	r25, Y+11	; 0x0b
    14be:	ac 85       	ldd	r26, Y+12	; 0x0c
    14c0:	bd 85       	ldd	r27, Y+13	; 0x0d
    14c2:	89 2b       	or	r24, r25
    14c4:	8a 2b       	or	r24, r26
    14c6:	8b 2b       	or	r24, r27
    14c8:	41 f1       	breq	.+80     	; 0x151a <create_chain+0x1fe>
    14ca:	8a 85       	ldd	r24, Y+10	; 0x0a
    14cc:	9b 85       	ldd	r25, Y+11	; 0x0b
    14ce:	ac 85       	ldd	r26, Y+12	; 0x0c
    14d0:	bd 85       	ldd	r27, Y+13	; 0x0d
    14d2:	8f 3f       	cpi	r24, 0xFF	; 255
    14d4:	9f 4f       	sbci	r25, 0xFF	; 255
    14d6:	af 4f       	sbci	r26, 0xFF	; 255
    14d8:	bf 4f       	sbci	r27, 0xFF	; 255
    14da:	41 f0       	breq	.+16     	; 0x14ec <create_chain+0x1d0>
    14dc:	8a 85       	ldd	r24, Y+10	; 0x0a
    14de:	9b 85       	ldd	r25, Y+11	; 0x0b
    14e0:	ac 85       	ldd	r26, Y+12	; 0x0c
    14e2:	bd 85       	ldd	r27, Y+13	; 0x0d
    14e4:	01 97       	sbiw	r24, 0x01	; 1
    14e6:	a1 05       	cpc	r26, r1
    14e8:	b1 05       	cpc	r27, r1
    14ea:	29 f4       	brne	.+10     	; 0x14f6 <create_chain+0x1da>
    14ec:	8a 85       	ldd	r24, Y+10	; 0x0a
    14ee:	9b 85       	ldd	r25, Y+11	; 0x0b
    14f0:	ac 85       	ldd	r26, Y+12	; 0x0c
    14f2:	bd 85       	ldd	r27, Y+13	; 0x0d
    14f4:	84 c0       	rjmp	.+264    	; 0x15fe <create_chain+0x2e2>
    14f6:	29 81       	ldd	r18, Y+1	; 0x01
    14f8:	3a 81       	ldd	r19, Y+2	; 0x02
    14fa:	4b 81       	ldd	r20, Y+3	; 0x03
    14fc:	5c 81       	ldd	r21, Y+4	; 0x04
    14fe:	8d 81       	ldd	r24, Y+5	; 0x05
    1500:	9e 81       	ldd	r25, Y+6	; 0x06
    1502:	af 81       	ldd	r26, Y+7	; 0x07
    1504:	b8 85       	ldd	r27, Y+8	; 0x08
    1506:	28 17       	cp	r18, r24
    1508:	39 07       	cpc	r19, r25
    150a:	4a 07       	cpc	r20, r26
    150c:	5b 07       	cpc	r21, r27
    150e:	09 f0       	breq	.+2      	; 0x1512 <create_chain+0x1f6>
    1510:	8f cf       	rjmp	.-226    	; 0x1430 <create_chain+0x114>
    1512:	80 e0       	ldi	r24, 0x00	; 0
    1514:	90 e0       	ldi	r25, 0x00	; 0
    1516:	dc 01       	movw	r26, r24
    1518:	72 c0       	rjmp	.+228    	; 0x15fe <create_chain+0x2e2>
    151a:	00 00       	nop
    151c:	89 81       	ldd	r24, Y+1	; 0x01
    151e:	9a 81       	ldd	r25, Y+2	; 0x02
    1520:	ab 81       	ldd	r26, Y+3	; 0x03
    1522:	bc 81       	ldd	r27, Y+4	; 0x04
    1524:	ee 85       	ldd	r30, Y+14	; 0x0e
    1526:	ff 85       	ldd	r31, Y+15	; 0x0f
    1528:	0f ef       	ldi	r16, 0xFF	; 255
    152a:	1f ef       	ldi	r17, 0xFF	; 255
    152c:	2f ef       	ldi	r18, 0xFF	; 255
    152e:	3f e0       	ldi	r19, 0x0F	; 15
    1530:	ac 01       	movw	r20, r24
    1532:	bd 01       	movw	r22, r26
    1534:	cf 01       	movw	r24, r30
    1536:	0e 94 1f 07 	call	0xe3e	; 0xe3e <put_fat>
    153a:	89 87       	std	Y+9, r24	; 0x09
    153c:	89 85       	ldd	r24, Y+9	; 0x09
    153e:	88 23       	and	r24, r24
    1540:	d1 f4       	brne	.+52     	; 0x1576 <create_chain+0x25a>
    1542:	88 89       	ldd	r24, Y+16	; 0x10
    1544:	99 89       	ldd	r25, Y+17	; 0x11
    1546:	aa 89       	ldd	r26, Y+18	; 0x12
    1548:	bb 89       	ldd	r27, Y+19	; 0x13
    154a:	89 2b       	or	r24, r25
    154c:	8a 2b       	or	r24, r26
    154e:	8b 2b       	or	r24, r27
    1550:	91 f0       	breq	.+36     	; 0x1576 <create_chain+0x25a>
    1552:	29 81       	ldd	r18, Y+1	; 0x01
    1554:	3a 81       	ldd	r19, Y+2	; 0x02
    1556:	4b 81       	ldd	r20, Y+3	; 0x03
    1558:	5c 81       	ldd	r21, Y+4	; 0x04
    155a:	88 89       	ldd	r24, Y+16	; 0x10
    155c:	99 89       	ldd	r25, Y+17	; 0x11
    155e:	aa 89       	ldd	r26, Y+18	; 0x12
    1560:	bb 89       	ldd	r27, Y+19	; 0x13
    1562:	ee 85       	ldd	r30, Y+14	; 0x0e
    1564:	ff 85       	ldd	r31, Y+15	; 0x0f
    1566:	89 01       	movw	r16, r18
    1568:	9a 01       	movw	r18, r20
    156a:	ac 01       	movw	r20, r24
    156c:	bd 01       	movw	r22, r26
    156e:	cf 01       	movw	r24, r30
    1570:	0e 94 1f 07 	call	0xe3e	; 0xe3e <put_fat>
    1574:	89 87       	std	Y+9, r24	; 0x09
    1576:	89 85       	ldd	r24, Y+9	; 0x09
    1578:	88 23       	and	r24, r24
    157a:	71 f5       	brne	.+92     	; 0x15d8 <create_chain+0x2bc>
    157c:	2e 85       	ldd	r18, Y+14	; 0x0e
    157e:	3f 85       	ldd	r19, Y+15	; 0x0f
    1580:	89 81       	ldd	r24, Y+1	; 0x01
    1582:	9a 81       	ldd	r25, Y+2	; 0x02
    1584:	ab 81       	ldd	r26, Y+3	; 0x03
    1586:	bc 81       	ldd	r27, Y+4	; 0x04
    1588:	f9 01       	movw	r30, r18
    158a:	82 87       	std	Z+10, r24	; 0x0a
    158c:	93 87       	std	Z+11, r25	; 0x0b
    158e:	a4 87       	std	Z+12, r26	; 0x0c
    1590:	b5 87       	std	Z+13, r27	; 0x0d
    1592:	8e 85       	ldd	r24, Y+14	; 0x0e
    1594:	9f 85       	ldd	r25, Y+15	; 0x0f
    1596:	fc 01       	movw	r30, r24
    1598:	86 85       	ldd	r24, Z+14	; 0x0e
    159a:	97 85       	ldd	r25, Z+15	; 0x0f
    159c:	a0 89       	ldd	r26, Z+16	; 0x10
    159e:	b1 89       	ldd	r27, Z+17	; 0x11
    15a0:	8f 3f       	cpi	r24, 0xFF	; 255
    15a2:	9f 4f       	sbci	r25, 0xFF	; 255
    15a4:	af 4f       	sbci	r26, 0xFF	; 255
    15a6:	bf 4f       	sbci	r27, 0xFF	; 255
    15a8:	31 f1       	breq	.+76     	; 0x15f6 <create_chain+0x2da>
    15aa:	8e 85       	ldd	r24, Y+14	; 0x0e
    15ac:	9f 85       	ldd	r25, Y+15	; 0x0f
    15ae:	fc 01       	movw	r30, r24
    15b0:	86 85       	ldd	r24, Z+14	; 0x0e
    15b2:	97 85       	ldd	r25, Z+15	; 0x0f
    15b4:	a0 89       	ldd	r26, Z+16	; 0x10
    15b6:	b1 89       	ldd	r27, Z+17	; 0x11
    15b8:	01 97       	sbiw	r24, 0x01	; 1
    15ba:	a1 09       	sbc	r26, r1
    15bc:	b1 09       	sbc	r27, r1
    15be:	2e 85       	ldd	r18, Y+14	; 0x0e
    15c0:	3f 85       	ldd	r19, Y+15	; 0x0f
    15c2:	f9 01       	movw	r30, r18
    15c4:	86 87       	std	Z+14, r24	; 0x0e
    15c6:	97 87       	std	Z+15, r25	; 0x0f
    15c8:	a0 8b       	std	Z+16, r26	; 0x10
    15ca:	b1 8b       	std	Z+17, r27	; 0x11
    15cc:	8e 85       	ldd	r24, Y+14	; 0x0e
    15ce:	9f 85       	ldd	r25, Y+15	; 0x0f
    15d0:	21 e0       	ldi	r18, 0x01	; 1
    15d2:	fc 01       	movw	r30, r24
    15d4:	25 83       	std	Z+5, r18	; 0x05
    15d6:	0f c0       	rjmp	.+30     	; 0x15f6 <create_chain+0x2da>
    15d8:	89 85       	ldd	r24, Y+9	; 0x09
    15da:	81 30       	cpi	r24, 0x01	; 1
    15dc:	21 f4       	brne	.+8      	; 0x15e6 <create_chain+0x2ca>
    15de:	8f ef       	ldi	r24, 0xFF	; 255
    15e0:	9f ef       	ldi	r25, 0xFF	; 255
    15e2:	dc 01       	movw	r26, r24
    15e4:	04 c0       	rjmp	.+8      	; 0x15ee <create_chain+0x2d2>
    15e6:	81 e0       	ldi	r24, 0x01	; 1
    15e8:	90 e0       	ldi	r25, 0x00	; 0
    15ea:	a0 e0       	ldi	r26, 0x00	; 0
    15ec:	b0 e0       	ldi	r27, 0x00	; 0
    15ee:	89 83       	std	Y+1, r24	; 0x01
    15f0:	9a 83       	std	Y+2, r25	; 0x02
    15f2:	ab 83       	std	Y+3, r26	; 0x03
    15f4:	bc 83       	std	Y+4, r27	; 0x04
    15f6:	89 81       	ldd	r24, Y+1	; 0x01
    15f8:	9a 81       	ldd	r25, Y+2	; 0x02
    15fa:	ab 81       	ldd	r26, Y+3	; 0x03
    15fc:	bc 81       	ldd	r27, Y+4	; 0x04
    15fe:	bc 01       	movw	r22, r24
    1600:	cd 01       	movw	r24, r26
    1602:	63 96       	adiw	r28, 0x13	; 19
    1604:	0f b6       	in	r0, 0x3f	; 63
    1606:	f8 94       	cli
    1608:	de bf       	out	0x3e, r29	; 62
    160a:	0f be       	out	0x3f, r0	; 63
    160c:	cd bf       	out	0x3d, r28	; 61
    160e:	df 91       	pop	r29
    1610:	cf 91       	pop	r28
    1612:	1f 91       	pop	r17
    1614:	0f 91       	pop	r16
    1616:	08 95       	ret

00001618 <dir_sdi>:
    1618:	cf 93       	push	r28
    161a:	df 93       	push	r29
    161c:	cd b7       	in	r28, 0x3d	; 61
    161e:	de b7       	in	r29, 0x3e	; 62
    1620:	2a 97       	sbiw	r28, 0x0a	; 10
    1622:	0f b6       	in	r0, 0x3f	; 63
    1624:	f8 94       	cli
    1626:	de bf       	out	0x3e, r29	; 62
    1628:	0f be       	out	0x3f, r0	; 63
    162a:	cd bf       	out	0x3d, r28	; 61
    162c:	98 87       	std	Y+8, r25	; 0x08
    162e:	8f 83       	std	Y+7, r24	; 0x07
    1630:	7a 87       	std	Y+10, r23	; 0x0a
    1632:	69 87       	std	Y+9, r22	; 0x09
    1634:	8f 81       	ldd	r24, Y+7	; 0x07
    1636:	98 85       	ldd	r25, Y+8	; 0x08
    1638:	29 85       	ldd	r18, Y+9	; 0x09
    163a:	3a 85       	ldd	r19, Y+10	; 0x0a
    163c:	fc 01       	movw	r30, r24
    163e:	35 83       	std	Z+5, r19	; 0x05
    1640:	24 83       	std	Z+4, r18	; 0x04
    1642:	8f 81       	ldd	r24, Y+7	; 0x07
    1644:	98 85       	ldd	r25, Y+8	; 0x08
    1646:	fc 01       	movw	r30, r24
    1648:	86 81       	ldd	r24, Z+6	; 0x06
    164a:	97 81       	ldd	r25, Z+7	; 0x07
    164c:	a0 85       	ldd	r26, Z+8	; 0x08
    164e:	b1 85       	ldd	r27, Z+9	; 0x09
    1650:	89 83       	std	Y+1, r24	; 0x01
    1652:	9a 83       	std	Y+2, r25	; 0x02
    1654:	ab 83       	std	Y+3, r26	; 0x03
    1656:	bc 83       	std	Y+4, r27	; 0x04
    1658:	89 81       	ldd	r24, Y+1	; 0x01
    165a:	9a 81       	ldd	r25, Y+2	; 0x02
    165c:	ab 81       	ldd	r26, Y+3	; 0x03
    165e:	bc 81       	ldd	r27, Y+4	; 0x04
    1660:	01 97       	sbiw	r24, 0x01	; 1
    1662:	a1 05       	cpc	r26, r1
    1664:	b1 05       	cpc	r27, r1
    1666:	99 f0       	breq	.+38     	; 0x168e <dir_sdi+0x76>
    1668:	8f 81       	ldd	r24, Y+7	; 0x07
    166a:	98 85       	ldd	r25, Y+8	; 0x08
    166c:	fc 01       	movw	r30, r24
    166e:	80 81       	ld	r24, Z
    1670:	91 81       	ldd	r25, Z+1	; 0x01
    1672:	fc 01       	movw	r30, r24
    1674:	22 8d       	ldd	r18, Z+26	; 0x1a
    1676:	33 8d       	ldd	r19, Z+27	; 0x1b
    1678:	44 8d       	ldd	r20, Z+28	; 0x1c
    167a:	55 8d       	ldd	r21, Z+29	; 0x1d
    167c:	89 81       	ldd	r24, Y+1	; 0x01
    167e:	9a 81       	ldd	r25, Y+2	; 0x02
    1680:	ab 81       	ldd	r26, Y+3	; 0x03
    1682:	bc 81       	ldd	r27, Y+4	; 0x04
    1684:	82 17       	cp	r24, r18
    1686:	93 07       	cpc	r25, r19
    1688:	a4 07       	cpc	r26, r20
    168a:	b5 07       	cpc	r27, r21
    168c:	10 f0       	brcs	.+4      	; 0x1692 <dir_sdi+0x7a>
    168e:	82 e0       	ldi	r24, 0x02	; 2
    1690:	0f c1       	rjmp	.+542    	; 0x18b0 <dir_sdi+0x298>
    1692:	89 81       	ldd	r24, Y+1	; 0x01
    1694:	9a 81       	ldd	r25, Y+2	; 0x02
    1696:	ab 81       	ldd	r26, Y+3	; 0x03
    1698:	bc 81       	ldd	r27, Y+4	; 0x04
    169a:	89 2b       	or	r24, r25
    169c:	8a 2b       	or	r24, r26
    169e:	8b 2b       	or	r24, r27
    16a0:	b9 f4       	brne	.+46     	; 0x16d0 <dir_sdi+0xb8>
    16a2:	8f 81       	ldd	r24, Y+7	; 0x07
    16a4:	98 85       	ldd	r25, Y+8	; 0x08
    16a6:	fc 01       	movw	r30, r24
    16a8:	80 81       	ld	r24, Z
    16aa:	91 81       	ldd	r25, Z+1	; 0x01
    16ac:	fc 01       	movw	r30, r24
    16ae:	80 81       	ld	r24, Z
    16b0:	83 30       	cpi	r24, 0x03	; 3
    16b2:	71 f4       	brne	.+28     	; 0x16d0 <dir_sdi+0xb8>
    16b4:	8f 81       	ldd	r24, Y+7	; 0x07
    16b6:	98 85       	ldd	r25, Y+8	; 0x08
    16b8:	fc 01       	movw	r30, r24
    16ba:	80 81       	ld	r24, Z
    16bc:	91 81       	ldd	r25, Z+1	; 0x01
    16be:	fc 01       	movw	r30, r24
    16c0:	86 a1       	ldd	r24, Z+38	; 0x26
    16c2:	97 a1       	ldd	r25, Z+39	; 0x27
    16c4:	a0 a5       	ldd	r26, Z+40	; 0x28
    16c6:	b1 a5       	ldd	r27, Z+41	; 0x29
    16c8:	89 83       	std	Y+1, r24	; 0x01
    16ca:	9a 83       	std	Y+2, r25	; 0x02
    16cc:	ab 83       	std	Y+3, r26	; 0x03
    16ce:	bc 83       	std	Y+4, r27	; 0x04
    16d0:	89 81       	ldd	r24, Y+1	; 0x01
    16d2:	9a 81       	ldd	r25, Y+2	; 0x02
    16d4:	ab 81       	ldd	r26, Y+3	; 0x03
    16d6:	bc 81       	ldd	r27, Y+4	; 0x04
    16d8:	89 2b       	or	r24, r25
    16da:	8a 2b       	or	r24, r26
    16dc:	8b 2b       	or	r24, r27
    16de:	d9 f5       	brne	.+118    	; 0x1756 <dir_sdi+0x13e>
    16e0:	2f 81       	ldd	r18, Y+7	; 0x07
    16e2:	38 85       	ldd	r19, Y+8	; 0x08
    16e4:	89 81       	ldd	r24, Y+1	; 0x01
    16e6:	9a 81       	ldd	r25, Y+2	; 0x02
    16e8:	ab 81       	ldd	r26, Y+3	; 0x03
    16ea:	bc 81       	ldd	r27, Y+4	; 0x04
    16ec:	f9 01       	movw	r30, r18
    16ee:	82 87       	std	Z+10, r24	; 0x0a
    16f0:	93 87       	std	Z+11, r25	; 0x0b
    16f2:	a4 87       	std	Z+12, r26	; 0x0c
    16f4:	b5 87       	std	Z+13, r27	; 0x0d
    16f6:	8f 81       	ldd	r24, Y+7	; 0x07
    16f8:	98 85       	ldd	r25, Y+8	; 0x08
    16fa:	fc 01       	movw	r30, r24
    16fc:	80 81       	ld	r24, Z
    16fe:	91 81       	ldd	r25, Z+1	; 0x01
    1700:	fc 01       	movw	r30, r24
    1702:	20 85       	ldd	r18, Z+8	; 0x08
    1704:	31 85       	ldd	r19, Z+9	; 0x09
    1706:	89 85       	ldd	r24, Y+9	; 0x09
    1708:	9a 85       	ldd	r25, Y+10	; 0x0a
    170a:	82 17       	cp	r24, r18
    170c:	93 07       	cpc	r25, r19
    170e:	10 f0       	brcs	.+4      	; 0x1714 <dir_sdi+0xfc>
    1710:	82 e0       	ldi	r24, 0x02	; 2
    1712:	ce c0       	rjmp	.+412    	; 0x18b0 <dir_sdi+0x298>
    1714:	8f 81       	ldd	r24, Y+7	; 0x07
    1716:	98 85       	ldd	r25, Y+8	; 0x08
    1718:	fc 01       	movw	r30, r24
    171a:	80 81       	ld	r24, Z
    171c:	91 81       	ldd	r25, Z+1	; 0x01
    171e:	fc 01       	movw	r30, r24
    1720:	26 a1       	ldd	r18, Z+38	; 0x26
    1722:	37 a1       	ldd	r19, Z+39	; 0x27
    1724:	40 a5       	ldd	r20, Z+40	; 0x28
    1726:	51 a5       	ldd	r21, Z+41	; 0x29
    1728:	89 85       	ldd	r24, Y+9	; 0x09
    172a:	9a 85       	ldd	r25, Y+10	; 0x0a
    172c:	92 95       	swap	r25
    172e:	82 95       	swap	r24
    1730:	8f 70       	andi	r24, 0x0F	; 15
    1732:	89 27       	eor	r24, r25
    1734:	9f 70       	andi	r25, 0x0F	; 15
    1736:	89 27       	eor	r24, r25
    1738:	cc 01       	movw	r24, r24
    173a:	a0 e0       	ldi	r26, 0x00	; 0
    173c:	b0 e0       	ldi	r27, 0x00	; 0
    173e:	82 0f       	add	r24, r18
    1740:	93 1f       	adc	r25, r19
    1742:	a4 1f       	adc	r26, r20
    1744:	b5 1f       	adc	r27, r21
    1746:	2f 81       	ldd	r18, Y+7	; 0x07
    1748:	38 85       	ldd	r19, Y+8	; 0x08
    174a:	f9 01       	movw	r30, r18
    174c:	86 87       	std	Z+14, r24	; 0x0e
    174e:	97 87       	std	Z+15, r25	; 0x0f
    1750:	a0 8b       	std	Z+16, r26	; 0x10
    1752:	b1 8b       	std	Z+17, r27	; 0x11
    1754:	91 c0       	rjmp	.+290    	; 0x1878 <dir_sdi+0x260>
    1756:	8f 81       	ldd	r24, Y+7	; 0x07
    1758:	98 85       	ldd	r25, Y+8	; 0x08
    175a:	fc 01       	movw	r30, r24
    175c:	80 81       	ld	r24, Z
    175e:	91 81       	ldd	r25, Z+1	; 0x01
    1760:	fc 01       	movw	r30, r24
    1762:	82 81       	ldd	r24, Z+2	; 0x02
    1764:	88 2f       	mov	r24, r24
    1766:	90 e0       	ldi	r25, 0x00	; 0
    1768:	82 95       	swap	r24
    176a:	92 95       	swap	r25
    176c:	90 7f       	andi	r25, 0xF0	; 240
    176e:	98 27       	eor	r25, r24
    1770:	80 7f       	andi	r24, 0xF0	; 240
    1772:	98 27       	eor	r25, r24
    1774:	9e 83       	std	Y+6, r25	; 0x06
    1776:	8d 83       	std	Y+5, r24	; 0x05
    1778:	46 c0       	rjmp	.+140    	; 0x1806 <dir_sdi+0x1ee>
    177a:	8f 81       	ldd	r24, Y+7	; 0x07
    177c:	98 85       	ldd	r25, Y+8	; 0x08
    177e:	fc 01       	movw	r30, r24
    1780:	20 81       	ld	r18, Z
    1782:	31 81       	ldd	r19, Z+1	; 0x01
    1784:	89 81       	ldd	r24, Y+1	; 0x01
    1786:	9a 81       	ldd	r25, Y+2	; 0x02
    1788:	ab 81       	ldd	r26, Y+3	; 0x03
    178a:	bc 81       	ldd	r27, Y+4	; 0x04
    178c:	ac 01       	movw	r20, r24
    178e:	bd 01       	movw	r22, r26
    1790:	c9 01       	movw	r24, r18
    1792:	0e 94 c2 05 	call	0xb84	; 0xb84 <get_fat>
    1796:	dc 01       	movw	r26, r24
    1798:	cb 01       	movw	r24, r22
    179a:	89 83       	std	Y+1, r24	; 0x01
    179c:	9a 83       	std	Y+2, r25	; 0x02
    179e:	ab 83       	std	Y+3, r26	; 0x03
    17a0:	bc 83       	std	Y+4, r27	; 0x04
    17a2:	89 81       	ldd	r24, Y+1	; 0x01
    17a4:	9a 81       	ldd	r25, Y+2	; 0x02
    17a6:	ab 81       	ldd	r26, Y+3	; 0x03
    17a8:	bc 81       	ldd	r27, Y+4	; 0x04
    17aa:	8f 3f       	cpi	r24, 0xFF	; 255
    17ac:	9f 4f       	sbci	r25, 0xFF	; 255
    17ae:	af 4f       	sbci	r26, 0xFF	; 255
    17b0:	bf 4f       	sbci	r27, 0xFF	; 255
    17b2:	11 f4       	brne	.+4      	; 0x17b8 <dir_sdi+0x1a0>
    17b4:	81 e0       	ldi	r24, 0x01	; 1
    17b6:	7c c0       	rjmp	.+248    	; 0x18b0 <dir_sdi+0x298>
    17b8:	89 81       	ldd	r24, Y+1	; 0x01
    17ba:	9a 81       	ldd	r25, Y+2	; 0x02
    17bc:	ab 81       	ldd	r26, Y+3	; 0x03
    17be:	bc 81       	ldd	r27, Y+4	; 0x04
    17c0:	02 97       	sbiw	r24, 0x02	; 2
    17c2:	a1 05       	cpc	r26, r1
    17c4:	b1 05       	cpc	r27, r1
    17c6:	98 f0       	brcs	.+38     	; 0x17ee <dir_sdi+0x1d6>
    17c8:	8f 81       	ldd	r24, Y+7	; 0x07
    17ca:	98 85       	ldd	r25, Y+8	; 0x08
    17cc:	fc 01       	movw	r30, r24
    17ce:	80 81       	ld	r24, Z
    17d0:	91 81       	ldd	r25, Z+1	; 0x01
    17d2:	fc 01       	movw	r30, r24
    17d4:	22 8d       	ldd	r18, Z+26	; 0x1a
    17d6:	33 8d       	ldd	r19, Z+27	; 0x1b
    17d8:	44 8d       	ldd	r20, Z+28	; 0x1c
    17da:	55 8d       	ldd	r21, Z+29	; 0x1d
    17dc:	89 81       	ldd	r24, Y+1	; 0x01
    17de:	9a 81       	ldd	r25, Y+2	; 0x02
    17e0:	ab 81       	ldd	r26, Y+3	; 0x03
    17e2:	bc 81       	ldd	r27, Y+4	; 0x04
    17e4:	82 17       	cp	r24, r18
    17e6:	93 07       	cpc	r25, r19
    17e8:	a4 07       	cpc	r26, r20
    17ea:	b5 07       	cpc	r27, r21
    17ec:	10 f0       	brcs	.+4      	; 0x17f2 <dir_sdi+0x1da>
    17ee:	82 e0       	ldi	r24, 0x02	; 2
    17f0:	5f c0       	rjmp	.+190    	; 0x18b0 <dir_sdi+0x298>
    17f2:	29 85       	ldd	r18, Y+9	; 0x09
    17f4:	3a 85       	ldd	r19, Y+10	; 0x0a
    17f6:	8d 81       	ldd	r24, Y+5	; 0x05
    17f8:	9e 81       	ldd	r25, Y+6	; 0x06
    17fa:	a9 01       	movw	r20, r18
    17fc:	48 1b       	sub	r20, r24
    17fe:	59 0b       	sbc	r21, r25
    1800:	ca 01       	movw	r24, r20
    1802:	9a 87       	std	Y+10, r25	; 0x0a
    1804:	89 87       	std	Y+9, r24	; 0x09
    1806:	29 85       	ldd	r18, Y+9	; 0x09
    1808:	3a 85       	ldd	r19, Y+10	; 0x0a
    180a:	8d 81       	ldd	r24, Y+5	; 0x05
    180c:	9e 81       	ldd	r25, Y+6	; 0x06
    180e:	28 17       	cp	r18, r24
    1810:	39 07       	cpc	r19, r25
    1812:	08 f0       	brcs	.+2      	; 0x1816 <dir_sdi+0x1fe>
    1814:	b2 cf       	rjmp	.-156    	; 0x177a <dir_sdi+0x162>
    1816:	2f 81       	ldd	r18, Y+7	; 0x07
    1818:	38 85       	ldd	r19, Y+8	; 0x08
    181a:	89 81       	ldd	r24, Y+1	; 0x01
    181c:	9a 81       	ldd	r25, Y+2	; 0x02
    181e:	ab 81       	ldd	r26, Y+3	; 0x03
    1820:	bc 81       	ldd	r27, Y+4	; 0x04
    1822:	f9 01       	movw	r30, r18
    1824:	82 87       	std	Z+10, r24	; 0x0a
    1826:	93 87       	std	Z+11, r25	; 0x0b
    1828:	a4 87       	std	Z+12, r26	; 0x0c
    182a:	b5 87       	std	Z+13, r27	; 0x0d
    182c:	8f 81       	ldd	r24, Y+7	; 0x07
    182e:	98 85       	ldd	r25, Y+8	; 0x08
    1830:	fc 01       	movw	r30, r24
    1832:	20 81       	ld	r18, Z
    1834:	31 81       	ldd	r19, Z+1	; 0x01
    1836:	89 81       	ldd	r24, Y+1	; 0x01
    1838:	9a 81       	ldd	r25, Y+2	; 0x02
    183a:	ab 81       	ldd	r26, Y+3	; 0x03
    183c:	bc 81       	ldd	r27, Y+4	; 0x04
    183e:	ac 01       	movw	r20, r24
    1840:	bd 01       	movw	r22, r26
    1842:	c9 01       	movw	r24, r18
    1844:	0e 94 68 05 	call	0xad0	; 0xad0 <clust2sect>
    1848:	9b 01       	movw	r18, r22
    184a:	ac 01       	movw	r20, r24
    184c:	89 85       	ldd	r24, Y+9	; 0x09
    184e:	9a 85       	ldd	r25, Y+10	; 0x0a
    1850:	92 95       	swap	r25
    1852:	82 95       	swap	r24
    1854:	8f 70       	andi	r24, 0x0F	; 15
    1856:	89 27       	eor	r24, r25
    1858:	9f 70       	andi	r25, 0x0F	; 15
    185a:	89 27       	eor	r24, r25
    185c:	cc 01       	movw	r24, r24
    185e:	a0 e0       	ldi	r26, 0x00	; 0
    1860:	b0 e0       	ldi	r27, 0x00	; 0
    1862:	82 0f       	add	r24, r18
    1864:	93 1f       	adc	r25, r19
    1866:	a4 1f       	adc	r26, r20
    1868:	b5 1f       	adc	r27, r21
    186a:	2f 81       	ldd	r18, Y+7	; 0x07
    186c:	38 85       	ldd	r19, Y+8	; 0x08
    186e:	f9 01       	movw	r30, r18
    1870:	86 87       	std	Z+14, r24	; 0x0e
    1872:	97 87       	std	Z+15, r25	; 0x0f
    1874:	a0 8b       	std	Z+16, r26	; 0x10
    1876:	b1 8b       	std	Z+17, r27	; 0x11
    1878:	8f 81       	ldd	r24, Y+7	; 0x07
    187a:	98 85       	ldd	r25, Y+8	; 0x08
    187c:	fc 01       	movw	r30, r24
    187e:	80 81       	ld	r24, Z
    1880:	91 81       	ldd	r25, Z+1	; 0x01
    1882:	9c 01       	movw	r18, r24
    1884:	2e 5c       	subi	r18, 0xCE	; 206
    1886:	3f 4f       	sbci	r19, 0xFF	; 255
    1888:	89 85       	ldd	r24, Y+9	; 0x09
    188a:	9a 85       	ldd	r25, Y+10	; 0x0a
    188c:	8f 70       	andi	r24, 0x0F	; 15
    188e:	99 27       	eor	r25, r25
    1890:	88 0f       	add	r24, r24
    1892:	99 1f       	adc	r25, r25
    1894:	82 95       	swap	r24
    1896:	92 95       	swap	r25
    1898:	90 7f       	andi	r25, 0xF0	; 240
    189a:	98 27       	eor	r25, r24
    189c:	80 7f       	andi	r24, 0xF0	; 240
    189e:	98 27       	eor	r25, r24
    18a0:	28 0f       	add	r18, r24
    18a2:	39 1f       	adc	r19, r25
    18a4:	8f 81       	ldd	r24, Y+7	; 0x07
    18a6:	98 85       	ldd	r25, Y+8	; 0x08
    18a8:	fc 01       	movw	r30, r24
    18aa:	33 8b       	std	Z+19, r19	; 0x13
    18ac:	22 8b       	std	Z+18, r18	; 0x12
    18ae:	80 e0       	ldi	r24, 0x00	; 0
    18b0:	2a 96       	adiw	r28, 0x0a	; 10
    18b2:	0f b6       	in	r0, 0x3f	; 63
    18b4:	f8 94       	cli
    18b6:	de bf       	out	0x3e, r29	; 62
    18b8:	0f be       	out	0x3f, r0	; 63
    18ba:	cd bf       	out	0x3d, r28	; 61
    18bc:	df 91       	pop	r29
    18be:	cf 91       	pop	r28
    18c0:	08 95       	ret

000018c2 <dir_next>:
    18c2:	ef 92       	push	r14
    18c4:	ff 92       	push	r15
    18c6:	0f 93       	push	r16
    18c8:	1f 93       	push	r17
    18ca:	cf 93       	push	r28
    18cc:	df 93       	push	r29
    18ce:	cd b7       	in	r28, 0x3d	; 61
    18d0:	de b7       	in	r29, 0x3e	; 62
    18d2:	2b 97       	sbiw	r28, 0x0b	; 11
    18d4:	0f b6       	in	r0, 0x3f	; 63
    18d6:	f8 94       	cli
    18d8:	de bf       	out	0x3e, r29	; 62
    18da:	0f be       	out	0x3f, r0	; 63
    18dc:	cd bf       	out	0x3d, r28	; 61
    18de:	99 87       	std	Y+9, r25	; 0x09
    18e0:	88 87       	std	Y+8, r24	; 0x08
    18e2:	7b 87       	std	Y+11, r23	; 0x0b
    18e4:	6a 87       	std	Y+10, r22	; 0x0a
    18e6:	88 85       	ldd	r24, Y+8	; 0x08
    18e8:	99 85       	ldd	r25, Y+9	; 0x09
    18ea:	fc 01       	movw	r30, r24
    18ec:	84 81       	ldd	r24, Z+4	; 0x04
    18ee:	95 81       	ldd	r25, Z+5	; 0x05
    18f0:	01 96       	adiw	r24, 0x01	; 1
    18f2:	9f 83       	std	Y+7, r25	; 0x07
    18f4:	8e 83       	std	Y+6, r24	; 0x06
    18f6:	8e 81       	ldd	r24, Y+6	; 0x06
    18f8:	9f 81       	ldd	r25, Y+7	; 0x07
    18fa:	89 2b       	or	r24, r25
    18fc:	59 f0       	breq	.+22     	; 0x1914 <dir_next+0x52>
    18fe:	88 85       	ldd	r24, Y+8	; 0x08
    1900:	99 85       	ldd	r25, Y+9	; 0x09
    1902:	fc 01       	movw	r30, r24
    1904:	86 85       	ldd	r24, Z+14	; 0x0e
    1906:	97 85       	ldd	r25, Z+15	; 0x0f
    1908:	a0 89       	ldd	r26, Z+16	; 0x10
    190a:	b1 89       	ldd	r27, Z+17	; 0x11
    190c:	89 2b       	or	r24, r25
    190e:	8a 2b       	or	r24, r26
    1910:	8b 2b       	or	r24, r27
    1912:	11 f4       	brne	.+4      	; 0x1918 <dir_next+0x56>
    1914:	84 e0       	ldi	r24, 0x04	; 4
    1916:	98 c1       	rjmp	.+816    	; 0x1c48 <dir_next+0x386>
    1918:	8e 81       	ldd	r24, Y+6	; 0x06
    191a:	9f 81       	ldd	r25, Y+7	; 0x07
    191c:	8f 70       	andi	r24, 0x0F	; 15
    191e:	99 27       	eor	r25, r25
    1920:	89 2b       	or	r24, r25
    1922:	09 f0       	breq	.+2      	; 0x1926 <dir_next+0x64>
    1924:	6e c1       	rjmp	.+732    	; 0x1c02 <dir_next+0x340>
    1926:	88 85       	ldd	r24, Y+8	; 0x08
    1928:	99 85       	ldd	r25, Y+9	; 0x09
    192a:	fc 01       	movw	r30, r24
    192c:	86 85       	ldd	r24, Z+14	; 0x0e
    192e:	97 85       	ldd	r25, Z+15	; 0x0f
    1930:	a0 89       	ldd	r26, Z+16	; 0x10
    1932:	b1 89       	ldd	r27, Z+17	; 0x11
    1934:	01 96       	adiw	r24, 0x01	; 1
    1936:	a1 1d       	adc	r26, r1
    1938:	b1 1d       	adc	r27, r1
    193a:	28 85       	ldd	r18, Y+8	; 0x08
    193c:	39 85       	ldd	r19, Y+9	; 0x09
    193e:	f9 01       	movw	r30, r18
    1940:	86 87       	std	Z+14, r24	; 0x0e
    1942:	97 87       	std	Z+15, r25	; 0x0f
    1944:	a0 8b       	std	Z+16, r26	; 0x10
    1946:	b1 8b       	std	Z+17, r27	; 0x11
    1948:	88 85       	ldd	r24, Y+8	; 0x08
    194a:	99 85       	ldd	r25, Y+9	; 0x09
    194c:	fc 01       	movw	r30, r24
    194e:	82 85       	ldd	r24, Z+10	; 0x0a
    1950:	93 85       	ldd	r25, Z+11	; 0x0b
    1952:	a4 85       	ldd	r26, Z+12	; 0x0c
    1954:	b5 85       	ldd	r27, Z+13	; 0x0d
    1956:	89 2b       	or	r24, r25
    1958:	8a 2b       	or	r24, r26
    195a:	8b 2b       	or	r24, r27
    195c:	81 f4       	brne	.+32     	; 0x197e <dir_next+0xbc>
    195e:	88 85       	ldd	r24, Y+8	; 0x08
    1960:	99 85       	ldd	r25, Y+9	; 0x09
    1962:	fc 01       	movw	r30, r24
    1964:	80 81       	ld	r24, Z
    1966:	91 81       	ldd	r25, Z+1	; 0x01
    1968:	fc 01       	movw	r30, r24
    196a:	20 85       	ldd	r18, Z+8	; 0x08
    196c:	31 85       	ldd	r19, Z+9	; 0x09
    196e:	8e 81       	ldd	r24, Y+6	; 0x06
    1970:	9f 81       	ldd	r25, Y+7	; 0x07
    1972:	82 17       	cp	r24, r18
    1974:	93 07       	cpc	r25, r19
    1976:	08 f4       	brcc	.+2      	; 0x197a <dir_next+0xb8>
    1978:	44 c1       	rjmp	.+648    	; 0x1c02 <dir_next+0x340>
    197a:	84 e0       	ldi	r24, 0x04	; 4
    197c:	65 c1       	rjmp	.+714    	; 0x1c48 <dir_next+0x386>
    197e:	8e 81       	ldd	r24, Y+6	; 0x06
    1980:	9f 81       	ldd	r25, Y+7	; 0x07
    1982:	92 95       	swap	r25
    1984:	82 95       	swap	r24
    1986:	8f 70       	andi	r24, 0x0F	; 15
    1988:	89 27       	eor	r24, r25
    198a:	9f 70       	andi	r25, 0x0F	; 15
    198c:	89 27       	eor	r24, r25
    198e:	28 85       	ldd	r18, Y+8	; 0x08
    1990:	39 85       	ldd	r19, Y+9	; 0x09
    1992:	f9 01       	movw	r30, r18
    1994:	20 81       	ld	r18, Z
    1996:	31 81       	ldd	r19, Z+1	; 0x01
    1998:	f9 01       	movw	r30, r18
    199a:	22 81       	ldd	r18, Z+2	; 0x02
    199c:	22 2f       	mov	r18, r18
    199e:	30 e0       	ldi	r19, 0x00	; 0
    19a0:	21 50       	subi	r18, 0x01	; 1
    19a2:	31 09       	sbc	r19, r1
    19a4:	82 23       	and	r24, r18
    19a6:	93 23       	and	r25, r19
    19a8:	89 2b       	or	r24, r25
    19aa:	09 f0       	breq	.+2      	; 0x19ae <dir_next+0xec>
    19ac:	2a c1       	rjmp	.+596    	; 0x1c02 <dir_next+0x340>
    19ae:	88 85       	ldd	r24, Y+8	; 0x08
    19b0:	99 85       	ldd	r25, Y+9	; 0x09
    19b2:	fc 01       	movw	r30, r24
    19b4:	82 85       	ldd	r24, Z+10	; 0x0a
    19b6:	93 85       	ldd	r25, Z+11	; 0x0b
    19b8:	a4 85       	ldd	r26, Z+12	; 0x0c
    19ba:	b5 85       	ldd	r27, Z+13	; 0x0d
    19bc:	28 85       	ldd	r18, Y+8	; 0x08
    19be:	39 85       	ldd	r19, Y+9	; 0x09
    19c0:	f9 01       	movw	r30, r18
    19c2:	20 81       	ld	r18, Z
    19c4:	31 81       	ldd	r19, Z+1	; 0x01
    19c6:	ac 01       	movw	r20, r24
    19c8:	bd 01       	movw	r22, r26
    19ca:	c9 01       	movw	r24, r18
    19cc:	0e 94 c2 05 	call	0xb84	; 0xb84 <get_fat>
    19d0:	dc 01       	movw	r26, r24
    19d2:	cb 01       	movw	r24, r22
    19d4:	89 83       	std	Y+1, r24	; 0x01
    19d6:	9a 83       	std	Y+2, r25	; 0x02
    19d8:	ab 83       	std	Y+3, r26	; 0x03
    19da:	bc 83       	std	Y+4, r27	; 0x04
    19dc:	89 81       	ldd	r24, Y+1	; 0x01
    19de:	9a 81       	ldd	r25, Y+2	; 0x02
    19e0:	ab 81       	ldd	r26, Y+3	; 0x03
    19e2:	bc 81       	ldd	r27, Y+4	; 0x04
    19e4:	02 97       	sbiw	r24, 0x02	; 2
    19e6:	a1 05       	cpc	r26, r1
    19e8:	b1 05       	cpc	r27, r1
    19ea:	10 f4       	brcc	.+4      	; 0x19f0 <dir_next+0x12e>
    19ec:	82 e0       	ldi	r24, 0x02	; 2
    19ee:	2c c1       	rjmp	.+600    	; 0x1c48 <dir_next+0x386>
    19f0:	89 81       	ldd	r24, Y+1	; 0x01
    19f2:	9a 81       	ldd	r25, Y+2	; 0x02
    19f4:	ab 81       	ldd	r26, Y+3	; 0x03
    19f6:	bc 81       	ldd	r27, Y+4	; 0x04
    19f8:	8f 3f       	cpi	r24, 0xFF	; 255
    19fa:	9f 4f       	sbci	r25, 0xFF	; 255
    19fc:	af 4f       	sbci	r26, 0xFF	; 255
    19fe:	bf 4f       	sbci	r27, 0xFF	; 255
    1a00:	11 f4       	brne	.+4      	; 0x1a06 <dir_next+0x144>
    1a02:	81 e0       	ldi	r24, 0x01	; 1
    1a04:	21 c1       	rjmp	.+578    	; 0x1c48 <dir_next+0x386>
    1a06:	88 85       	ldd	r24, Y+8	; 0x08
    1a08:	99 85       	ldd	r25, Y+9	; 0x09
    1a0a:	fc 01       	movw	r30, r24
    1a0c:	80 81       	ld	r24, Z
    1a0e:	91 81       	ldd	r25, Z+1	; 0x01
    1a10:	fc 01       	movw	r30, r24
    1a12:	22 8d       	ldd	r18, Z+26	; 0x1a
    1a14:	33 8d       	ldd	r19, Z+27	; 0x1b
    1a16:	44 8d       	ldd	r20, Z+28	; 0x1c
    1a18:	55 8d       	ldd	r21, Z+29	; 0x1d
    1a1a:	89 81       	ldd	r24, Y+1	; 0x01
    1a1c:	9a 81       	ldd	r25, Y+2	; 0x02
    1a1e:	ab 81       	ldd	r26, Y+3	; 0x03
    1a20:	bc 81       	ldd	r27, Y+4	; 0x04
    1a22:	82 17       	cp	r24, r18
    1a24:	93 07       	cpc	r25, r19
    1a26:	a4 07       	cpc	r26, r20
    1a28:	b5 07       	cpc	r27, r21
    1a2a:	08 f4       	brcc	.+2      	; 0x1a2e <dir_next+0x16c>
    1a2c:	c8 c0       	rjmp	.+400    	; 0x1bbe <dir_next+0x2fc>
    1a2e:	8a 85       	ldd	r24, Y+10	; 0x0a
    1a30:	9b 85       	ldd	r25, Y+11	; 0x0b
    1a32:	89 2b       	or	r24, r25
    1a34:	11 f4       	brne	.+4      	; 0x1a3a <dir_next+0x178>
    1a36:	84 e0       	ldi	r24, 0x04	; 4
    1a38:	07 c1       	rjmp	.+526    	; 0x1c48 <dir_next+0x386>
    1a3a:	88 85       	ldd	r24, Y+8	; 0x08
    1a3c:	99 85       	ldd	r25, Y+9	; 0x09
    1a3e:	fc 01       	movw	r30, r24
    1a40:	82 85       	ldd	r24, Z+10	; 0x0a
    1a42:	93 85       	ldd	r25, Z+11	; 0x0b
    1a44:	a4 85       	ldd	r26, Z+12	; 0x0c
    1a46:	b5 85       	ldd	r27, Z+13	; 0x0d
    1a48:	28 85       	ldd	r18, Y+8	; 0x08
    1a4a:	39 85       	ldd	r19, Y+9	; 0x09
    1a4c:	f9 01       	movw	r30, r18
    1a4e:	20 81       	ld	r18, Z
    1a50:	31 81       	ldd	r19, Z+1	; 0x01
    1a52:	ac 01       	movw	r20, r24
    1a54:	bd 01       	movw	r22, r26
    1a56:	c9 01       	movw	r24, r18
    1a58:	0e 94 8e 09 	call	0x131c	; 0x131c <create_chain>
    1a5c:	dc 01       	movw	r26, r24
    1a5e:	cb 01       	movw	r24, r22
    1a60:	89 83       	std	Y+1, r24	; 0x01
    1a62:	9a 83       	std	Y+2, r25	; 0x02
    1a64:	ab 83       	std	Y+3, r26	; 0x03
    1a66:	bc 83       	std	Y+4, r27	; 0x04
    1a68:	89 81       	ldd	r24, Y+1	; 0x01
    1a6a:	9a 81       	ldd	r25, Y+2	; 0x02
    1a6c:	ab 81       	ldd	r26, Y+3	; 0x03
    1a6e:	bc 81       	ldd	r27, Y+4	; 0x04
    1a70:	89 2b       	or	r24, r25
    1a72:	8a 2b       	or	r24, r26
    1a74:	8b 2b       	or	r24, r27
    1a76:	11 f4       	brne	.+4      	; 0x1a7c <dir_next+0x1ba>
    1a78:	87 e0       	ldi	r24, 0x07	; 7
    1a7a:	e6 c0       	rjmp	.+460    	; 0x1c48 <dir_next+0x386>
    1a7c:	89 81       	ldd	r24, Y+1	; 0x01
    1a7e:	9a 81       	ldd	r25, Y+2	; 0x02
    1a80:	ab 81       	ldd	r26, Y+3	; 0x03
    1a82:	bc 81       	ldd	r27, Y+4	; 0x04
    1a84:	01 97       	sbiw	r24, 0x01	; 1
    1a86:	a1 05       	cpc	r26, r1
    1a88:	b1 05       	cpc	r27, r1
    1a8a:	11 f4       	brne	.+4      	; 0x1a90 <dir_next+0x1ce>
    1a8c:	82 e0       	ldi	r24, 0x02	; 2
    1a8e:	dc c0       	rjmp	.+440    	; 0x1c48 <dir_next+0x386>
    1a90:	89 81       	ldd	r24, Y+1	; 0x01
    1a92:	9a 81       	ldd	r25, Y+2	; 0x02
    1a94:	ab 81       	ldd	r26, Y+3	; 0x03
    1a96:	bc 81       	ldd	r27, Y+4	; 0x04
    1a98:	8f 3f       	cpi	r24, 0xFF	; 255
    1a9a:	9f 4f       	sbci	r25, 0xFF	; 255
    1a9c:	af 4f       	sbci	r26, 0xFF	; 255
    1a9e:	bf 4f       	sbci	r27, 0xFF	; 255
    1aa0:	11 f4       	brne	.+4      	; 0x1aa6 <dir_next+0x1e4>
    1aa2:	81 e0       	ldi	r24, 0x01	; 1
    1aa4:	d1 c0       	rjmp	.+418    	; 0x1c48 <dir_next+0x386>
    1aa6:	88 85       	ldd	r24, Y+8	; 0x08
    1aa8:	99 85       	ldd	r25, Y+9	; 0x09
    1aaa:	fc 01       	movw	r30, r24
    1aac:	80 81       	ld	r24, Z
    1aae:	91 81       	ldd	r25, Z+1	; 0x01
    1ab0:	40 e0       	ldi	r20, 0x00	; 0
    1ab2:	50 e0       	ldi	r21, 0x00	; 0
    1ab4:	ba 01       	movw	r22, r20
    1ab6:	0e 94 e4 03 	call	0x7c8	; 0x7c8 <move_window>
    1aba:	88 23       	and	r24, r24
    1abc:	11 f0       	breq	.+4      	; 0x1ac2 <dir_next+0x200>
    1abe:	81 e0       	ldi	r24, 0x01	; 1
    1ac0:	c3 c0       	rjmp	.+390    	; 0x1c48 <dir_next+0x386>
    1ac2:	88 85       	ldd	r24, Y+8	; 0x08
    1ac4:	99 85       	ldd	r25, Y+9	; 0x09
    1ac6:	fc 01       	movw	r30, r24
    1ac8:	80 81       	ld	r24, Z
    1aca:	91 81       	ldd	r25, Z+1	; 0x01
    1acc:	c2 96       	adiw	r24, 0x32	; 50
    1ace:	40 e0       	ldi	r20, 0x00	; 0
    1ad0:	52 e0       	ldi	r21, 0x02	; 2
    1ad2:	60 e0       	ldi	r22, 0x00	; 0
    1ad4:	70 e0       	ldi	r23, 0x00	; 0
    1ad6:	0e 94 35 03 	call	0x66a	; 0x66a <mem_set>
    1ada:	88 85       	ldd	r24, Y+8	; 0x08
    1adc:	99 85       	ldd	r25, Y+9	; 0x09
    1ade:	fc 01       	movw	r30, r24
    1ae0:	00 81       	ld	r16, Z
    1ae2:	11 81       	ldd	r17, Z+1	; 0x01
    1ae4:	88 85       	ldd	r24, Y+8	; 0x08
    1ae6:	99 85       	ldd	r25, Y+9	; 0x09
    1ae8:	fc 01       	movw	r30, r24
    1aea:	20 81       	ld	r18, Z
    1aec:	31 81       	ldd	r19, Z+1	; 0x01
    1aee:	89 81       	ldd	r24, Y+1	; 0x01
    1af0:	9a 81       	ldd	r25, Y+2	; 0x02
    1af2:	ab 81       	ldd	r26, Y+3	; 0x03
    1af4:	bc 81       	ldd	r27, Y+4	; 0x04
    1af6:	ac 01       	movw	r20, r24
    1af8:	bd 01       	movw	r22, r26
    1afa:	c9 01       	movw	r24, r18
    1afc:	0e 94 68 05 	call	0xad0	; 0xad0 <clust2sect>
    1b00:	dc 01       	movw	r26, r24
    1b02:	cb 01       	movw	r24, r22
    1b04:	f8 01       	movw	r30, r16
    1b06:	86 a7       	std	Z+46, r24	; 0x2e
    1b08:	97 a7       	std	Z+47, r25	; 0x2f
    1b0a:	a0 ab       	std	Z+48, r26	; 0x30
    1b0c:	b1 ab       	std	Z+49, r27	; 0x31
    1b0e:	1d 82       	std	Y+5, r1	; 0x05
    1b10:	2b c0       	rjmp	.+86     	; 0x1b68 <dir_next+0x2a6>
    1b12:	88 85       	ldd	r24, Y+8	; 0x08
    1b14:	99 85       	ldd	r25, Y+9	; 0x09
    1b16:	fc 01       	movw	r30, r24
    1b18:	80 81       	ld	r24, Z
    1b1a:	91 81       	ldd	r25, Z+1	; 0x01
    1b1c:	21 e0       	ldi	r18, 0x01	; 1
    1b1e:	fc 01       	movw	r30, r24
    1b20:	24 83       	std	Z+4, r18	; 0x04
    1b22:	88 85       	ldd	r24, Y+8	; 0x08
    1b24:	99 85       	ldd	r25, Y+9	; 0x09
    1b26:	fc 01       	movw	r30, r24
    1b28:	80 81       	ld	r24, Z
    1b2a:	91 81       	ldd	r25, Z+1	; 0x01
    1b2c:	40 e0       	ldi	r20, 0x00	; 0
    1b2e:	50 e0       	ldi	r21, 0x00	; 0
    1b30:	ba 01       	movw	r22, r20
    1b32:	0e 94 e4 03 	call	0x7c8	; 0x7c8 <move_window>
    1b36:	88 23       	and	r24, r24
    1b38:	11 f0       	breq	.+4      	; 0x1b3e <dir_next+0x27c>
    1b3a:	81 e0       	ldi	r24, 0x01	; 1
    1b3c:	85 c0       	rjmp	.+266    	; 0x1c48 <dir_next+0x386>
    1b3e:	88 85       	ldd	r24, Y+8	; 0x08
    1b40:	99 85       	ldd	r25, Y+9	; 0x09
    1b42:	fc 01       	movw	r30, r24
    1b44:	20 81       	ld	r18, Z
    1b46:	31 81       	ldd	r19, Z+1	; 0x01
    1b48:	f9 01       	movw	r30, r18
    1b4a:	86 a5       	ldd	r24, Z+46	; 0x2e
    1b4c:	97 a5       	ldd	r25, Z+47	; 0x2f
    1b4e:	a0 a9       	ldd	r26, Z+48	; 0x30
    1b50:	b1 a9       	ldd	r27, Z+49	; 0x31
    1b52:	01 96       	adiw	r24, 0x01	; 1
    1b54:	a1 1d       	adc	r26, r1
    1b56:	b1 1d       	adc	r27, r1
    1b58:	f9 01       	movw	r30, r18
    1b5a:	86 a7       	std	Z+46, r24	; 0x2e
    1b5c:	97 a7       	std	Z+47, r25	; 0x2f
    1b5e:	a0 ab       	std	Z+48, r26	; 0x30
    1b60:	b1 ab       	std	Z+49, r27	; 0x31
    1b62:	8d 81       	ldd	r24, Y+5	; 0x05
    1b64:	8f 5f       	subi	r24, 0xFF	; 255
    1b66:	8d 83       	std	Y+5, r24	; 0x05
    1b68:	88 85       	ldd	r24, Y+8	; 0x08
    1b6a:	99 85       	ldd	r25, Y+9	; 0x09
    1b6c:	fc 01       	movw	r30, r24
    1b6e:	80 81       	ld	r24, Z
    1b70:	91 81       	ldd	r25, Z+1	; 0x01
    1b72:	fc 01       	movw	r30, r24
    1b74:	92 81       	ldd	r25, Z+2	; 0x02
    1b76:	8d 81       	ldd	r24, Y+5	; 0x05
    1b78:	89 17       	cp	r24, r25
    1b7a:	58 f2       	brcs	.-106    	; 0x1b12 <dir_next+0x250>
    1b7c:	88 85       	ldd	r24, Y+8	; 0x08
    1b7e:	99 85       	ldd	r25, Y+9	; 0x09
    1b80:	fc 01       	movw	r30, r24
    1b82:	60 81       	ld	r22, Z
    1b84:	71 81       	ldd	r23, Z+1	; 0x01
    1b86:	88 85       	ldd	r24, Y+8	; 0x08
    1b88:	99 85       	ldd	r25, Y+9	; 0x09
    1b8a:	fc 01       	movw	r30, r24
    1b8c:	80 81       	ld	r24, Z
    1b8e:	91 81       	ldd	r25, Z+1	; 0x01
    1b90:	fc 01       	movw	r30, r24
    1b92:	26 a5       	ldd	r18, Z+46	; 0x2e
    1b94:	37 a5       	ldd	r19, Z+47	; 0x2f
    1b96:	40 a9       	ldd	r20, Z+48	; 0x30
    1b98:	51 a9       	ldd	r21, Z+49	; 0x31
    1b9a:	8d 81       	ldd	r24, Y+5	; 0x05
    1b9c:	88 2f       	mov	r24, r24
    1b9e:	90 e0       	ldi	r25, 0x00	; 0
    1ba0:	a0 e0       	ldi	r26, 0x00	; 0
    1ba2:	b0 e0       	ldi	r27, 0x00	; 0
    1ba4:	79 01       	movw	r14, r18
    1ba6:	8a 01       	movw	r16, r20
    1ba8:	e8 1a       	sub	r14, r24
    1baa:	f9 0a       	sbc	r15, r25
    1bac:	0a 0b       	sbc	r16, r26
    1bae:	1b 0b       	sbc	r17, r27
    1bb0:	d8 01       	movw	r26, r16
    1bb2:	c7 01       	movw	r24, r14
    1bb4:	fb 01       	movw	r30, r22
    1bb6:	86 a7       	std	Z+46, r24	; 0x2e
    1bb8:	97 a7       	std	Z+47, r25	; 0x2f
    1bba:	a0 ab       	std	Z+48, r26	; 0x30
    1bbc:	b1 ab       	std	Z+49, r27	; 0x31
    1bbe:	28 85       	ldd	r18, Y+8	; 0x08
    1bc0:	39 85       	ldd	r19, Y+9	; 0x09
    1bc2:	89 81       	ldd	r24, Y+1	; 0x01
    1bc4:	9a 81       	ldd	r25, Y+2	; 0x02
    1bc6:	ab 81       	ldd	r26, Y+3	; 0x03
    1bc8:	bc 81       	ldd	r27, Y+4	; 0x04
    1bca:	f9 01       	movw	r30, r18
    1bcc:	82 87       	std	Z+10, r24	; 0x0a
    1bce:	93 87       	std	Z+11, r25	; 0x0b
    1bd0:	a4 87       	std	Z+12, r26	; 0x0c
    1bd2:	b5 87       	std	Z+13, r27	; 0x0d
    1bd4:	88 85       	ldd	r24, Y+8	; 0x08
    1bd6:	99 85       	ldd	r25, Y+9	; 0x09
    1bd8:	fc 01       	movw	r30, r24
    1bda:	20 81       	ld	r18, Z
    1bdc:	31 81       	ldd	r19, Z+1	; 0x01
    1bde:	89 81       	ldd	r24, Y+1	; 0x01
    1be0:	9a 81       	ldd	r25, Y+2	; 0x02
    1be2:	ab 81       	ldd	r26, Y+3	; 0x03
    1be4:	bc 81       	ldd	r27, Y+4	; 0x04
    1be6:	ac 01       	movw	r20, r24
    1be8:	bd 01       	movw	r22, r26
    1bea:	c9 01       	movw	r24, r18
    1bec:	0e 94 68 05 	call	0xad0	; 0xad0 <clust2sect>
    1bf0:	dc 01       	movw	r26, r24
    1bf2:	cb 01       	movw	r24, r22
    1bf4:	28 85       	ldd	r18, Y+8	; 0x08
    1bf6:	39 85       	ldd	r19, Y+9	; 0x09
    1bf8:	f9 01       	movw	r30, r18
    1bfa:	86 87       	std	Z+14, r24	; 0x0e
    1bfc:	97 87       	std	Z+15, r25	; 0x0f
    1bfe:	a0 8b       	std	Z+16, r26	; 0x10
    1c00:	b1 8b       	std	Z+17, r27	; 0x11
    1c02:	88 85       	ldd	r24, Y+8	; 0x08
    1c04:	99 85       	ldd	r25, Y+9	; 0x09
    1c06:	2e 81       	ldd	r18, Y+6	; 0x06
    1c08:	3f 81       	ldd	r19, Y+7	; 0x07
    1c0a:	fc 01       	movw	r30, r24
    1c0c:	35 83       	std	Z+5, r19	; 0x05
    1c0e:	24 83       	std	Z+4, r18	; 0x04
    1c10:	88 85       	ldd	r24, Y+8	; 0x08
    1c12:	99 85       	ldd	r25, Y+9	; 0x09
    1c14:	fc 01       	movw	r30, r24
    1c16:	80 81       	ld	r24, Z
    1c18:	91 81       	ldd	r25, Z+1	; 0x01
    1c1a:	9c 01       	movw	r18, r24
    1c1c:	2e 5c       	subi	r18, 0xCE	; 206
    1c1e:	3f 4f       	sbci	r19, 0xFF	; 255
    1c20:	8e 81       	ldd	r24, Y+6	; 0x06
    1c22:	9f 81       	ldd	r25, Y+7	; 0x07
    1c24:	8f 70       	andi	r24, 0x0F	; 15
    1c26:	99 27       	eor	r25, r25
    1c28:	88 0f       	add	r24, r24
    1c2a:	99 1f       	adc	r25, r25
    1c2c:	82 95       	swap	r24
    1c2e:	92 95       	swap	r25
    1c30:	90 7f       	andi	r25, 0xF0	; 240
    1c32:	98 27       	eor	r25, r24
    1c34:	80 7f       	andi	r24, 0xF0	; 240
    1c36:	98 27       	eor	r25, r24
    1c38:	28 0f       	add	r18, r24
    1c3a:	39 1f       	adc	r19, r25
    1c3c:	88 85       	ldd	r24, Y+8	; 0x08
    1c3e:	99 85       	ldd	r25, Y+9	; 0x09
    1c40:	fc 01       	movw	r30, r24
    1c42:	33 8b       	std	Z+19, r19	; 0x13
    1c44:	22 8b       	std	Z+18, r18	; 0x12
    1c46:	80 e0       	ldi	r24, 0x00	; 0
    1c48:	2b 96       	adiw	r28, 0x0b	; 11
    1c4a:	0f b6       	in	r0, 0x3f	; 63
    1c4c:	f8 94       	cli
    1c4e:	de bf       	out	0x3e, r29	; 62
    1c50:	0f be       	out	0x3f, r0	; 63
    1c52:	cd bf       	out	0x3d, r28	; 61
    1c54:	df 91       	pop	r29
    1c56:	cf 91       	pop	r28
    1c58:	1f 91       	pop	r17
    1c5a:	0f 91       	pop	r16
    1c5c:	ff 90       	pop	r15
    1c5e:	ef 90       	pop	r14
    1c60:	08 95       	ret

00001c62 <dir_find>:
    1c62:	cf 93       	push	r28
    1c64:	df 93       	push	r29
    1c66:	00 d0       	rcall	.+0      	; 0x1c68 <dir_find+0x6>
    1c68:	00 d0       	rcall	.+0      	; 0x1c6a <dir_find+0x8>
    1c6a:	00 d0       	rcall	.+0      	; 0x1c6c <dir_find+0xa>
    1c6c:	cd b7       	in	r28, 0x3d	; 61
    1c6e:	de b7       	in	r29, 0x3e	; 62
    1c70:	9e 83       	std	Y+6, r25	; 0x06
    1c72:	8d 83       	std	Y+5, r24	; 0x05
    1c74:	8d 81       	ldd	r24, Y+5	; 0x05
    1c76:	9e 81       	ldd	r25, Y+6	; 0x06
    1c78:	60 e0       	ldi	r22, 0x00	; 0
    1c7a:	70 e0       	ldi	r23, 0x00	; 0
    1c7c:	0e 94 0c 0b 	call	0x1618	; 0x1618 <dir_sdi>
    1c80:	89 83       	std	Y+1, r24	; 0x01
    1c82:	89 81       	ldd	r24, Y+1	; 0x01
    1c84:	88 23       	and	r24, r24
    1c86:	11 f0       	breq	.+4      	; 0x1c8c <dir_find+0x2a>
    1c88:	89 81       	ldd	r24, Y+1	; 0x01
    1c8a:	50 c0       	rjmp	.+160    	; 0x1d2c <dir_find+0xca>
    1c8c:	8d 81       	ldd	r24, Y+5	; 0x05
    1c8e:	9e 81       	ldd	r25, Y+6	; 0x06
    1c90:	fc 01       	movw	r30, r24
    1c92:	86 85       	ldd	r24, Z+14	; 0x0e
    1c94:	97 85       	ldd	r25, Z+15	; 0x0f
    1c96:	a0 89       	ldd	r26, Z+16	; 0x10
    1c98:	b1 89       	ldd	r27, Z+17	; 0x11
    1c9a:	2d 81       	ldd	r18, Y+5	; 0x05
    1c9c:	3e 81       	ldd	r19, Y+6	; 0x06
    1c9e:	f9 01       	movw	r30, r18
    1ca0:	20 81       	ld	r18, Z
    1ca2:	31 81       	ldd	r19, Z+1	; 0x01
    1ca4:	ac 01       	movw	r20, r24
    1ca6:	bd 01       	movw	r22, r26
    1ca8:	c9 01       	movw	r24, r18
    1caa:	0e 94 e4 03 	call	0x7c8	; 0x7c8 <move_window>
    1cae:	89 83       	std	Y+1, r24	; 0x01
    1cb0:	89 81       	ldd	r24, Y+1	; 0x01
    1cb2:	88 23       	and	r24, r24
    1cb4:	b9 f5       	brne	.+110    	; 0x1d24 <dir_find+0xc2>
    1cb6:	8d 81       	ldd	r24, Y+5	; 0x05
    1cb8:	9e 81       	ldd	r25, Y+6	; 0x06
    1cba:	fc 01       	movw	r30, r24
    1cbc:	82 89       	ldd	r24, Z+18	; 0x12
    1cbe:	93 89       	ldd	r25, Z+19	; 0x13
    1cc0:	9b 83       	std	Y+3, r25	; 0x03
    1cc2:	8a 83       	std	Y+2, r24	; 0x02
    1cc4:	8a 81       	ldd	r24, Y+2	; 0x02
    1cc6:	9b 81       	ldd	r25, Y+3	; 0x03
    1cc8:	fc 01       	movw	r30, r24
    1cca:	80 81       	ld	r24, Z
    1ccc:	8c 83       	std	Y+4, r24	; 0x04
    1cce:	8c 81       	ldd	r24, Y+4	; 0x04
    1cd0:	88 23       	and	r24, r24
    1cd2:	19 f4       	brne	.+6      	; 0x1cda <dir_find+0x78>
    1cd4:	84 e0       	ldi	r24, 0x04	; 4
    1cd6:	89 83       	std	Y+1, r24	; 0x01
    1cd8:	28 c0       	rjmp	.+80     	; 0x1d2a <dir_find+0xc8>
    1cda:	8a 81       	ldd	r24, Y+2	; 0x02
    1cdc:	9b 81       	ldd	r25, Y+3	; 0x03
    1cde:	0b 96       	adiw	r24, 0x0b	; 11
    1ce0:	fc 01       	movw	r30, r24
    1ce2:	80 81       	ld	r24, Z
    1ce4:	88 2f       	mov	r24, r24
    1ce6:	90 e0       	ldi	r25, 0x00	; 0
    1ce8:	88 70       	andi	r24, 0x08	; 8
    1cea:	99 27       	eor	r25, r25
    1cec:	89 2b       	or	r24, r25
    1cee:	71 f4       	brne	.+28     	; 0x1d0c <dir_find+0xaa>
    1cf0:	8d 81       	ldd	r24, Y+5	; 0x05
    1cf2:	9e 81       	ldd	r25, Y+6	; 0x06
    1cf4:	fc 01       	movw	r30, r24
    1cf6:	24 89       	ldd	r18, Z+20	; 0x14
    1cf8:	35 89       	ldd	r19, Z+21	; 0x15
    1cfa:	8a 81       	ldd	r24, Y+2	; 0x02
    1cfc:	9b 81       	ldd	r25, Y+3	; 0x03
    1cfe:	4b e0       	ldi	r20, 0x0B	; 11
    1d00:	50 e0       	ldi	r21, 0x00	; 0
    1d02:	b9 01       	movw	r22, r18
    1d04:	0e 94 67 03 	call	0x6ce	; 0x6ce <mem_cmp>
    1d08:	89 2b       	or	r24, r25
    1d0a:	71 f0       	breq	.+28     	; 0x1d28 <dir_find+0xc6>
    1d0c:	8d 81       	ldd	r24, Y+5	; 0x05
    1d0e:	9e 81       	ldd	r25, Y+6	; 0x06
    1d10:	60 e0       	ldi	r22, 0x00	; 0
    1d12:	70 e0       	ldi	r23, 0x00	; 0
    1d14:	0e 94 61 0c 	call	0x18c2	; 0x18c2 <dir_next>
    1d18:	89 83       	std	Y+1, r24	; 0x01
    1d1a:	89 81       	ldd	r24, Y+1	; 0x01
    1d1c:	88 23       	and	r24, r24
    1d1e:	09 f4       	brne	.+2      	; 0x1d22 <dir_find+0xc0>
    1d20:	b5 cf       	rjmp	.-150    	; 0x1c8c <dir_find+0x2a>
    1d22:	03 c0       	rjmp	.+6      	; 0x1d2a <dir_find+0xc8>
    1d24:	00 00       	nop
    1d26:	01 c0       	rjmp	.+2      	; 0x1d2a <dir_find+0xc8>
    1d28:	00 00       	nop
    1d2a:	89 81       	ldd	r24, Y+1	; 0x01
    1d2c:	26 96       	adiw	r28, 0x06	; 6
    1d2e:	0f b6       	in	r0, 0x3f	; 63
    1d30:	f8 94       	cli
    1d32:	de bf       	out	0x3e, r29	; 62
    1d34:	0f be       	out	0x3f, r0	; 63
    1d36:	cd bf       	out	0x3d, r28	; 61
    1d38:	df 91       	pop	r29
    1d3a:	cf 91       	pop	r28
    1d3c:	08 95       	ret

00001d3e <dir_register>:
    1d3e:	cf 93       	push	r28
    1d40:	df 93       	push	r29
    1d42:	00 d0       	rcall	.+0      	; 0x1d44 <dir_register+0x6>
    1d44:	00 d0       	rcall	.+0      	; 0x1d46 <dir_register+0x8>
    1d46:	00 d0       	rcall	.+0      	; 0x1d48 <dir_register+0xa>
    1d48:	cd b7       	in	r28, 0x3d	; 61
    1d4a:	de b7       	in	r29, 0x3e	; 62
    1d4c:	9e 83       	std	Y+6, r25	; 0x06
    1d4e:	8d 83       	std	Y+5, r24	; 0x05
    1d50:	8d 81       	ldd	r24, Y+5	; 0x05
    1d52:	9e 81       	ldd	r25, Y+6	; 0x06
    1d54:	60 e0       	ldi	r22, 0x00	; 0
    1d56:	70 e0       	ldi	r23, 0x00	; 0
    1d58:	0e 94 0c 0b 	call	0x1618	; 0x1618 <dir_sdi>
    1d5c:	89 83       	std	Y+1, r24	; 0x01
    1d5e:	89 81       	ldd	r24, Y+1	; 0x01
    1d60:	88 23       	and	r24, r24
    1d62:	79 f5       	brne	.+94     	; 0x1dc2 <dir_register+0x84>
    1d64:	8d 81       	ldd	r24, Y+5	; 0x05
    1d66:	9e 81       	ldd	r25, Y+6	; 0x06
    1d68:	fc 01       	movw	r30, r24
    1d6a:	86 85       	ldd	r24, Z+14	; 0x0e
    1d6c:	97 85       	ldd	r25, Z+15	; 0x0f
    1d6e:	a0 89       	ldd	r26, Z+16	; 0x10
    1d70:	b1 89       	ldd	r27, Z+17	; 0x11
    1d72:	2d 81       	ldd	r18, Y+5	; 0x05
    1d74:	3e 81       	ldd	r19, Y+6	; 0x06
    1d76:	f9 01       	movw	r30, r18
    1d78:	20 81       	ld	r18, Z
    1d7a:	31 81       	ldd	r19, Z+1	; 0x01
    1d7c:	ac 01       	movw	r20, r24
    1d7e:	bd 01       	movw	r22, r26
    1d80:	c9 01       	movw	r24, r18
    1d82:	0e 94 e4 03 	call	0x7c8	; 0x7c8 <move_window>
    1d86:	89 83       	std	Y+1, r24	; 0x01
    1d88:	89 81       	ldd	r24, Y+1	; 0x01
    1d8a:	88 23       	and	r24, r24
    1d8c:	c9 f4       	brne	.+50     	; 0x1dc0 <dir_register+0x82>
    1d8e:	8d 81       	ldd	r24, Y+5	; 0x05
    1d90:	9e 81       	ldd	r25, Y+6	; 0x06
    1d92:	fc 01       	movw	r30, r24
    1d94:	82 89       	ldd	r24, Z+18	; 0x12
    1d96:	93 89       	ldd	r25, Z+19	; 0x13
    1d98:	fc 01       	movw	r30, r24
    1d9a:	80 81       	ld	r24, Z
    1d9c:	8a 83       	std	Y+2, r24	; 0x02
    1d9e:	8a 81       	ldd	r24, Y+2	; 0x02
    1da0:	85 3e       	cpi	r24, 0xE5	; 229
    1da2:	79 f0       	breq	.+30     	; 0x1dc2 <dir_register+0x84>
    1da4:	8a 81       	ldd	r24, Y+2	; 0x02
    1da6:	88 23       	and	r24, r24
    1da8:	61 f0       	breq	.+24     	; 0x1dc2 <dir_register+0x84>
    1daa:	8d 81       	ldd	r24, Y+5	; 0x05
    1dac:	9e 81       	ldd	r25, Y+6	; 0x06
    1dae:	61 e0       	ldi	r22, 0x01	; 1
    1db0:	70 e0       	ldi	r23, 0x00	; 0
    1db2:	0e 94 61 0c 	call	0x18c2	; 0x18c2 <dir_next>
    1db6:	89 83       	std	Y+1, r24	; 0x01
    1db8:	89 81       	ldd	r24, Y+1	; 0x01
    1dba:	88 23       	and	r24, r24
    1dbc:	99 f2       	breq	.-90     	; 0x1d64 <dir_register+0x26>
    1dbe:	01 c0       	rjmp	.+2      	; 0x1dc2 <dir_register+0x84>
    1dc0:	00 00       	nop
    1dc2:	89 81       	ldd	r24, Y+1	; 0x01
    1dc4:	88 23       	and	r24, r24
    1dc6:	c1 f5       	brne	.+112    	; 0x1e38 <dir_register+0xfa>
    1dc8:	8d 81       	ldd	r24, Y+5	; 0x05
    1dca:	9e 81       	ldd	r25, Y+6	; 0x06
    1dcc:	fc 01       	movw	r30, r24
    1dce:	86 85       	ldd	r24, Z+14	; 0x0e
    1dd0:	97 85       	ldd	r25, Z+15	; 0x0f
    1dd2:	a0 89       	ldd	r26, Z+16	; 0x10
    1dd4:	b1 89       	ldd	r27, Z+17	; 0x11
    1dd6:	2d 81       	ldd	r18, Y+5	; 0x05
    1dd8:	3e 81       	ldd	r19, Y+6	; 0x06
    1dda:	f9 01       	movw	r30, r18
    1ddc:	20 81       	ld	r18, Z
    1dde:	31 81       	ldd	r19, Z+1	; 0x01
    1de0:	ac 01       	movw	r20, r24
    1de2:	bd 01       	movw	r22, r26
    1de4:	c9 01       	movw	r24, r18
    1de6:	0e 94 e4 03 	call	0x7c8	; 0x7c8 <move_window>
    1dea:	89 83       	std	Y+1, r24	; 0x01
    1dec:	89 81       	ldd	r24, Y+1	; 0x01
    1dee:	88 23       	and	r24, r24
    1df0:	19 f5       	brne	.+70     	; 0x1e38 <dir_register+0xfa>
    1df2:	8d 81       	ldd	r24, Y+5	; 0x05
    1df4:	9e 81       	ldd	r25, Y+6	; 0x06
    1df6:	fc 01       	movw	r30, r24
    1df8:	82 89       	ldd	r24, Z+18	; 0x12
    1dfa:	93 89       	ldd	r25, Z+19	; 0x13
    1dfc:	9c 83       	std	Y+4, r25	; 0x04
    1dfe:	8b 83       	std	Y+3, r24	; 0x03
    1e00:	8b 81       	ldd	r24, Y+3	; 0x03
    1e02:	9c 81       	ldd	r25, Y+4	; 0x04
    1e04:	40 e2       	ldi	r20, 0x20	; 32
    1e06:	50 e0       	ldi	r21, 0x00	; 0
    1e08:	60 e0       	ldi	r22, 0x00	; 0
    1e0a:	70 e0       	ldi	r23, 0x00	; 0
    1e0c:	0e 94 35 03 	call	0x66a	; 0x66a <mem_set>
    1e10:	8d 81       	ldd	r24, Y+5	; 0x05
    1e12:	9e 81       	ldd	r25, Y+6	; 0x06
    1e14:	fc 01       	movw	r30, r24
    1e16:	24 89       	ldd	r18, Z+20	; 0x14
    1e18:	35 89       	ldd	r19, Z+21	; 0x15
    1e1a:	8b 81       	ldd	r24, Y+3	; 0x03
    1e1c:	9c 81       	ldd	r25, Y+4	; 0x04
    1e1e:	4b e0       	ldi	r20, 0x0B	; 11
    1e20:	50 e0       	ldi	r21, 0x00	; 0
    1e22:	b9 01       	movw	r22, r18
    1e24:	0e 94 d9 02 	call	0x5b2	; 0x5b2 <mem_cpy>
    1e28:	8d 81       	ldd	r24, Y+5	; 0x05
    1e2a:	9e 81       	ldd	r25, Y+6	; 0x06
    1e2c:	fc 01       	movw	r30, r24
    1e2e:	80 81       	ld	r24, Z
    1e30:	91 81       	ldd	r25, Z+1	; 0x01
    1e32:	21 e0       	ldi	r18, 0x01	; 1
    1e34:	fc 01       	movw	r30, r24
    1e36:	24 83       	std	Z+4, r18	; 0x04
    1e38:	89 81       	ldd	r24, Y+1	; 0x01
    1e3a:	26 96       	adiw	r28, 0x06	; 6
    1e3c:	0f b6       	in	r0, 0x3f	; 63
    1e3e:	f8 94       	cli
    1e40:	de bf       	out	0x3e, r29	; 62
    1e42:	0f be       	out	0x3f, r0	; 63
    1e44:	cd bf       	out	0x3d, r28	; 61
    1e46:	df 91       	pop	r29
    1e48:	cf 91       	pop	r28
    1e4a:	08 95       	ret

00001e4c <create_name>:
    1e4c:	cf 93       	push	r28
    1e4e:	df 93       	push	r29
    1e50:	cd b7       	in	r28, 0x3d	; 61
    1e52:	de b7       	in	r29, 0x3e	; 62
    1e54:	60 97       	sbiw	r28, 0x10	; 16
    1e56:	0f b6       	in	r0, 0x3f	; 63
    1e58:	f8 94       	cli
    1e5a:	de bf       	out	0x3e, r29	; 62
    1e5c:	0f be       	out	0x3f, r0	; 63
    1e5e:	cd bf       	out	0x3d, r28	; 61
    1e60:	9e 87       	std	Y+14, r25	; 0x0e
    1e62:	8d 87       	std	Y+13, r24	; 0x0d
    1e64:	78 8b       	std	Y+16, r23	; 0x10
    1e66:	6f 87       	std	Y+15, r22	; 0x0f
    1e68:	8d 85       	ldd	r24, Y+13	; 0x0d
    1e6a:	9e 85       	ldd	r25, Y+14	; 0x0e
    1e6c:	fc 01       	movw	r30, r24
    1e6e:	84 89       	ldd	r24, Z+20	; 0x14
    1e70:	95 89       	ldd	r25, Z+21	; 0x15
    1e72:	9a 87       	std	Y+10, r25	; 0x0a
    1e74:	89 87       	std	Y+9, r24	; 0x09
    1e76:	89 85       	ldd	r24, Y+9	; 0x09
    1e78:	9a 85       	ldd	r25, Y+10	; 0x0a
    1e7a:	4b e0       	ldi	r20, 0x0B	; 11
    1e7c:	50 e0       	ldi	r21, 0x00	; 0
    1e7e:	60 e2       	ldi	r22, 0x20	; 32
    1e80:	70 e0       	ldi	r23, 0x00	; 0
    1e82:	0e 94 35 03 	call	0x66a	; 0x66a <mem_set>
    1e86:	19 82       	std	Y+1, r1	; 0x01
    1e88:	18 86       	std	Y+8, r1	; 0x08
    1e8a:	1f 82       	std	Y+7, r1	; 0x07
    1e8c:	8f 81       	ldd	r24, Y+7	; 0x07
    1e8e:	98 85       	ldd	r25, Y+8	; 0x08
    1e90:	9e 83       	std	Y+6, r25	; 0x06
    1e92:	8d 83       	std	Y+5, r24	; 0x05
    1e94:	88 e0       	ldi	r24, 0x08	; 8
    1e96:	90 e0       	ldi	r25, 0x00	; 0
    1e98:	9c 83       	std	Y+4, r25	; 0x04
    1e9a:	8b 83       	std	Y+3, r24	; 0x03
    1e9c:	8f 85       	ldd	r24, Y+15	; 0x0f
    1e9e:	98 89       	ldd	r25, Y+16	; 0x10
    1ea0:	fc 01       	movw	r30, r24
    1ea2:	80 81       	ld	r24, Z
    1ea4:	91 81       	ldd	r25, Z+1	; 0x01
    1ea6:	9c 87       	std	Y+12, r25	; 0x0c
    1ea8:	8b 87       	std	Y+11, r24	; 0x0b
    1eaa:	2b 85       	ldd	r18, Y+11	; 0x0b
    1eac:	3c 85       	ldd	r19, Y+12	; 0x0c
    1eae:	8d 81       	ldd	r24, Y+5	; 0x05
    1eb0:	9e 81       	ldd	r25, Y+6	; 0x06
    1eb2:	82 0f       	add	r24, r18
    1eb4:	93 1f       	adc	r25, r19
    1eb6:	fc 01       	movw	r30, r24
    1eb8:	80 81       	ld	r24, Z
    1eba:	8e 32       	cpi	r24, 0x2E	; 46
    1ebc:	09 f0       	breq	.+2      	; 0x1ec0 <create_name+0x74>
    1ebe:	47 c0       	rjmp	.+142    	; 0x1f4e <create_name+0x102>
    1ec0:	8d 81       	ldd	r24, Y+5	; 0x05
    1ec2:	9e 81       	ldd	r25, Y+6	; 0x06
    1ec4:	9c 01       	movw	r18, r24
    1ec6:	2f 5f       	subi	r18, 0xFF	; 255
    1ec8:	3f 4f       	sbci	r19, 0xFF	; 255
    1eca:	3e 83       	std	Y+6, r19	; 0x06
    1ecc:	2d 83       	std	Y+5, r18	; 0x05
    1ece:	2b 85       	ldd	r18, Y+11	; 0x0b
    1ed0:	3c 85       	ldd	r19, Y+12	; 0x0c
    1ed2:	82 0f       	add	r24, r18
    1ed4:	93 1f       	adc	r25, r19
    1ed6:	fc 01       	movw	r30, r24
    1ed8:	80 81       	ld	r24, Z
    1eda:	8a 83       	std	Y+2, r24	; 0x02
    1edc:	8a 81       	ldd	r24, Y+2	; 0x02
    1ede:	8e 32       	cpi	r24, 0x2E	; 46
    1ee0:	99 f4       	brne	.+38     	; 0x1f08 <create_name+0xbc>
    1ee2:	8d 81       	ldd	r24, Y+5	; 0x05
    1ee4:	9e 81       	ldd	r25, Y+6	; 0x06
    1ee6:	03 97       	sbiw	r24, 0x03	; 3
    1ee8:	78 f4       	brcc	.+30     	; 0x1f08 <create_name+0xbc>
    1eea:	8f 81       	ldd	r24, Y+7	; 0x07
    1eec:	98 85       	ldd	r25, Y+8	; 0x08
    1eee:	9c 01       	movw	r18, r24
    1ef0:	2f 5f       	subi	r18, 0xFF	; 255
    1ef2:	3f 4f       	sbci	r19, 0xFF	; 255
    1ef4:	38 87       	std	Y+8, r19	; 0x08
    1ef6:	2f 83       	std	Y+7, r18	; 0x07
    1ef8:	29 85       	ldd	r18, Y+9	; 0x09
    1efa:	3a 85       	ldd	r19, Y+10	; 0x0a
    1efc:	82 0f       	add	r24, r18
    1efe:	93 1f       	adc	r25, r19
    1f00:	2a 81       	ldd	r18, Y+2	; 0x02
    1f02:	fc 01       	movw	r30, r24
    1f04:	20 83       	st	Z, r18
    1f06:	dc cf       	rjmp	.-72     	; 0x1ec0 <create_name+0x74>
    1f08:	8a 81       	ldd	r24, Y+2	; 0x02
    1f0a:	8f 32       	cpi	r24, 0x2F	; 47
    1f0c:	41 f0       	breq	.+16     	; 0x1f1e <create_name+0xd2>
    1f0e:	8a 81       	ldd	r24, Y+2	; 0x02
    1f10:	8c 35       	cpi	r24, 0x5C	; 92
    1f12:	29 f0       	breq	.+10     	; 0x1f1e <create_name+0xd2>
    1f14:	8a 81       	ldd	r24, Y+2	; 0x02
    1f16:	81 32       	cpi	r24, 0x21	; 33
    1f18:	10 f0       	brcs	.+4      	; 0x1f1e <create_name+0xd2>
    1f1a:	86 e0       	ldi	r24, 0x06	; 6
    1f1c:	d9 c0       	rjmp	.+434    	; 0x20d0 <create_name+0x284>
    1f1e:	2b 85       	ldd	r18, Y+11	; 0x0b
    1f20:	3c 85       	ldd	r19, Y+12	; 0x0c
    1f22:	8d 81       	ldd	r24, Y+5	; 0x05
    1f24:	9e 81       	ldd	r25, Y+6	; 0x06
    1f26:	28 0f       	add	r18, r24
    1f28:	39 1f       	adc	r19, r25
    1f2a:	8f 85       	ldd	r24, Y+15	; 0x0f
    1f2c:	98 89       	ldd	r25, Y+16	; 0x10
    1f2e:	fc 01       	movw	r30, r24
    1f30:	31 83       	std	Z+1, r19	; 0x01
    1f32:	20 83       	st	Z, r18
    1f34:	89 85       	ldd	r24, Y+9	; 0x09
    1f36:	9a 85       	ldd	r25, Y+10	; 0x0a
    1f38:	0b 96       	adiw	r24, 0x0b	; 11
    1f3a:	2a 81       	ldd	r18, Y+2	; 0x02
    1f3c:	21 32       	cpi	r18, 0x21	; 33
    1f3e:	10 f4       	brcc	.+4      	; 0x1f44 <create_name+0xf8>
    1f40:	24 e2       	ldi	r18, 0x24	; 36
    1f42:	01 c0       	rjmp	.+2      	; 0x1f46 <create_name+0xfa>
    1f44:	20 e2       	ldi	r18, 0x20	; 32
    1f46:	fc 01       	movw	r30, r24
    1f48:	20 83       	st	Z, r18
    1f4a:	80 e0       	ldi	r24, 0x00	; 0
    1f4c:	c1 c0       	rjmp	.+386    	; 0x20d0 <create_name+0x284>
    1f4e:	8d 81       	ldd	r24, Y+5	; 0x05
    1f50:	9e 81       	ldd	r25, Y+6	; 0x06
    1f52:	9c 01       	movw	r18, r24
    1f54:	2f 5f       	subi	r18, 0xFF	; 255
    1f56:	3f 4f       	sbci	r19, 0xFF	; 255
    1f58:	3e 83       	std	Y+6, r19	; 0x06
    1f5a:	2d 83       	std	Y+5, r18	; 0x05
    1f5c:	2b 85       	ldd	r18, Y+11	; 0x0b
    1f5e:	3c 85       	ldd	r19, Y+12	; 0x0c
    1f60:	82 0f       	add	r24, r18
    1f62:	93 1f       	adc	r25, r19
    1f64:	fc 01       	movw	r30, r24
    1f66:	80 81       	ld	r24, Z
    1f68:	8a 83       	std	Y+2, r24	; 0x02
    1f6a:	8a 81       	ldd	r24, Y+2	; 0x02
    1f6c:	81 32       	cpi	r24, 0x21	; 33
    1f6e:	08 f4       	brcc	.+2      	; 0x1f72 <create_name+0x126>
    1f70:	69 c0       	rjmp	.+210    	; 0x2044 <create_name+0x1f8>
    1f72:	8a 81       	ldd	r24, Y+2	; 0x02
    1f74:	8f 32       	cpi	r24, 0x2F	; 47
    1f76:	09 f4       	brne	.+2      	; 0x1f7a <create_name+0x12e>
    1f78:	65 c0       	rjmp	.+202    	; 0x2044 <create_name+0x1f8>
    1f7a:	8a 81       	ldd	r24, Y+2	; 0x02
    1f7c:	8c 35       	cpi	r24, 0x5C	; 92
    1f7e:	09 f4       	brne	.+2      	; 0x1f82 <create_name+0x136>
    1f80:	61 c0       	rjmp	.+194    	; 0x2044 <create_name+0x1f8>
    1f82:	8a 81       	ldd	r24, Y+2	; 0x02
    1f84:	8e 32       	cpi	r24, 0x2E	; 46
    1f86:	39 f0       	breq	.+14     	; 0x1f96 <create_name+0x14a>
    1f88:	2f 81       	ldd	r18, Y+7	; 0x07
    1f8a:	38 85       	ldd	r19, Y+8	; 0x08
    1f8c:	8b 81       	ldd	r24, Y+3	; 0x03
    1f8e:	9c 81       	ldd	r25, Y+4	; 0x04
    1f90:	28 17       	cp	r18, r24
    1f92:	39 07       	cpc	r19, r25
    1f94:	b0 f0       	brcs	.+44     	; 0x1fc2 <create_name+0x176>
    1f96:	8b 81       	ldd	r24, Y+3	; 0x03
    1f98:	9c 81       	ldd	r25, Y+4	; 0x04
    1f9a:	08 97       	sbiw	r24, 0x08	; 8
    1f9c:	19 f4       	brne	.+6      	; 0x1fa4 <create_name+0x158>
    1f9e:	8a 81       	ldd	r24, Y+2	; 0x02
    1fa0:	8e 32       	cpi	r24, 0x2E	; 46
    1fa2:	11 f0       	breq	.+4      	; 0x1fa8 <create_name+0x15c>
    1fa4:	86 e0       	ldi	r24, 0x06	; 6
    1fa6:	94 c0       	rjmp	.+296    	; 0x20d0 <create_name+0x284>
    1fa8:	88 e0       	ldi	r24, 0x08	; 8
    1faa:	90 e0       	ldi	r25, 0x00	; 0
    1fac:	98 87       	std	Y+8, r25	; 0x08
    1fae:	8f 83       	std	Y+7, r24	; 0x07
    1fb0:	8b e0       	ldi	r24, 0x0B	; 11
    1fb2:	90 e0       	ldi	r25, 0x00	; 0
    1fb4:	9c 83       	std	Y+4, r25	; 0x04
    1fb6:	8b 83       	std	Y+3, r24	; 0x03
    1fb8:	89 81       	ldd	r24, Y+1	; 0x01
    1fba:	88 0f       	add	r24, r24
    1fbc:	88 0f       	add	r24, r24
    1fbe:	89 83       	std	Y+1, r24	; 0x01
    1fc0:	40 c0       	rjmp	.+128    	; 0x2042 <create_name+0x1f6>
    1fc2:	8a 81       	ldd	r24, Y+2	; 0x02
    1fc4:	88 23       	and	r24, r24
    1fc6:	6c f4       	brge	.+26     	; 0x1fe2 <create_name+0x196>
    1fc8:	89 81       	ldd	r24, Y+1	; 0x01
    1fca:	83 60       	ori	r24, 0x03	; 3
    1fcc:	89 83       	std	Y+1, r24	; 0x01
    1fce:	8a 81       	ldd	r24, Y+2	; 0x02
    1fd0:	88 2f       	mov	r24, r24
    1fd2:	90 e0       	ldi	r25, 0x00	; 0
    1fd4:	80 58       	subi	r24, 0x80	; 128
    1fd6:	91 09       	sbc	r25, r1
    1fd8:	86 5f       	subi	r24, 0xF6	; 246
    1fda:	9e 4f       	sbci	r25, 0xFE	; 254
    1fdc:	fc 01       	movw	r30, r24
    1fde:	80 81       	ld	r24, Z
    1fe0:	8a 83       	std	Y+2, r24	; 0x02
    1fe2:	8a 81       	ldd	r24, Y+2	; 0x02
    1fe4:	88 2f       	mov	r24, r24
    1fe6:	90 e0       	ldi	r25, 0x00	; 0
    1fe8:	bc 01       	movw	r22, r24
    1fea:	81 e6       	ldi	r24, 0x61	; 97
    1fec:	90 e0       	ldi	r25, 0x00	; 0
    1fee:	0e 94 b6 03 	call	0x76c	; 0x76c <chk_chr>
    1ff2:	89 2b       	or	r24, r25
    1ff4:	11 f0       	breq	.+4      	; 0x1ffa <create_name+0x1ae>
    1ff6:	86 e0       	ldi	r24, 0x06	; 6
    1ff8:	6b c0       	rjmp	.+214    	; 0x20d0 <create_name+0x284>
    1ffa:	8a 81       	ldd	r24, Y+2	; 0x02
    1ffc:	81 34       	cpi	r24, 0x41	; 65
    1ffe:	38 f0       	brcs	.+14     	; 0x200e <create_name+0x1c2>
    2000:	8a 81       	ldd	r24, Y+2	; 0x02
    2002:	8b 35       	cpi	r24, 0x5B	; 91
    2004:	20 f4       	brcc	.+8      	; 0x200e <create_name+0x1c2>
    2006:	89 81       	ldd	r24, Y+1	; 0x01
    2008:	82 60       	ori	r24, 0x02	; 2
    200a:	89 83       	std	Y+1, r24	; 0x01
    200c:	0c c0       	rjmp	.+24     	; 0x2026 <create_name+0x1da>
    200e:	8a 81       	ldd	r24, Y+2	; 0x02
    2010:	81 36       	cpi	r24, 0x61	; 97
    2012:	48 f0       	brcs	.+18     	; 0x2026 <create_name+0x1da>
    2014:	8a 81       	ldd	r24, Y+2	; 0x02
    2016:	8b 37       	cpi	r24, 0x7B	; 123
    2018:	30 f4       	brcc	.+12     	; 0x2026 <create_name+0x1da>
    201a:	89 81       	ldd	r24, Y+1	; 0x01
    201c:	81 60       	ori	r24, 0x01	; 1
    201e:	89 83       	std	Y+1, r24	; 0x01
    2020:	8a 81       	ldd	r24, Y+2	; 0x02
    2022:	80 52       	subi	r24, 0x20	; 32
    2024:	8a 83       	std	Y+2, r24	; 0x02
    2026:	8f 81       	ldd	r24, Y+7	; 0x07
    2028:	98 85       	ldd	r25, Y+8	; 0x08
    202a:	9c 01       	movw	r18, r24
    202c:	2f 5f       	subi	r18, 0xFF	; 255
    202e:	3f 4f       	sbci	r19, 0xFF	; 255
    2030:	38 87       	std	Y+8, r19	; 0x08
    2032:	2f 83       	std	Y+7, r18	; 0x07
    2034:	29 85       	ldd	r18, Y+9	; 0x09
    2036:	3a 85       	ldd	r19, Y+10	; 0x0a
    2038:	82 0f       	add	r24, r18
    203a:	93 1f       	adc	r25, r19
    203c:	2a 81       	ldd	r18, Y+2	; 0x02
    203e:	fc 01       	movw	r30, r24
    2040:	20 83       	st	Z, r18
    2042:	85 cf       	rjmp	.-246    	; 0x1f4e <create_name+0x102>
    2044:	2b 85       	ldd	r18, Y+11	; 0x0b
    2046:	3c 85       	ldd	r19, Y+12	; 0x0c
    2048:	8d 81       	ldd	r24, Y+5	; 0x05
    204a:	9e 81       	ldd	r25, Y+6	; 0x06
    204c:	28 0f       	add	r18, r24
    204e:	39 1f       	adc	r19, r25
    2050:	8f 85       	ldd	r24, Y+15	; 0x0f
    2052:	98 89       	ldd	r25, Y+16	; 0x10
    2054:	fc 01       	movw	r30, r24
    2056:	31 83       	std	Z+1, r19	; 0x01
    2058:	20 83       	st	Z, r18
    205a:	8a 81       	ldd	r24, Y+2	; 0x02
    205c:	81 32       	cpi	r24, 0x21	; 33
    205e:	10 f4       	brcc	.+4      	; 0x2064 <create_name+0x218>
    2060:	84 e0       	ldi	r24, 0x04	; 4
    2062:	01 c0       	rjmp	.+2      	; 0x2066 <create_name+0x21a>
    2064:	80 e0       	ldi	r24, 0x00	; 0
    2066:	8a 83       	std	Y+2, r24	; 0x02
    2068:	8f 81       	ldd	r24, Y+7	; 0x07
    206a:	98 85       	ldd	r25, Y+8	; 0x08
    206c:	89 2b       	or	r24, r25
    206e:	11 f4       	brne	.+4      	; 0x2074 <create_name+0x228>
    2070:	86 e0       	ldi	r24, 0x06	; 6
    2072:	2e c0       	rjmp	.+92     	; 0x20d0 <create_name+0x284>
    2074:	89 85       	ldd	r24, Y+9	; 0x09
    2076:	9a 85       	ldd	r25, Y+10	; 0x0a
    2078:	fc 01       	movw	r30, r24
    207a:	80 81       	ld	r24, Z
    207c:	85 3e       	cpi	r24, 0xE5	; 229
    207e:	29 f4       	brne	.+10     	; 0x208a <create_name+0x23e>
    2080:	89 85       	ldd	r24, Y+9	; 0x09
    2082:	9a 85       	ldd	r25, Y+10	; 0x0a
    2084:	25 e0       	ldi	r18, 0x05	; 5
    2086:	fc 01       	movw	r30, r24
    2088:	20 83       	st	Z, r18
    208a:	8b 81       	ldd	r24, Y+3	; 0x03
    208c:	9c 81       	ldd	r25, Y+4	; 0x04
    208e:	08 97       	sbiw	r24, 0x08	; 8
    2090:	21 f4       	brne	.+8      	; 0x209a <create_name+0x24e>
    2092:	89 81       	ldd	r24, Y+1	; 0x01
    2094:	88 0f       	add	r24, r24
    2096:	88 0f       	add	r24, r24
    2098:	89 83       	std	Y+1, r24	; 0x01
    209a:	89 81       	ldd	r24, Y+1	; 0x01
    209c:	88 2f       	mov	r24, r24
    209e:	90 e0       	ldi	r25, 0x00	; 0
    20a0:	83 70       	andi	r24, 0x03	; 3
    20a2:	99 27       	eor	r25, r25
    20a4:	01 97       	sbiw	r24, 0x01	; 1
    20a6:	19 f4       	brne	.+6      	; 0x20ae <create_name+0x262>
    20a8:	8a 81       	ldd	r24, Y+2	; 0x02
    20aa:	80 61       	ori	r24, 0x10	; 16
    20ac:	8a 83       	std	Y+2, r24	; 0x02
    20ae:	89 81       	ldd	r24, Y+1	; 0x01
    20b0:	88 2f       	mov	r24, r24
    20b2:	90 e0       	ldi	r25, 0x00	; 0
    20b4:	8c 70       	andi	r24, 0x0C	; 12
    20b6:	99 27       	eor	r25, r25
    20b8:	04 97       	sbiw	r24, 0x04	; 4
    20ba:	19 f4       	brne	.+6      	; 0x20c2 <create_name+0x276>
    20bc:	8a 81       	ldd	r24, Y+2	; 0x02
    20be:	88 60       	ori	r24, 0x08	; 8
    20c0:	8a 83       	std	Y+2, r24	; 0x02
    20c2:	89 85       	ldd	r24, Y+9	; 0x09
    20c4:	9a 85       	ldd	r25, Y+10	; 0x0a
    20c6:	0b 96       	adiw	r24, 0x0b	; 11
    20c8:	2a 81       	ldd	r18, Y+2	; 0x02
    20ca:	fc 01       	movw	r30, r24
    20cc:	20 83       	st	Z, r18
    20ce:	80 e0       	ldi	r24, 0x00	; 0
    20d0:	60 96       	adiw	r28, 0x10	; 16
    20d2:	0f b6       	in	r0, 0x3f	; 63
    20d4:	f8 94       	cli
    20d6:	de bf       	out	0x3e, r29	; 62
    20d8:	0f be       	out	0x3f, r0	; 63
    20da:	cd bf       	out	0x3d, r28	; 61
    20dc:	df 91       	pop	r29
    20de:	cf 91       	pop	r28
    20e0:	08 95       	ret

000020e2 <follow_path>:
    20e2:	cf 93       	push	r28
    20e4:	df 93       	push	r29
    20e6:	cd b7       	in	r28, 0x3d	; 61
    20e8:	de b7       	in	r29, 0x3e	; 62
    20ea:	28 97       	sbiw	r28, 0x08	; 8
    20ec:	0f b6       	in	r0, 0x3f	; 63
    20ee:	f8 94       	cli
    20f0:	de bf       	out	0x3e, r29	; 62
    20f2:	0f be       	out	0x3f, r0	; 63
    20f4:	cd bf       	out	0x3d, r28	; 61
    20f6:	9e 83       	std	Y+6, r25	; 0x06
    20f8:	8d 83       	std	Y+5, r24	; 0x05
    20fa:	78 87       	std	Y+8, r23	; 0x08
    20fc:	6f 83       	std	Y+7, r22	; 0x07
    20fe:	8f 81       	ldd	r24, Y+7	; 0x07
    2100:	98 85       	ldd	r25, Y+8	; 0x08
    2102:	fc 01       	movw	r30, r24
    2104:	80 81       	ld	r24, Z
    2106:	8f 32       	cpi	r24, 0x2F	; 47
    2108:	31 f0       	breq	.+12     	; 0x2116 <follow_path+0x34>
    210a:	8f 81       	ldd	r24, Y+7	; 0x07
    210c:	98 85       	ldd	r25, Y+8	; 0x08
    210e:	fc 01       	movw	r30, r24
    2110:	80 81       	ld	r24, Z
    2112:	8c 35       	cpi	r24, 0x5C	; 92
    2114:	69 f4       	brne	.+26     	; 0x2130 <follow_path+0x4e>
    2116:	8f 81       	ldd	r24, Y+7	; 0x07
    2118:	98 85       	ldd	r25, Y+8	; 0x08
    211a:	01 96       	adiw	r24, 0x01	; 1
    211c:	98 87       	std	Y+8, r25	; 0x08
    211e:	8f 83       	std	Y+7, r24	; 0x07
    2120:	8d 81       	ldd	r24, Y+5	; 0x05
    2122:	9e 81       	ldd	r25, Y+6	; 0x06
    2124:	fc 01       	movw	r30, r24
    2126:	16 82       	std	Z+6, r1	; 0x06
    2128:	17 82       	std	Z+7, r1	; 0x07
    212a:	10 86       	std	Z+8, r1	; 0x08
    212c:	11 86       	std	Z+9, r1	; 0x09
    212e:	11 c0       	rjmp	.+34     	; 0x2152 <follow_path+0x70>
    2130:	8d 81       	ldd	r24, Y+5	; 0x05
    2132:	9e 81       	ldd	r25, Y+6	; 0x06
    2134:	fc 01       	movw	r30, r24
    2136:	80 81       	ld	r24, Z
    2138:	91 81       	ldd	r25, Z+1	; 0x01
    213a:	fc 01       	movw	r30, r24
    213c:	86 89       	ldd	r24, Z+22	; 0x16
    213e:	97 89       	ldd	r25, Z+23	; 0x17
    2140:	a0 8d       	ldd	r26, Z+24	; 0x18
    2142:	b1 8d       	ldd	r27, Z+25	; 0x19
    2144:	2d 81       	ldd	r18, Y+5	; 0x05
    2146:	3e 81       	ldd	r19, Y+6	; 0x06
    2148:	f9 01       	movw	r30, r18
    214a:	86 83       	std	Z+6, r24	; 0x06
    214c:	97 83       	std	Z+7, r25	; 0x07
    214e:	a0 87       	std	Z+8, r26	; 0x08
    2150:	b1 87       	std	Z+9, r27	; 0x09
    2152:	8f 81       	ldd	r24, Y+7	; 0x07
    2154:	98 85       	ldd	r25, Y+8	; 0x08
    2156:	fc 01       	movw	r30, r24
    2158:	80 81       	ld	r24, Z
    215a:	80 32       	cpi	r24, 0x20	; 32
    215c:	68 f4       	brcc	.+26     	; 0x2178 <follow_path+0x96>
    215e:	8d 81       	ldd	r24, Y+5	; 0x05
    2160:	9e 81       	ldd	r25, Y+6	; 0x06
    2162:	60 e0       	ldi	r22, 0x00	; 0
    2164:	70 e0       	ldi	r23, 0x00	; 0
    2166:	0e 94 0c 0b 	call	0x1618	; 0x1618 <dir_sdi>
    216a:	89 83       	std	Y+1, r24	; 0x01
    216c:	8d 81       	ldd	r24, Y+5	; 0x05
    216e:	9e 81       	ldd	r25, Y+6	; 0x06
    2170:	fc 01       	movw	r30, r24
    2172:	13 8a       	std	Z+19, r1	; 0x13
    2174:	12 8a       	std	Z+18, r1	; 0x12
    2176:	8d c0       	rjmp	.+282    	; 0x2292 <follow_path+0x1b0>
    2178:	9e 01       	movw	r18, r28
    217a:	29 5f       	subi	r18, 0xF9	; 249
    217c:	3f 4f       	sbci	r19, 0xFF	; 255
    217e:	8d 81       	ldd	r24, Y+5	; 0x05
    2180:	9e 81       	ldd	r25, Y+6	; 0x06
    2182:	b9 01       	movw	r22, r18
    2184:	0e 94 26 0f 	call	0x1e4c	; 0x1e4c <create_name>
    2188:	89 83       	std	Y+1, r24	; 0x01
    218a:	89 81       	ldd	r24, Y+1	; 0x01
    218c:	88 23       	and	r24, r24
    218e:	09 f0       	breq	.+2      	; 0x2192 <follow_path+0xb0>
    2190:	79 c0       	rjmp	.+242    	; 0x2284 <follow_path+0x1a2>
    2192:	8d 81       	ldd	r24, Y+5	; 0x05
    2194:	9e 81       	ldd	r25, Y+6	; 0x06
    2196:	0e 94 31 0e 	call	0x1c62	; 0x1c62 <dir_find>
    219a:	89 83       	std	Y+1, r24	; 0x01
    219c:	8d 81       	ldd	r24, Y+5	; 0x05
    219e:	9e 81       	ldd	r25, Y+6	; 0x06
    21a0:	fc 01       	movw	r30, r24
    21a2:	84 89       	ldd	r24, Z+20	; 0x14
    21a4:	95 89       	ldd	r25, Z+21	; 0x15
    21a6:	fc 01       	movw	r30, r24
    21a8:	83 85       	ldd	r24, Z+11	; 0x0b
    21aa:	8a 83       	std	Y+2, r24	; 0x02
    21ac:	89 81       	ldd	r24, Y+1	; 0x01
    21ae:	88 23       	and	r24, r24
    21b0:	61 f1       	breq	.+88     	; 0x220a <follow_path+0x128>
    21b2:	89 81       	ldd	r24, Y+1	; 0x01
    21b4:	84 30       	cpi	r24, 0x04	; 4
    21b6:	09 f0       	breq	.+2      	; 0x21ba <follow_path+0xd8>
    21b8:	67 c0       	rjmp	.+206    	; 0x2288 <follow_path+0x1a6>
    21ba:	8a 81       	ldd	r24, Y+2	; 0x02
    21bc:	88 2f       	mov	r24, r24
    21be:	90 e0       	ldi	r25, 0x00	; 0
    21c0:	80 72       	andi	r24, 0x20	; 32
    21c2:	99 27       	eor	r25, r25
    21c4:	89 2b       	or	r24, r25
    21c6:	b1 f0       	breq	.+44     	; 0x21f4 <follow_path+0x112>
    21c8:	8d 81       	ldd	r24, Y+5	; 0x05
    21ca:	9e 81       	ldd	r25, Y+6	; 0x06
    21cc:	fc 01       	movw	r30, r24
    21ce:	16 82       	std	Z+6, r1	; 0x06
    21d0:	17 82       	std	Z+7, r1	; 0x07
    21d2:	10 86       	std	Z+8, r1	; 0x08
    21d4:	11 86       	std	Z+9, r1	; 0x09
    21d6:	8d 81       	ldd	r24, Y+5	; 0x05
    21d8:	9e 81       	ldd	r25, Y+6	; 0x06
    21da:	fc 01       	movw	r30, r24
    21dc:	13 8a       	std	Z+19, r1	; 0x13
    21de:	12 8a       	std	Z+18, r1	; 0x12
    21e0:	19 82       	std	Y+1, r1	; 0x01
    21e2:	8a 81       	ldd	r24, Y+2	; 0x02
    21e4:	88 2f       	mov	r24, r24
    21e6:	90 e0       	ldi	r25, 0x00	; 0
    21e8:	84 70       	andi	r24, 0x04	; 4
    21ea:	99 27       	eor	r25, r25
    21ec:	89 2b       	or	r24, r25
    21ee:	09 f0       	breq	.+2      	; 0x21f2 <follow_path+0x110>
    21f0:	4d c0       	rjmp	.+154    	; 0x228c <follow_path+0x1aa>
    21f2:	47 c0       	rjmp	.+142    	; 0x2282 <follow_path+0x1a0>
    21f4:	8a 81       	ldd	r24, Y+2	; 0x02
    21f6:	88 2f       	mov	r24, r24
    21f8:	90 e0       	ldi	r25, 0x00	; 0
    21fa:	84 70       	andi	r24, 0x04	; 4
    21fc:	99 27       	eor	r25, r25
    21fe:	89 2b       	or	r24, r25
    2200:	09 f0       	breq	.+2      	; 0x2204 <follow_path+0x122>
    2202:	44 c0       	rjmp	.+136    	; 0x228c <follow_path+0x1aa>
    2204:	85 e0       	ldi	r24, 0x05	; 5
    2206:	89 83       	std	Y+1, r24	; 0x01
    2208:	41 c0       	rjmp	.+130    	; 0x228c <follow_path+0x1aa>
    220a:	8a 81       	ldd	r24, Y+2	; 0x02
    220c:	88 2f       	mov	r24, r24
    220e:	90 e0       	ldi	r25, 0x00	; 0
    2210:	84 70       	andi	r24, 0x04	; 4
    2212:	99 27       	eor	r25, r25
    2214:	89 2b       	or	r24, r25
    2216:	e1 f5       	brne	.+120    	; 0x2290 <follow_path+0x1ae>
    2218:	8d 81       	ldd	r24, Y+5	; 0x05
    221a:	9e 81       	ldd	r25, Y+6	; 0x06
    221c:	fc 01       	movw	r30, r24
    221e:	82 89       	ldd	r24, Z+18	; 0x12
    2220:	93 89       	ldd	r25, Z+19	; 0x13
    2222:	9c 83       	std	Y+4, r25	; 0x04
    2224:	8b 83       	std	Y+3, r24	; 0x03
    2226:	8b 81       	ldd	r24, Y+3	; 0x03
    2228:	9c 81       	ldd	r25, Y+4	; 0x04
    222a:	0b 96       	adiw	r24, 0x0b	; 11
    222c:	fc 01       	movw	r30, r24
    222e:	80 81       	ld	r24, Z
    2230:	88 2f       	mov	r24, r24
    2232:	90 e0       	ldi	r25, 0x00	; 0
    2234:	80 71       	andi	r24, 0x10	; 16
    2236:	99 27       	eor	r25, r25
    2238:	89 2b       	or	r24, r25
    223a:	19 f4       	brne	.+6      	; 0x2242 <follow_path+0x160>
    223c:	85 e0       	ldi	r24, 0x05	; 5
    223e:	89 83       	std	Y+1, r24	; 0x01
    2240:	28 c0       	rjmp	.+80     	; 0x2292 <follow_path+0x1b0>
    2242:	8b 81       	ldd	r24, Y+3	; 0x03
    2244:	9c 81       	ldd	r25, Y+4	; 0x04
    2246:	44 96       	adiw	r24, 0x14	; 20
    2248:	fc 01       	movw	r30, r24
    224a:	80 81       	ld	r24, Z
    224c:	91 81       	ldd	r25, Z+1	; 0x01
    224e:	cc 01       	movw	r24, r24
    2250:	a0 e0       	ldi	r26, 0x00	; 0
    2252:	b0 e0       	ldi	r27, 0x00	; 0
    2254:	ac 01       	movw	r20, r24
    2256:	33 27       	eor	r19, r19
    2258:	22 27       	eor	r18, r18
    225a:	8b 81       	ldd	r24, Y+3	; 0x03
    225c:	9c 81       	ldd	r25, Y+4	; 0x04
    225e:	4a 96       	adiw	r24, 0x1a	; 26
    2260:	fc 01       	movw	r30, r24
    2262:	80 81       	ld	r24, Z
    2264:	91 81       	ldd	r25, Z+1	; 0x01
    2266:	cc 01       	movw	r24, r24
    2268:	a0 e0       	ldi	r26, 0x00	; 0
    226a:	b0 e0       	ldi	r27, 0x00	; 0
    226c:	82 2b       	or	r24, r18
    226e:	93 2b       	or	r25, r19
    2270:	a4 2b       	or	r26, r20
    2272:	b5 2b       	or	r27, r21
    2274:	2d 81       	ldd	r18, Y+5	; 0x05
    2276:	3e 81       	ldd	r19, Y+6	; 0x06
    2278:	f9 01       	movw	r30, r18
    227a:	86 83       	std	Z+6, r24	; 0x06
    227c:	97 83       	std	Z+7, r25	; 0x07
    227e:	a0 87       	std	Z+8, r26	; 0x08
    2280:	b1 87       	std	Z+9, r27	; 0x09
    2282:	7a cf       	rjmp	.-268    	; 0x2178 <follow_path+0x96>
    2284:	00 00       	nop
    2286:	05 c0       	rjmp	.+10     	; 0x2292 <follow_path+0x1b0>
    2288:	00 00       	nop
    228a:	03 c0       	rjmp	.+6      	; 0x2292 <follow_path+0x1b0>
    228c:	00 00       	nop
    228e:	01 c0       	rjmp	.+2      	; 0x2292 <follow_path+0x1b0>
    2290:	00 00       	nop
    2292:	89 81       	ldd	r24, Y+1	; 0x01
    2294:	28 96       	adiw	r28, 0x08	; 8
    2296:	0f b6       	in	r0, 0x3f	; 63
    2298:	f8 94       	cli
    229a:	de bf       	out	0x3e, r29	; 62
    229c:	0f be       	out	0x3f, r0	; 63
    229e:	cd bf       	out	0x3d, r28	; 61
    22a0:	df 91       	pop	r29
    22a2:	cf 91       	pop	r28
    22a4:	08 95       	ret

000022a6 <check_fs>:
    22a6:	0f 93       	push	r16
    22a8:	cf 93       	push	r28
    22aa:	df 93       	push	r29
    22ac:	00 d0       	rcall	.+0      	; 0x22ae <check_fs+0x8>
    22ae:	00 d0       	rcall	.+0      	; 0x22b0 <check_fs+0xa>
    22b0:	00 d0       	rcall	.+0      	; 0x22b2 <check_fs+0xc>
    22b2:	cd b7       	in	r28, 0x3d	; 61
    22b4:	de b7       	in	r29, 0x3e	; 62
    22b6:	9a 83       	std	Y+2, r25	; 0x02
    22b8:	89 83       	std	Y+1, r24	; 0x01
    22ba:	4b 83       	std	Y+3, r20	; 0x03
    22bc:	5c 83       	std	Y+4, r21	; 0x04
    22be:	6d 83       	std	Y+5, r22	; 0x05
    22c0:	7e 83       	std	Y+6, r23	; 0x06
    22c2:	89 81       	ldd	r24, Y+1	; 0x01
    22c4:	9a 81       	ldd	r25, Y+2	; 0x02
    22c6:	bc 01       	movw	r22, r24
    22c8:	6e 5c       	subi	r22, 0xCE	; 206
    22ca:	7f 4f       	sbci	r23, 0xFF	; 255
    22cc:	89 81       	ldd	r24, Y+1	; 0x01
    22ce:	9a 81       	ldd	r25, Y+2	; 0x02
    22d0:	dc 01       	movw	r26, r24
    22d2:	11 96       	adiw	r26, 0x01	; 1
    22d4:	ec 91       	ld	r30, X
    22d6:	8b 81       	ldd	r24, Y+3	; 0x03
    22d8:	9c 81       	ldd	r25, Y+4	; 0x04
    22da:	ad 81       	ldd	r26, Y+5	; 0x05
    22dc:	be 81       	ldd	r27, Y+6	; 0x06
    22de:	01 e0       	ldi	r16, 0x01	; 1
    22e0:	9c 01       	movw	r18, r24
    22e2:	ad 01       	movw	r20, r26
    22e4:	8e 2f       	mov	r24, r30
    22e6:	0e 94 32 36 	call	0x6c64	; 0x6c64 <disk_read>
    22ea:	88 23       	and	r24, r24
    22ec:	11 f0       	breq	.+4      	; 0x22f2 <check_fs+0x4c>
    22ee:	83 e0       	ldi	r24, 0x03	; 3
    22f0:	2f c0       	rjmp	.+94     	; 0x2350 <check_fs+0xaa>
    22f2:	89 81       	ldd	r24, Y+1	; 0x01
    22f4:	9a 81       	ldd	r25, Y+2	; 0x02
    22f6:	80 5d       	subi	r24, 0xD0	; 208
    22f8:	9d 4f       	sbci	r25, 0xFD	; 253
    22fa:	fc 01       	movw	r30, r24
    22fc:	80 81       	ld	r24, Z
    22fe:	91 81       	ldd	r25, Z+1	; 0x01
    2300:	85 35       	cpi	r24, 0x55	; 85
    2302:	9a 4a       	sbci	r25, 0xAA	; 170
    2304:	11 f0       	breq	.+4      	; 0x230a <check_fs+0x64>
    2306:	82 e0       	ldi	r24, 0x02	; 2
    2308:	23 c0       	rjmp	.+70     	; 0x2350 <check_fs+0xaa>
    230a:	89 81       	ldd	r24, Y+1	; 0x01
    230c:	9a 81       	ldd	r25, Y+2	; 0x02
    230e:	88 59       	subi	r24, 0x98	; 152
    2310:	9f 4f       	sbci	r25, 0xFF	; 255
    2312:	fc 01       	movw	r30, r24
    2314:	80 81       	ld	r24, Z
    2316:	91 81       	ldd	r25, Z+1	; 0x01
    2318:	a2 81       	ldd	r26, Z+2	; 0x02
    231a:	b3 81       	ldd	r27, Z+3	; 0x03
    231c:	bb 27       	eor	r27, r27
    231e:	86 34       	cpi	r24, 0x46	; 70
    2320:	91 44       	sbci	r25, 0x41	; 65
    2322:	a4 45       	sbci	r26, 0x54	; 84
    2324:	b1 05       	cpc	r27, r1
    2326:	11 f4       	brne	.+4      	; 0x232c <check_fs+0x86>
    2328:	80 e0       	ldi	r24, 0x00	; 0
    232a:	12 c0       	rjmp	.+36     	; 0x2350 <check_fs+0xaa>
    232c:	89 81       	ldd	r24, Y+1	; 0x01
    232e:	9a 81       	ldd	r25, Y+2	; 0x02
    2330:	8c 57       	subi	r24, 0x7C	; 124
    2332:	9f 4f       	sbci	r25, 0xFF	; 255
    2334:	fc 01       	movw	r30, r24
    2336:	80 81       	ld	r24, Z
    2338:	91 81       	ldd	r25, Z+1	; 0x01
    233a:	a2 81       	ldd	r26, Z+2	; 0x02
    233c:	b3 81       	ldd	r27, Z+3	; 0x03
    233e:	bb 27       	eor	r27, r27
    2340:	86 34       	cpi	r24, 0x46	; 70
    2342:	91 44       	sbci	r25, 0x41	; 65
    2344:	a4 45       	sbci	r26, 0x54	; 84
    2346:	b1 05       	cpc	r27, r1
    2348:	11 f4       	brne	.+4      	; 0x234e <check_fs+0xa8>
    234a:	80 e0       	ldi	r24, 0x00	; 0
    234c:	01 c0       	rjmp	.+2      	; 0x2350 <check_fs+0xaa>
    234e:	81 e0       	ldi	r24, 0x01	; 1
    2350:	26 96       	adiw	r28, 0x06	; 6
    2352:	0f b6       	in	r0, 0x3f	; 63
    2354:	f8 94       	cli
    2356:	de bf       	out	0x3e, r29	; 62
    2358:	0f be       	out	0x3f, r0	; 63
    235a:	cd bf       	out	0x3d, r28	; 61
    235c:	df 91       	pop	r29
    235e:	cf 91       	pop	r28
    2360:	0f 91       	pop	r16
    2362:	08 95       	ret

00002364 <chk_mounted>:
    2364:	ef 92       	push	r14
    2366:	ff 92       	push	r15
    2368:	0f 93       	push	r16
    236a:	1f 93       	push	r17
    236c:	cf 93       	push	r28
    236e:	df 93       	push	r29
    2370:	cd b7       	in	r28, 0x3d	; 61
    2372:	de b7       	in	r29, 0x3e	; 62
    2374:	ab 97       	sbiw	r28, 0x2b	; 43
    2376:	0f b6       	in	r0, 0x3f	; 63
    2378:	f8 94       	cli
    237a:	de bf       	out	0x3e, r29	; 62
    237c:	0f be       	out	0x3f, r0	; 63
    237e:	cd bf       	out	0x3d, r28	; 61
    2380:	9f a3       	std	Y+39, r25	; 0x27
    2382:	8e a3       	std	Y+38, r24	; 0x26
    2384:	79 a7       	std	Y+41, r23	; 0x29
    2386:	68 a7       	std	Y+40, r22	; 0x28
    2388:	4a a7       	std	Y+42, r20	; 0x2a
    238a:	8e a1       	ldd	r24, Y+38	; 0x26
    238c:	9f a1       	ldd	r25, Y+39	; 0x27
    238e:	fc 01       	movw	r30, r24
    2390:	80 81       	ld	r24, Z
    2392:	91 81       	ldd	r25, Z+1	; 0x01
    2394:	9d 8b       	std	Y+21, r25	; 0x15
    2396:	8c 8b       	std	Y+20, r24	; 0x14
    2398:	8c 89       	ldd	r24, Y+20	; 0x14
    239a:	9d 89       	ldd	r25, Y+21	; 0x15
    239c:	fc 01       	movw	r30, r24
    239e:	80 81       	ld	r24, Z
    23a0:	88 2f       	mov	r24, r24
    23a2:	90 e0       	ldi	r25, 0x00	; 0
    23a4:	c0 97       	sbiw	r24, 0x30	; 48
    23a6:	9b 83       	std	Y+3, r25	; 0x03
    23a8:	8a 83       	std	Y+2, r24	; 0x02
    23aa:	8a 81       	ldd	r24, Y+2	; 0x02
    23ac:	9b 81       	ldd	r25, Y+3	; 0x03
    23ae:	0a 97       	sbiw	r24, 0x0a	; 10
    23b0:	a0 f4       	brcc	.+40     	; 0x23da <chk_mounted+0x76>
    23b2:	8c 89       	ldd	r24, Y+20	; 0x14
    23b4:	9d 89       	ldd	r25, Y+21	; 0x15
    23b6:	01 96       	adiw	r24, 0x01	; 1
    23b8:	fc 01       	movw	r30, r24
    23ba:	80 81       	ld	r24, Z
    23bc:	8a 33       	cpi	r24, 0x3A	; 58
    23be:	69 f4       	brne	.+26     	; 0x23da <chk_mounted+0x76>
    23c0:	8c 89       	ldd	r24, Y+20	; 0x14
    23c2:	9d 89       	ldd	r25, Y+21	; 0x15
    23c4:	02 96       	adiw	r24, 0x02	; 2
    23c6:	9d 8b       	std	Y+21, r25	; 0x15
    23c8:	8c 8b       	std	Y+20, r24	; 0x14
    23ca:	8e a1       	ldd	r24, Y+38	; 0x26
    23cc:	9f a1       	ldd	r25, Y+39	; 0x27
    23ce:	2c 89       	ldd	r18, Y+20	; 0x14
    23d0:	3d 89       	ldd	r19, Y+21	; 0x15
    23d2:	fc 01       	movw	r30, r24
    23d4:	31 83       	std	Z+1, r19	; 0x01
    23d6:	20 83       	st	Z, r18
    23d8:	06 c0       	rjmp	.+12     	; 0x23e6 <chk_mounted+0x82>
    23da:	80 91 8e 01 	lds	r24, 0x018E	; 0x80018e <CurrVol>
    23de:	88 2f       	mov	r24, r24
    23e0:	90 e0       	ldi	r25, 0x00	; 0
    23e2:	9b 83       	std	Y+3, r25	; 0x03
    23e4:	8a 83       	std	Y+2, r24	; 0x02
    23e6:	8a 81       	ldd	r24, Y+2	; 0x02
    23e8:	9b 81       	ldd	r25, Y+3	; 0x03
    23ea:	89 2b       	or	r24, r25
    23ec:	11 f0       	breq	.+4      	; 0x23f2 <chk_mounted+0x8e>
    23ee:	8b e0       	ldi	r24, 0x0B	; 11
    23f0:	77 c3       	rjmp	.+1774   	; 0x2ae0 <chk_mounted+0x77c>
    23f2:	8a 81       	ldd	r24, Y+2	; 0x02
    23f4:	9b 81       	ldd	r25, Y+3	; 0x03
    23f6:	88 0f       	add	r24, r24
    23f8:	99 1f       	adc	r25, r25
    23fa:	86 57       	subi	r24, 0x76	; 118
    23fc:	9e 4f       	sbci	r25, 0xFE	; 254
    23fe:	fc 01       	movw	r30, r24
    2400:	80 81       	ld	r24, Z
    2402:	91 81       	ldd	r25, Z+1	; 0x01
    2404:	9f 8b       	std	Y+23, r25	; 0x17
    2406:	8e 8b       	std	Y+22, r24	; 0x16
    2408:	88 a5       	ldd	r24, Y+40	; 0x28
    240a:	99 a5       	ldd	r25, Y+41	; 0x29
    240c:	2e 89       	ldd	r18, Y+22	; 0x16
    240e:	3f 89       	ldd	r19, Y+23	; 0x17
    2410:	fc 01       	movw	r30, r24
    2412:	31 83       	std	Z+1, r19	; 0x01
    2414:	20 83       	st	Z, r18
    2416:	8e 89       	ldd	r24, Y+22	; 0x16
    2418:	9f 89       	ldd	r25, Y+23	; 0x17
    241a:	89 2b       	or	r24, r25
    241c:	11 f4       	brne	.+4      	; 0x2422 <chk_mounted+0xbe>
    241e:	8c e0       	ldi	r24, 0x0C	; 12
    2420:	5f c3       	rjmp	.+1726   	; 0x2ae0 <chk_mounted+0x77c>
    2422:	8e 89       	ldd	r24, Y+22	; 0x16
    2424:	9f 89       	ldd	r25, Y+23	; 0x17
    2426:	fc 01       	movw	r30, r24
    2428:	80 81       	ld	r24, Z
    242a:	88 23       	and	r24, r24
    242c:	e1 f0       	breq	.+56     	; 0x2466 <chk_mounted+0x102>
    242e:	8e 89       	ldd	r24, Y+22	; 0x16
    2430:	9f 89       	ldd	r25, Y+23	; 0x17
    2432:	fc 01       	movw	r30, r24
    2434:	81 81       	ldd	r24, Z+1	; 0x01
    2436:	0e 94 21 36 	call	0x6c42	; 0x6c42 <disk_status>
    243a:	88 8f       	std	Y+24, r24	; 0x18
    243c:	88 8d       	ldd	r24, Y+24	; 0x18
    243e:	88 2f       	mov	r24, r24
    2440:	90 e0       	ldi	r25, 0x00	; 0
    2442:	81 70       	andi	r24, 0x01	; 1
    2444:	99 27       	eor	r25, r25
    2446:	89 2b       	or	r24, r25
    2448:	71 f4       	brne	.+28     	; 0x2466 <chk_mounted+0x102>
    244a:	8a a5       	ldd	r24, Y+42	; 0x2a
    244c:	88 23       	and	r24, r24
    244e:	49 f0       	breq	.+18     	; 0x2462 <chk_mounted+0xfe>
    2450:	88 8d       	ldd	r24, Y+24	; 0x18
    2452:	88 2f       	mov	r24, r24
    2454:	90 e0       	ldi	r25, 0x00	; 0
    2456:	84 70       	andi	r24, 0x04	; 4
    2458:	99 27       	eor	r25, r25
    245a:	89 2b       	or	r24, r25
    245c:	11 f0       	breq	.+4      	; 0x2462 <chk_mounted+0xfe>
    245e:	8a e0       	ldi	r24, 0x0A	; 10
    2460:	3f c3       	rjmp	.+1662   	; 0x2ae0 <chk_mounted+0x77c>
    2462:	80 e0       	ldi	r24, 0x00	; 0
    2464:	3d c3       	rjmp	.+1658   	; 0x2ae0 <chk_mounted+0x77c>
    2466:	8e 89       	ldd	r24, Y+22	; 0x16
    2468:	9f 89       	ldd	r25, Y+23	; 0x17
    246a:	fc 01       	movw	r30, r24
    246c:	10 82       	st	Z, r1
    246e:	2a 81       	ldd	r18, Y+2	; 0x02
    2470:	8e 89       	ldd	r24, Y+22	; 0x16
    2472:	9f 89       	ldd	r25, Y+23	; 0x17
    2474:	fc 01       	movw	r30, r24
    2476:	21 83       	std	Z+1, r18	; 0x01
    2478:	8e 89       	ldd	r24, Y+22	; 0x16
    247a:	9f 89       	ldd	r25, Y+23	; 0x17
    247c:	fc 01       	movw	r30, r24
    247e:	81 81       	ldd	r24, Z+1	; 0x01
    2480:	0e 94 2d 35 	call	0x6a5a	; 0x6a5a <disk_initialize>
    2484:	88 8f       	std	Y+24, r24	; 0x18
    2486:	88 8d       	ldd	r24, Y+24	; 0x18
    2488:	88 2f       	mov	r24, r24
    248a:	90 e0       	ldi	r25, 0x00	; 0
    248c:	81 70       	andi	r24, 0x01	; 1
    248e:	99 27       	eor	r25, r25
    2490:	89 2b       	or	r24, r25
    2492:	11 f0       	breq	.+4      	; 0x2498 <chk_mounted+0x134>
    2494:	83 e0       	ldi	r24, 0x03	; 3
    2496:	24 c3       	rjmp	.+1608   	; 0x2ae0 <chk_mounted+0x77c>
    2498:	8a a5       	ldd	r24, Y+42	; 0x2a
    249a:	88 23       	and	r24, r24
    249c:	49 f0       	breq	.+18     	; 0x24b0 <chk_mounted+0x14c>
    249e:	88 8d       	ldd	r24, Y+24	; 0x18
    24a0:	88 2f       	mov	r24, r24
    24a2:	90 e0       	ldi	r25, 0x00	; 0
    24a4:	84 70       	andi	r24, 0x04	; 4
    24a6:	99 27       	eor	r25, r25
    24a8:	89 2b       	or	r24, r25
    24aa:	11 f0       	breq	.+4      	; 0x24b0 <chk_mounted+0x14c>
    24ac:	8a e0       	ldi	r24, 0x0A	; 10
    24ae:	18 c3       	rjmp	.+1584   	; 0x2ae0 <chk_mounted+0x77c>
    24b0:	1c 82       	std	Y+4, r1	; 0x04
    24b2:	1d 82       	std	Y+5, r1	; 0x05
    24b4:	1e 82       	std	Y+6, r1	; 0x06
    24b6:	1f 82       	std	Y+7, r1	; 0x07
    24b8:	8c 81       	ldd	r24, Y+4	; 0x04
    24ba:	9d 81       	ldd	r25, Y+5	; 0x05
    24bc:	ae 81       	ldd	r26, Y+6	; 0x06
    24be:	bf 81       	ldd	r27, Y+7	; 0x07
    24c0:	2e 89       	ldd	r18, Y+22	; 0x16
    24c2:	3f 89       	ldd	r19, Y+23	; 0x17
    24c4:	ac 01       	movw	r20, r24
    24c6:	bd 01       	movw	r22, r26
    24c8:	c9 01       	movw	r24, r18
    24ca:	0e 94 53 11 	call	0x22a6	; 0x22a6 <check_fs>
    24ce:	89 83       	std	Y+1, r24	; 0x01
    24d0:	89 81       	ldd	r24, Y+1	; 0x01
    24d2:	81 30       	cpi	r24, 0x01	; 1
    24d4:	29 f5       	brne	.+74     	; 0x2520 <chk_mounted+0x1bc>
    24d6:	8e 89       	ldd	r24, Y+22	; 0x16
    24d8:	9f 89       	ldd	r25, Y+23	; 0x17
    24da:	80 51       	subi	r24, 0x10	; 16
    24dc:	9e 4f       	sbci	r25, 0xFE	; 254
    24de:	9a 8f       	std	Y+26, r25	; 0x1a
    24e0:	89 8f       	std	Y+25, r24	; 0x19
    24e2:	89 8d       	ldd	r24, Y+25	; 0x19
    24e4:	9a 8d       	ldd	r25, Y+26	; 0x1a
    24e6:	04 96       	adiw	r24, 0x04	; 4
    24e8:	fc 01       	movw	r30, r24
    24ea:	80 81       	ld	r24, Z
    24ec:	88 23       	and	r24, r24
    24ee:	c1 f0       	breq	.+48     	; 0x2520 <chk_mounted+0x1bc>
    24f0:	89 8d       	ldd	r24, Y+25	; 0x19
    24f2:	9a 8d       	ldd	r25, Y+26	; 0x1a
    24f4:	08 96       	adiw	r24, 0x08	; 8
    24f6:	fc 01       	movw	r30, r24
    24f8:	80 81       	ld	r24, Z
    24fa:	91 81       	ldd	r25, Z+1	; 0x01
    24fc:	a2 81       	ldd	r26, Z+2	; 0x02
    24fe:	b3 81       	ldd	r27, Z+3	; 0x03
    2500:	8c 83       	std	Y+4, r24	; 0x04
    2502:	9d 83       	std	Y+5, r25	; 0x05
    2504:	ae 83       	std	Y+6, r26	; 0x06
    2506:	bf 83       	std	Y+7, r27	; 0x07
    2508:	8c 81       	ldd	r24, Y+4	; 0x04
    250a:	9d 81       	ldd	r25, Y+5	; 0x05
    250c:	ae 81       	ldd	r26, Y+6	; 0x06
    250e:	bf 81       	ldd	r27, Y+7	; 0x07
    2510:	2e 89       	ldd	r18, Y+22	; 0x16
    2512:	3f 89       	ldd	r19, Y+23	; 0x17
    2514:	ac 01       	movw	r20, r24
    2516:	bd 01       	movw	r22, r26
    2518:	c9 01       	movw	r24, r18
    251a:	0e 94 53 11 	call	0x22a6	; 0x22a6 <check_fs>
    251e:	89 83       	std	Y+1, r24	; 0x01
    2520:	89 81       	ldd	r24, Y+1	; 0x01
    2522:	83 30       	cpi	r24, 0x03	; 3
    2524:	11 f4       	brne	.+4      	; 0x252a <chk_mounted+0x1c6>
    2526:	81 e0       	ldi	r24, 0x01	; 1
    2528:	db c2       	rjmp	.+1462   	; 0x2ae0 <chk_mounted+0x77c>
    252a:	89 81       	ldd	r24, Y+1	; 0x01
    252c:	88 23       	and	r24, r24
    252e:	11 f0       	breq	.+4      	; 0x2534 <chk_mounted+0x1d0>
    2530:	8d e0       	ldi	r24, 0x0D	; 13
    2532:	d6 c2       	rjmp	.+1452   	; 0x2ae0 <chk_mounted+0x77c>
    2534:	8e 89       	ldd	r24, Y+22	; 0x16
    2536:	9f 89       	ldd	r25, Y+23	; 0x17
    2538:	c2 96       	adiw	r24, 0x32	; 50
    253a:	0b 96       	adiw	r24, 0x0b	; 11
    253c:	fc 01       	movw	r30, r24
    253e:	80 81       	ld	r24, Z
    2540:	91 81       	ldd	r25, Z+1	; 0x01
    2542:	81 15       	cp	r24, r1
    2544:	92 40       	sbci	r25, 0x02	; 2
    2546:	11 f0       	breq	.+4      	; 0x254c <chk_mounted+0x1e8>
    2548:	8d e0       	ldi	r24, 0x0D	; 13
    254a:	ca c2       	rjmp	.+1428   	; 0x2ae0 <chk_mounted+0x77c>
    254c:	8e 89       	ldd	r24, Y+22	; 0x16
    254e:	9f 89       	ldd	r25, Y+23	; 0x17
    2550:	c2 96       	adiw	r24, 0x32	; 50
    2552:	46 96       	adiw	r24, 0x16	; 22
    2554:	fc 01       	movw	r30, r24
    2556:	80 81       	ld	r24, Z
    2558:	91 81       	ldd	r25, Z+1	; 0x01
    255a:	cc 01       	movw	r24, r24
    255c:	a0 e0       	ldi	r26, 0x00	; 0
    255e:	b0 e0       	ldi	r27, 0x00	; 0
    2560:	88 87       	std	Y+8, r24	; 0x08
    2562:	99 87       	std	Y+9, r25	; 0x09
    2564:	aa 87       	std	Y+10, r26	; 0x0a
    2566:	bb 87       	std	Y+11, r27	; 0x0b
    2568:	88 85       	ldd	r24, Y+8	; 0x08
    256a:	99 85       	ldd	r25, Y+9	; 0x09
    256c:	aa 85       	ldd	r26, Y+10	; 0x0a
    256e:	bb 85       	ldd	r27, Y+11	; 0x0b
    2570:	89 2b       	or	r24, r25
    2572:	8a 2b       	or	r24, r26
    2574:	8b 2b       	or	r24, r27
    2576:	69 f4       	brne	.+26     	; 0x2592 <chk_mounted+0x22e>
    2578:	8e 89       	ldd	r24, Y+22	; 0x16
    257a:	9f 89       	ldd	r25, Y+23	; 0x17
    257c:	c2 96       	adiw	r24, 0x32	; 50
    257e:	84 96       	adiw	r24, 0x24	; 36
    2580:	fc 01       	movw	r30, r24
    2582:	80 81       	ld	r24, Z
    2584:	91 81       	ldd	r25, Z+1	; 0x01
    2586:	a2 81       	ldd	r26, Z+2	; 0x02
    2588:	b3 81       	ldd	r27, Z+3	; 0x03
    258a:	88 87       	std	Y+8, r24	; 0x08
    258c:	99 87       	std	Y+9, r25	; 0x09
    258e:	aa 87       	std	Y+10, r26	; 0x0a
    2590:	bb 87       	std	Y+11, r27	; 0x0b
    2592:	2e 89       	ldd	r18, Y+22	; 0x16
    2594:	3f 89       	ldd	r19, Y+23	; 0x17
    2596:	88 85       	ldd	r24, Y+8	; 0x08
    2598:	99 85       	ldd	r25, Y+9	; 0x09
    259a:	aa 85       	ldd	r26, Y+10	; 0x0a
    259c:	bb 85       	ldd	r27, Y+11	; 0x0b
    259e:	f9 01       	movw	r30, r18
    25a0:	86 8f       	std	Z+30, r24	; 0x1e
    25a2:	97 8f       	std	Z+31, r25	; 0x1f
    25a4:	a0 a3       	std	Z+32, r26	; 0x20
    25a6:	b1 a3       	std	Z+33, r27	; 0x21
    25a8:	8e 89       	ldd	r24, Y+22	; 0x16
    25aa:	9f 89       	ldd	r25, Y+23	; 0x17
    25ac:	8e 5b       	subi	r24, 0xBE	; 190
    25ae:	9f 4f       	sbci	r25, 0xFF	; 255
    25b0:	fc 01       	movw	r30, r24
    25b2:	80 81       	ld	r24, Z
    25b4:	8b 8f       	std	Y+27, r24	; 0x1b
    25b6:	8e 89       	ldd	r24, Y+22	; 0x16
    25b8:	9f 89       	ldd	r25, Y+23	; 0x17
    25ba:	2b 8d       	ldd	r18, Y+27	; 0x1b
    25bc:	fc 01       	movw	r30, r24
    25be:	23 83       	std	Z+3, r18	; 0x03
    25c0:	8b 8d       	ldd	r24, Y+27	; 0x1b
    25c2:	81 30       	cpi	r24, 0x01	; 1
    25c4:	29 f0       	breq	.+10     	; 0x25d0 <chk_mounted+0x26c>
    25c6:	8b 8d       	ldd	r24, Y+27	; 0x1b
    25c8:	82 30       	cpi	r24, 0x02	; 2
    25ca:	11 f0       	breq	.+4      	; 0x25d0 <chk_mounted+0x26c>
    25cc:	8d e0       	ldi	r24, 0x0D	; 13
    25ce:	88 c2       	rjmp	.+1296   	; 0x2ae0 <chk_mounted+0x77c>
    25d0:	8b 8d       	ldd	r24, Y+27	; 0x1b
    25d2:	88 2f       	mov	r24, r24
    25d4:	90 e0       	ldi	r25, 0x00	; 0
    25d6:	a0 e0       	ldi	r26, 0x00	; 0
    25d8:	b0 e0       	ldi	r27, 0x00	; 0
    25da:	28 85       	ldd	r18, Y+8	; 0x08
    25dc:	39 85       	ldd	r19, Y+9	; 0x09
    25de:	4a 85       	ldd	r20, Y+10	; 0x0a
    25e0:	5b 85       	ldd	r21, Y+11	; 0x0b
    25e2:	bc 01       	movw	r22, r24
    25e4:	cd 01       	movw	r24, r26
    25e6:	0e 94 3a 3e 	call	0x7c74	; 0x7c74 <__mulsi3>
    25ea:	dc 01       	movw	r26, r24
    25ec:	cb 01       	movw	r24, r22
    25ee:	88 87       	std	Y+8, r24	; 0x08
    25f0:	99 87       	std	Y+9, r25	; 0x09
    25f2:	aa 87       	std	Y+10, r26	; 0x0a
    25f4:	bb 87       	std	Y+11, r27	; 0x0b
    25f6:	8e 89       	ldd	r24, Y+22	; 0x16
    25f8:	9f 89       	ldd	r25, Y+23	; 0x17
    25fa:	fc 01       	movw	r30, r24
    25fc:	87 ad       	ldd	r24, Z+63	; 0x3f
    25fe:	8b 8f       	std	Y+27, r24	; 0x1b
    2600:	8e 89       	ldd	r24, Y+22	; 0x16
    2602:	9f 89       	ldd	r25, Y+23	; 0x17
    2604:	2b 8d       	ldd	r18, Y+27	; 0x1b
    2606:	fc 01       	movw	r30, r24
    2608:	22 83       	std	Z+2, r18	; 0x02
    260a:	8b 8d       	ldd	r24, Y+27	; 0x1b
    260c:	88 23       	and	r24, r24
    260e:	59 f0       	breq	.+22     	; 0x2626 <chk_mounted+0x2c2>
    2610:	8b 8d       	ldd	r24, Y+27	; 0x1b
    2612:	28 2f       	mov	r18, r24
    2614:	30 e0       	ldi	r19, 0x00	; 0
    2616:	8b 8d       	ldd	r24, Y+27	; 0x1b
    2618:	88 2f       	mov	r24, r24
    261a:	90 e0       	ldi	r25, 0x00	; 0
    261c:	01 97       	sbiw	r24, 0x01	; 1
    261e:	82 23       	and	r24, r18
    2620:	93 23       	and	r25, r19
    2622:	89 2b       	or	r24, r25
    2624:	11 f0       	breq	.+4      	; 0x262a <chk_mounted+0x2c6>
    2626:	8d e0       	ldi	r24, 0x0D	; 13
    2628:	5b c2       	rjmp	.+1206   	; 0x2ae0 <chk_mounted+0x77c>
    262a:	8e 89       	ldd	r24, Y+22	; 0x16
    262c:	9f 89       	ldd	r25, Y+23	; 0x17
    262e:	c2 96       	adiw	r24, 0x32	; 50
    2630:	41 96       	adiw	r24, 0x11	; 17
    2632:	fc 01       	movw	r30, r24
    2634:	20 81       	ld	r18, Z
    2636:	31 81       	ldd	r19, Z+1	; 0x01
    2638:	8e 89       	ldd	r24, Y+22	; 0x16
    263a:	9f 89       	ldd	r25, Y+23	; 0x17
    263c:	fc 01       	movw	r30, r24
    263e:	31 87       	std	Z+9, r19	; 0x09
    2640:	20 87       	std	Z+8, r18	; 0x08
    2642:	8e 89       	ldd	r24, Y+22	; 0x16
    2644:	9f 89       	ldd	r25, Y+23	; 0x17
    2646:	fc 01       	movw	r30, r24
    2648:	80 85       	ldd	r24, Z+8	; 0x08
    264a:	91 85       	ldd	r25, Z+9	; 0x09
    264c:	8f 70       	andi	r24, 0x0F	; 15
    264e:	99 27       	eor	r25, r25
    2650:	89 2b       	or	r24, r25
    2652:	11 f0       	breq	.+4      	; 0x2658 <chk_mounted+0x2f4>
    2654:	8d e0       	ldi	r24, 0x0D	; 13
    2656:	44 c2       	rjmp	.+1160   	; 0x2ae0 <chk_mounted+0x77c>
    2658:	8e 89       	ldd	r24, Y+22	; 0x16
    265a:	9f 89       	ldd	r25, Y+23	; 0x17
    265c:	c2 96       	adiw	r24, 0x32	; 50
    265e:	43 96       	adiw	r24, 0x13	; 19
    2660:	fc 01       	movw	r30, r24
    2662:	80 81       	ld	r24, Z
    2664:	91 81       	ldd	r25, Z+1	; 0x01
    2666:	cc 01       	movw	r24, r24
    2668:	a0 e0       	ldi	r26, 0x00	; 0
    266a:	b0 e0       	ldi	r27, 0x00	; 0
    266c:	8c 87       	std	Y+12, r24	; 0x0c
    266e:	9d 87       	std	Y+13, r25	; 0x0d
    2670:	ae 87       	std	Y+14, r26	; 0x0e
    2672:	bf 87       	std	Y+15, r27	; 0x0f
    2674:	8c 85       	ldd	r24, Y+12	; 0x0c
    2676:	9d 85       	ldd	r25, Y+13	; 0x0d
    2678:	ae 85       	ldd	r26, Y+14	; 0x0e
    267a:	bf 85       	ldd	r27, Y+15	; 0x0f
    267c:	89 2b       	or	r24, r25
    267e:	8a 2b       	or	r24, r26
    2680:	8b 2b       	or	r24, r27
    2682:	69 f4       	brne	.+26     	; 0x269e <chk_mounted+0x33a>
    2684:	8e 89       	ldd	r24, Y+22	; 0x16
    2686:	9f 89       	ldd	r25, Y+23	; 0x17
    2688:	c2 96       	adiw	r24, 0x32	; 50
    268a:	80 96       	adiw	r24, 0x20	; 32
    268c:	fc 01       	movw	r30, r24
    268e:	80 81       	ld	r24, Z
    2690:	91 81       	ldd	r25, Z+1	; 0x01
    2692:	a2 81       	ldd	r26, Z+2	; 0x02
    2694:	b3 81       	ldd	r27, Z+3	; 0x03
    2696:	8c 87       	std	Y+12, r24	; 0x0c
    2698:	9d 87       	std	Y+13, r25	; 0x0d
    269a:	ae 87       	std	Y+14, r26	; 0x0e
    269c:	bf 87       	std	Y+15, r27	; 0x0f
    269e:	8e 89       	ldd	r24, Y+22	; 0x16
    26a0:	9f 89       	ldd	r25, Y+23	; 0x17
    26a2:	c2 96       	adiw	r24, 0x32	; 50
    26a4:	0e 96       	adiw	r24, 0x0e	; 14
    26a6:	fc 01       	movw	r30, r24
    26a8:	80 81       	ld	r24, Z
    26aa:	91 81       	ldd	r25, Z+1	; 0x01
    26ac:	9d 8f       	std	Y+29, r25	; 0x1d
    26ae:	8c 8f       	std	Y+28, r24	; 0x1c
    26b0:	8c 8d       	ldd	r24, Y+28	; 0x1c
    26b2:	9d 8d       	ldd	r25, Y+29	; 0x1d
    26b4:	89 2b       	or	r24, r25
    26b6:	11 f4       	brne	.+4      	; 0x26bc <chk_mounted+0x358>
    26b8:	8d e0       	ldi	r24, 0x0D	; 13
    26ba:	12 c2       	rjmp	.+1060   	; 0x2ae0 <chk_mounted+0x77c>
    26bc:	8c 8d       	ldd	r24, Y+28	; 0x1c
    26be:	9d 8d       	ldd	r25, Y+29	; 0x1d
    26c0:	9c 01       	movw	r18, r24
    26c2:	40 e0       	ldi	r20, 0x00	; 0
    26c4:	50 e0       	ldi	r21, 0x00	; 0
    26c6:	88 85       	ldd	r24, Y+8	; 0x08
    26c8:	99 85       	ldd	r25, Y+9	; 0x09
    26ca:	aa 85       	ldd	r26, Y+10	; 0x0a
    26cc:	bb 85       	ldd	r27, Y+11	; 0x0b
    26ce:	28 0f       	add	r18, r24
    26d0:	39 1f       	adc	r19, r25
    26d2:	4a 1f       	adc	r20, r26
    26d4:	5b 1f       	adc	r21, r27
    26d6:	8e 89       	ldd	r24, Y+22	; 0x16
    26d8:	9f 89       	ldd	r25, Y+23	; 0x17
    26da:	fc 01       	movw	r30, r24
    26dc:	80 85       	ldd	r24, Z+8	; 0x08
    26de:	91 85       	ldd	r25, Z+9	; 0x09
    26e0:	92 95       	swap	r25
    26e2:	82 95       	swap	r24
    26e4:	8f 70       	andi	r24, 0x0F	; 15
    26e6:	89 27       	eor	r24, r25
    26e8:	9f 70       	andi	r25, 0x0F	; 15
    26ea:	89 27       	eor	r24, r25
    26ec:	cc 01       	movw	r24, r24
    26ee:	a0 e0       	ldi	r26, 0x00	; 0
    26f0:	b0 e0       	ldi	r27, 0x00	; 0
    26f2:	82 0f       	add	r24, r18
    26f4:	93 1f       	adc	r25, r19
    26f6:	a4 1f       	adc	r26, r20
    26f8:	b5 1f       	adc	r27, r21
    26fa:	8e 8f       	std	Y+30, r24	; 0x1e
    26fc:	9f 8f       	std	Y+31, r25	; 0x1f
    26fe:	a8 a3       	std	Y+32, r26	; 0x20
    2700:	b9 a3       	std	Y+33, r27	; 0x21
    2702:	2c 85       	ldd	r18, Y+12	; 0x0c
    2704:	3d 85       	ldd	r19, Y+13	; 0x0d
    2706:	4e 85       	ldd	r20, Y+14	; 0x0e
    2708:	5f 85       	ldd	r21, Y+15	; 0x0f
    270a:	8e 8d       	ldd	r24, Y+30	; 0x1e
    270c:	9f 8d       	ldd	r25, Y+31	; 0x1f
    270e:	a8 a1       	ldd	r26, Y+32	; 0x20
    2710:	b9 a1       	ldd	r27, Y+33	; 0x21
    2712:	28 17       	cp	r18, r24
    2714:	39 07       	cpc	r19, r25
    2716:	4a 07       	cpc	r20, r26
    2718:	5b 07       	cpc	r21, r27
    271a:	10 f4       	brcc	.+4      	; 0x2720 <chk_mounted+0x3bc>
    271c:	8d e0       	ldi	r24, 0x0D	; 13
    271e:	e0 c1       	rjmp	.+960    	; 0x2ae0 <chk_mounted+0x77c>
    2720:	2c 85       	ldd	r18, Y+12	; 0x0c
    2722:	3d 85       	ldd	r19, Y+13	; 0x0d
    2724:	4e 85       	ldd	r20, Y+14	; 0x0e
    2726:	5f 85       	ldd	r21, Y+15	; 0x0f
    2728:	8e 8d       	ldd	r24, Y+30	; 0x1e
    272a:	9f 8d       	ldd	r25, Y+31	; 0x1f
    272c:	a8 a1       	ldd	r26, Y+32	; 0x20
    272e:	b9 a1       	ldd	r27, Y+33	; 0x21
    2730:	79 01       	movw	r14, r18
    2732:	8a 01       	movw	r16, r20
    2734:	e8 1a       	sub	r14, r24
    2736:	f9 0a       	sbc	r15, r25
    2738:	0a 0b       	sbc	r16, r26
    273a:	1b 0b       	sbc	r17, r27
    273c:	d8 01       	movw	r26, r16
    273e:	c7 01       	movw	r24, r14
    2740:	2e 89       	ldd	r18, Y+22	; 0x16
    2742:	3f 89       	ldd	r19, Y+23	; 0x17
    2744:	f9 01       	movw	r30, r18
    2746:	22 81       	ldd	r18, Z+2	; 0x02
    2748:	22 2f       	mov	r18, r18
    274a:	30 e0       	ldi	r19, 0x00	; 0
    274c:	40 e0       	ldi	r20, 0x00	; 0
    274e:	50 e0       	ldi	r21, 0x00	; 0
    2750:	bc 01       	movw	r22, r24
    2752:	cd 01       	movw	r24, r26
    2754:	0e 94 5e 3e 	call	0x7cbc	; 0x7cbc <__udivmodsi4>
    2758:	da 01       	movw	r26, r20
    275a:	c9 01       	movw	r24, r18
    275c:	8a a3       	std	Y+34, r24	; 0x22
    275e:	9b a3       	std	Y+35, r25	; 0x23
    2760:	ac a3       	std	Y+36, r26	; 0x24
    2762:	bd a3       	std	Y+37, r27	; 0x25
    2764:	8a a1       	ldd	r24, Y+34	; 0x22
    2766:	9b a1       	ldd	r25, Y+35	; 0x23
    2768:	ac a1       	ldd	r26, Y+36	; 0x24
    276a:	bd a1       	ldd	r27, Y+37	; 0x25
    276c:	89 2b       	or	r24, r25
    276e:	8a 2b       	or	r24, r26
    2770:	8b 2b       	or	r24, r27
    2772:	11 f4       	brne	.+4      	; 0x2778 <chk_mounted+0x414>
    2774:	8d e0       	ldi	r24, 0x0D	; 13
    2776:	b4 c1       	rjmp	.+872    	; 0x2ae0 <chk_mounted+0x77c>
    2778:	81 e0       	ldi	r24, 0x01	; 1
    277a:	89 83       	std	Y+1, r24	; 0x01
    277c:	8a a1       	ldd	r24, Y+34	; 0x22
    277e:	9b a1       	ldd	r25, Y+35	; 0x23
    2780:	ac a1       	ldd	r26, Y+36	; 0x24
    2782:	bd a1       	ldd	r27, Y+37	; 0x25
    2784:	86 3f       	cpi	r24, 0xF6	; 246
    2786:	9f 40       	sbci	r25, 0x0F	; 15
    2788:	a1 05       	cpc	r26, r1
    278a:	b1 05       	cpc	r27, r1
    278c:	10 f0       	brcs	.+4      	; 0x2792 <chk_mounted+0x42e>
    278e:	82 e0       	ldi	r24, 0x02	; 2
    2790:	89 83       	std	Y+1, r24	; 0x01
    2792:	8a a1       	ldd	r24, Y+34	; 0x22
    2794:	9b a1       	ldd	r25, Y+35	; 0x23
    2796:	ac a1       	ldd	r26, Y+36	; 0x24
    2798:	bd a1       	ldd	r27, Y+37	; 0x25
    279a:	86 3f       	cpi	r24, 0xF6	; 246
    279c:	9f 4f       	sbci	r25, 0xFF	; 255
    279e:	a1 05       	cpc	r26, r1
    27a0:	b1 05       	cpc	r27, r1
    27a2:	10 f0       	brcs	.+4      	; 0x27a8 <chk_mounted+0x444>
    27a4:	83 e0       	ldi	r24, 0x03	; 3
    27a6:	89 83       	std	Y+1, r24	; 0x01
    27a8:	8a a1       	ldd	r24, Y+34	; 0x22
    27aa:	9b a1       	ldd	r25, Y+35	; 0x23
    27ac:	ac a1       	ldd	r26, Y+36	; 0x24
    27ae:	bd a1       	ldd	r27, Y+37	; 0x25
    27b0:	02 96       	adiw	r24, 0x02	; 2
    27b2:	a1 1d       	adc	r26, r1
    27b4:	b1 1d       	adc	r27, r1
    27b6:	2e 89       	ldd	r18, Y+22	; 0x16
    27b8:	3f 89       	ldd	r19, Y+23	; 0x17
    27ba:	f9 01       	movw	r30, r18
    27bc:	82 8f       	std	Z+26, r24	; 0x1a
    27be:	93 8f       	std	Z+27, r25	; 0x1b
    27c0:	a4 8f       	std	Z+28, r26	; 0x1c
    27c2:	b5 8f       	std	Z+29, r27	; 0x1d
    27c4:	2c 81       	ldd	r18, Y+4	; 0x04
    27c6:	3d 81       	ldd	r19, Y+5	; 0x05
    27c8:	4e 81       	ldd	r20, Y+6	; 0x06
    27ca:	5f 81       	ldd	r21, Y+7	; 0x07
    27cc:	8e 8d       	ldd	r24, Y+30	; 0x1e
    27ce:	9f 8d       	ldd	r25, Y+31	; 0x1f
    27d0:	a8 a1       	ldd	r26, Y+32	; 0x20
    27d2:	b9 a1       	ldd	r27, Y+33	; 0x21
    27d4:	82 0f       	add	r24, r18
    27d6:	93 1f       	adc	r25, r19
    27d8:	a4 1f       	adc	r26, r20
    27da:	b5 1f       	adc	r27, r21
    27dc:	2e 89       	ldd	r18, Y+22	; 0x16
    27de:	3f 89       	ldd	r19, Y+23	; 0x17
    27e0:	f9 01       	movw	r30, r18
    27e2:	82 a7       	std	Z+42, r24	; 0x2a
    27e4:	93 a7       	std	Z+43, r25	; 0x2b
    27e6:	a4 a7       	std	Z+44, r26	; 0x2c
    27e8:	b5 a7       	std	Z+45, r27	; 0x2d
    27ea:	8c 8d       	ldd	r24, Y+28	; 0x1c
    27ec:	9d 8d       	ldd	r25, Y+29	; 0x1d
    27ee:	9c 01       	movw	r18, r24
    27f0:	40 e0       	ldi	r20, 0x00	; 0
    27f2:	50 e0       	ldi	r21, 0x00	; 0
    27f4:	8c 81       	ldd	r24, Y+4	; 0x04
    27f6:	9d 81       	ldd	r25, Y+5	; 0x05
    27f8:	ae 81       	ldd	r26, Y+6	; 0x06
    27fa:	bf 81       	ldd	r27, Y+7	; 0x07
    27fc:	82 0f       	add	r24, r18
    27fe:	93 1f       	adc	r25, r19
    2800:	a4 1f       	adc	r26, r20
    2802:	b5 1f       	adc	r27, r21
    2804:	2e 89       	ldd	r18, Y+22	; 0x16
    2806:	3f 89       	ldd	r19, Y+23	; 0x17
    2808:	f9 01       	movw	r30, r18
    280a:	82 a3       	std	Z+34, r24	; 0x22
    280c:	93 a3       	std	Z+35, r25	; 0x23
    280e:	a4 a3       	std	Z+36, r26	; 0x24
    2810:	b5 a3       	std	Z+37, r27	; 0x25
    2812:	89 81       	ldd	r24, Y+1	; 0x01
    2814:	83 30       	cpi	r24, 0x03	; 3
    2816:	69 f5       	brne	.+90     	; 0x2872 <chk_mounted+0x50e>
    2818:	8e 89       	ldd	r24, Y+22	; 0x16
    281a:	9f 89       	ldd	r25, Y+23	; 0x17
    281c:	fc 01       	movw	r30, r24
    281e:	80 85       	ldd	r24, Z+8	; 0x08
    2820:	91 85       	ldd	r25, Z+9	; 0x09
    2822:	89 2b       	or	r24, r25
    2824:	11 f0       	breq	.+4      	; 0x282a <chk_mounted+0x4c6>
    2826:	8d e0       	ldi	r24, 0x0D	; 13
    2828:	5b c1       	rjmp	.+694    	; 0x2ae0 <chk_mounted+0x77c>
    282a:	8e 89       	ldd	r24, Y+22	; 0x16
    282c:	9f 89       	ldd	r25, Y+23	; 0x17
    282e:	c2 96       	adiw	r24, 0x32	; 50
    2830:	8c 96       	adiw	r24, 0x2c	; 44
    2832:	fc 01       	movw	r30, r24
    2834:	80 81       	ld	r24, Z
    2836:	91 81       	ldd	r25, Z+1	; 0x01
    2838:	a2 81       	ldd	r26, Z+2	; 0x02
    283a:	b3 81       	ldd	r27, Z+3	; 0x03
    283c:	2e 89       	ldd	r18, Y+22	; 0x16
    283e:	3f 89       	ldd	r19, Y+23	; 0x17
    2840:	f9 01       	movw	r30, r18
    2842:	86 a3       	std	Z+38, r24	; 0x26
    2844:	97 a3       	std	Z+39, r25	; 0x27
    2846:	a0 a7       	std	Z+40, r26	; 0x28
    2848:	b1 a7       	std	Z+41, r27	; 0x29
    284a:	8e 89       	ldd	r24, Y+22	; 0x16
    284c:	9f 89       	ldd	r25, Y+23	; 0x17
    284e:	fc 01       	movw	r30, r24
    2850:	82 8d       	ldd	r24, Z+26	; 0x1a
    2852:	93 8d       	ldd	r25, Z+27	; 0x1b
    2854:	a4 8d       	ldd	r26, Z+28	; 0x1c
    2856:	b5 8d       	ldd	r27, Z+29	; 0x1d
    2858:	88 0f       	add	r24, r24
    285a:	99 1f       	adc	r25, r25
    285c:	aa 1f       	adc	r26, r26
    285e:	bb 1f       	adc	r27, r27
    2860:	88 0f       	add	r24, r24
    2862:	99 1f       	adc	r25, r25
    2864:	aa 1f       	adc	r26, r26
    2866:	bb 1f       	adc	r27, r27
    2868:	88 8b       	std	Y+16, r24	; 0x10
    286a:	99 8b       	std	Y+17, r25	; 0x11
    286c:	aa 8b       	std	Y+18, r26	; 0x12
    286e:	bb 8b       	std	Y+19, r27	; 0x13
    2870:	58 c0       	rjmp	.+176    	; 0x2922 <chk_mounted+0x5be>
    2872:	8e 89       	ldd	r24, Y+22	; 0x16
    2874:	9f 89       	ldd	r25, Y+23	; 0x17
    2876:	fc 01       	movw	r30, r24
    2878:	80 85       	ldd	r24, Z+8	; 0x08
    287a:	91 85       	ldd	r25, Z+9	; 0x09
    287c:	89 2b       	or	r24, r25
    287e:	11 f4       	brne	.+4      	; 0x2884 <chk_mounted+0x520>
    2880:	8d e0       	ldi	r24, 0x0D	; 13
    2882:	2e c1       	rjmp	.+604    	; 0x2ae0 <chk_mounted+0x77c>
    2884:	8e 89       	ldd	r24, Y+22	; 0x16
    2886:	9f 89       	ldd	r25, Y+23	; 0x17
    2888:	fc 01       	movw	r30, r24
    288a:	22 a1       	ldd	r18, Z+34	; 0x22
    288c:	33 a1       	ldd	r19, Z+35	; 0x23
    288e:	44 a1       	ldd	r20, Z+36	; 0x24
    2890:	55 a1       	ldd	r21, Z+37	; 0x25
    2892:	88 85       	ldd	r24, Y+8	; 0x08
    2894:	99 85       	ldd	r25, Y+9	; 0x09
    2896:	aa 85       	ldd	r26, Y+10	; 0x0a
    2898:	bb 85       	ldd	r27, Y+11	; 0x0b
    289a:	82 0f       	add	r24, r18
    289c:	93 1f       	adc	r25, r19
    289e:	a4 1f       	adc	r26, r20
    28a0:	b5 1f       	adc	r27, r21
    28a2:	2e 89       	ldd	r18, Y+22	; 0x16
    28a4:	3f 89       	ldd	r19, Y+23	; 0x17
    28a6:	f9 01       	movw	r30, r18
    28a8:	86 a3       	std	Z+38, r24	; 0x26
    28aa:	97 a3       	std	Z+39, r25	; 0x27
    28ac:	a0 a7       	std	Z+40, r26	; 0x28
    28ae:	b1 a7       	std	Z+41, r27	; 0x29
    28b0:	89 81       	ldd	r24, Y+1	; 0x01
    28b2:	82 30       	cpi	r24, 0x02	; 2
    28b4:	61 f4       	brne	.+24     	; 0x28ce <chk_mounted+0x56a>
    28b6:	8e 89       	ldd	r24, Y+22	; 0x16
    28b8:	9f 89       	ldd	r25, Y+23	; 0x17
    28ba:	fc 01       	movw	r30, r24
    28bc:	82 8d       	ldd	r24, Z+26	; 0x1a
    28be:	93 8d       	ldd	r25, Z+27	; 0x1b
    28c0:	a4 8d       	ldd	r26, Z+28	; 0x1c
    28c2:	b5 8d       	ldd	r27, Z+29	; 0x1d
    28c4:	88 0f       	add	r24, r24
    28c6:	99 1f       	adc	r25, r25
    28c8:	aa 1f       	adc	r26, r26
    28ca:	bb 1f       	adc	r27, r27
    28cc:	26 c0       	rjmp	.+76     	; 0x291a <chk_mounted+0x5b6>
    28ce:	8e 89       	ldd	r24, Y+22	; 0x16
    28d0:	9f 89       	ldd	r25, Y+23	; 0x17
    28d2:	fc 01       	movw	r30, r24
    28d4:	22 8d       	ldd	r18, Z+26	; 0x1a
    28d6:	33 8d       	ldd	r19, Z+27	; 0x1b
    28d8:	44 8d       	ldd	r20, Z+28	; 0x1c
    28da:	55 8d       	ldd	r21, Z+29	; 0x1d
    28dc:	da 01       	movw	r26, r20
    28de:	c9 01       	movw	r24, r18
    28e0:	88 0f       	add	r24, r24
    28e2:	99 1f       	adc	r25, r25
    28e4:	aa 1f       	adc	r26, r26
    28e6:	bb 1f       	adc	r27, r27
    28e8:	82 0f       	add	r24, r18
    28ea:	93 1f       	adc	r25, r19
    28ec:	a4 1f       	adc	r26, r20
    28ee:	b5 1f       	adc	r27, r21
    28f0:	9c 01       	movw	r18, r24
    28f2:	ad 01       	movw	r20, r26
    28f4:	56 95       	lsr	r21
    28f6:	47 95       	ror	r20
    28f8:	37 95       	ror	r19
    28fa:	27 95       	ror	r18
    28fc:	8e 89       	ldd	r24, Y+22	; 0x16
    28fe:	9f 89       	ldd	r25, Y+23	; 0x17
    2900:	fc 01       	movw	r30, r24
    2902:	82 8d       	ldd	r24, Z+26	; 0x1a
    2904:	93 8d       	ldd	r25, Z+27	; 0x1b
    2906:	a4 8d       	ldd	r26, Z+28	; 0x1c
    2908:	b5 8d       	ldd	r27, Z+29	; 0x1d
    290a:	81 70       	andi	r24, 0x01	; 1
    290c:	99 27       	eor	r25, r25
    290e:	aa 27       	eor	r26, r26
    2910:	bb 27       	eor	r27, r27
    2912:	82 0f       	add	r24, r18
    2914:	93 1f       	adc	r25, r19
    2916:	a4 1f       	adc	r26, r20
    2918:	b5 1f       	adc	r27, r21
    291a:	88 8b       	std	Y+16, r24	; 0x10
    291c:	99 8b       	std	Y+17, r25	; 0x11
    291e:	aa 8b       	std	Y+18, r26	; 0x12
    2920:	bb 8b       	std	Y+19, r27	; 0x13
    2922:	8e 89       	ldd	r24, Y+22	; 0x16
    2924:	9f 89       	ldd	r25, Y+23	; 0x17
    2926:	fc 01       	movw	r30, r24
    2928:	26 8d       	ldd	r18, Z+30	; 0x1e
    292a:	37 8d       	ldd	r19, Z+31	; 0x1f
    292c:	40 a1       	ldd	r20, Z+32	; 0x20
    292e:	51 a1       	ldd	r21, Z+33	; 0x21
    2930:	88 89       	ldd	r24, Y+16	; 0x10
    2932:	99 89       	ldd	r25, Y+17	; 0x11
    2934:	aa 89       	ldd	r26, Y+18	; 0x12
    2936:	bb 89       	ldd	r27, Y+19	; 0x13
    2938:	81 50       	subi	r24, 0x01	; 1
    293a:	9e 4f       	sbci	r25, 0xFE	; 254
    293c:	af 4f       	sbci	r26, 0xFF	; 255
    293e:	bf 4f       	sbci	r27, 0xFF	; 255
    2940:	07 2e       	mov	r0, r23
    2942:	79 e0       	ldi	r23, 0x09	; 9
    2944:	b6 95       	lsr	r27
    2946:	a7 95       	ror	r26
    2948:	97 95       	ror	r25
    294a:	87 95       	ror	r24
    294c:	7a 95       	dec	r23
    294e:	d1 f7       	brne	.-12     	; 0x2944 <chk_mounted+0x5e0>
    2950:	70 2d       	mov	r23, r0
    2952:	28 17       	cp	r18, r24
    2954:	39 07       	cpc	r19, r25
    2956:	4a 07       	cpc	r20, r26
    2958:	5b 07       	cpc	r21, r27
    295a:	10 f4       	brcc	.+4      	; 0x2960 <chk_mounted+0x5fc>
    295c:	8d e0       	ldi	r24, 0x0D	; 13
    295e:	c0 c0       	rjmp	.+384    	; 0x2ae0 <chk_mounted+0x77c>
    2960:	2e 89       	ldd	r18, Y+22	; 0x16
    2962:	3f 89       	ldd	r19, Y+23	; 0x17
    2964:	8f ef       	ldi	r24, 0xFF	; 255
    2966:	9f ef       	ldi	r25, 0xFF	; 255
    2968:	dc 01       	movw	r26, r24
    296a:	f9 01       	movw	r30, r18
    296c:	86 87       	std	Z+14, r24	; 0x0e
    296e:	97 87       	std	Z+15, r25	; 0x0f
    2970:	a0 8b       	std	Z+16, r26	; 0x10
    2972:	b1 8b       	std	Z+17, r27	; 0x11
    2974:	8e 89       	ldd	r24, Y+22	; 0x16
    2976:	9f 89       	ldd	r25, Y+23	; 0x17
    2978:	fc 01       	movw	r30, r24
    297a:	12 86       	std	Z+10, r1	; 0x0a
    297c:	13 86       	std	Z+11, r1	; 0x0b
    297e:	14 86       	std	Z+12, r1	; 0x0c
    2980:	15 86       	std	Z+13, r1	; 0x0d
    2982:	89 81       	ldd	r24, Y+1	; 0x01
    2984:	83 30       	cpi	r24, 0x03	; 3
    2986:	09 f0       	breq	.+2      	; 0x298a <chk_mounted+0x626>
    2988:	81 c0       	rjmp	.+258    	; 0x2a8c <chk_mounted+0x728>
    298a:	8e 89       	ldd	r24, Y+22	; 0x16
    298c:	9f 89       	ldd	r25, Y+23	; 0x17
    298e:	fc 01       	movw	r30, r24
    2990:	15 82       	std	Z+5, r1	; 0x05
    2992:	8e 89       	ldd	r24, Y+22	; 0x16
    2994:	9f 89       	ldd	r25, Y+23	; 0x17
    2996:	c2 96       	adiw	r24, 0x32	; 50
    2998:	c0 96       	adiw	r24, 0x30	; 48
    299a:	fc 01       	movw	r30, r24
    299c:	80 81       	ld	r24, Z
    299e:	91 81       	ldd	r25, Z+1	; 0x01
    29a0:	9c 01       	movw	r18, r24
    29a2:	40 e0       	ldi	r20, 0x00	; 0
    29a4:	50 e0       	ldi	r21, 0x00	; 0
    29a6:	8c 81       	ldd	r24, Y+4	; 0x04
    29a8:	9d 81       	ldd	r25, Y+5	; 0x05
    29aa:	ae 81       	ldd	r26, Y+6	; 0x06
    29ac:	bf 81       	ldd	r27, Y+7	; 0x07
    29ae:	82 0f       	add	r24, r18
    29b0:	93 1f       	adc	r25, r19
    29b2:	a4 1f       	adc	r26, r20
    29b4:	b5 1f       	adc	r27, r21
    29b6:	2e 89       	ldd	r18, Y+22	; 0x16
    29b8:	3f 89       	ldd	r19, Y+23	; 0x17
    29ba:	f9 01       	movw	r30, r18
    29bc:	82 8b       	std	Z+18, r24	; 0x12
    29be:	93 8b       	std	Z+19, r25	; 0x13
    29c0:	a4 8b       	std	Z+20, r26	; 0x14
    29c2:	b5 8b       	std	Z+21, r27	; 0x15
    29c4:	8e 89       	ldd	r24, Y+22	; 0x16
    29c6:	9f 89       	ldd	r25, Y+23	; 0x17
    29c8:	fc 01       	movw	r30, r24
    29ca:	82 89       	ldd	r24, Z+18	; 0x12
    29cc:	93 89       	ldd	r25, Z+19	; 0x13
    29ce:	a4 89       	ldd	r26, Z+20	; 0x14
    29d0:	b5 89       	ldd	r27, Z+21	; 0x15
    29d2:	2e 89       	ldd	r18, Y+22	; 0x16
    29d4:	3f 89       	ldd	r19, Y+23	; 0x17
    29d6:	b9 01       	movw	r22, r18
    29d8:	6e 5c       	subi	r22, 0xCE	; 206
    29da:	7f 4f       	sbci	r23, 0xFF	; 255
    29dc:	2e 89       	ldd	r18, Y+22	; 0x16
    29de:	3f 89       	ldd	r19, Y+23	; 0x17
    29e0:	f9 01       	movw	r30, r18
    29e2:	f1 81       	ldd	r31, Z+1	; 0x01
    29e4:	fb a7       	std	Y+43, r31	; 0x2b
    29e6:	01 e0       	ldi	r16, 0x01	; 1
    29e8:	9c 01       	movw	r18, r24
    29ea:	ad 01       	movw	r20, r26
    29ec:	8b a5       	ldd	r24, Y+43	; 0x2b
    29ee:	0e 94 32 36 	call	0x6c64	; 0x6c64 <disk_read>
    29f2:	88 23       	and	r24, r24
    29f4:	09 f0       	breq	.+2      	; 0x29f8 <chk_mounted+0x694>
    29f6:	4a c0       	rjmp	.+148    	; 0x2a8c <chk_mounted+0x728>
    29f8:	8e 89       	ldd	r24, Y+22	; 0x16
    29fa:	9f 89       	ldd	r25, Y+23	; 0x17
    29fc:	c2 96       	adiw	r24, 0x32	; 50
    29fe:	82 50       	subi	r24, 0x02	; 2
    2a00:	9e 4f       	sbci	r25, 0xFE	; 254
    2a02:	fc 01       	movw	r30, r24
    2a04:	80 81       	ld	r24, Z
    2a06:	91 81       	ldd	r25, Z+1	; 0x01
    2a08:	85 35       	cpi	r24, 0x55	; 85
    2a0a:	9a 4a       	sbci	r25, 0xAA	; 170
    2a0c:	09 f0       	breq	.+2      	; 0x2a10 <chk_mounted+0x6ac>
    2a0e:	3e c0       	rjmp	.+124    	; 0x2a8c <chk_mounted+0x728>
    2a10:	8e 89       	ldd	r24, Y+22	; 0x16
    2a12:	9f 89       	ldd	r25, Y+23	; 0x17
    2a14:	c2 96       	adiw	r24, 0x32	; 50
    2a16:	fc 01       	movw	r30, r24
    2a18:	80 81       	ld	r24, Z
    2a1a:	91 81       	ldd	r25, Z+1	; 0x01
    2a1c:	a2 81       	ldd	r26, Z+2	; 0x02
    2a1e:	b3 81       	ldd	r27, Z+3	; 0x03
    2a20:	82 35       	cpi	r24, 0x52	; 82
    2a22:	92 45       	sbci	r25, 0x52	; 82
    2a24:	a1 46       	sbci	r26, 0x61	; 97
    2a26:	b1 44       	sbci	r27, 0x41	; 65
    2a28:	89 f5       	brne	.+98     	; 0x2a8c <chk_mounted+0x728>
    2a2a:	8e 89       	ldd	r24, Y+22	; 0x16
    2a2c:	9f 89       	ldd	r25, Y+23	; 0x17
    2a2e:	c2 96       	adiw	r24, 0x32	; 50
    2a30:	8c 51       	subi	r24, 0x1C	; 28
    2a32:	9e 4f       	sbci	r25, 0xFE	; 254
    2a34:	fc 01       	movw	r30, r24
    2a36:	80 81       	ld	r24, Z
    2a38:	91 81       	ldd	r25, Z+1	; 0x01
    2a3a:	a2 81       	ldd	r26, Z+2	; 0x02
    2a3c:	b3 81       	ldd	r27, Z+3	; 0x03
    2a3e:	82 37       	cpi	r24, 0x72	; 114
    2a40:	92 47       	sbci	r25, 0x72	; 114
    2a42:	a1 44       	sbci	r26, 0x41	; 65
    2a44:	b1 46       	sbci	r27, 0x61	; 97
    2a46:	11 f5       	brne	.+68     	; 0x2a8c <chk_mounted+0x728>
    2a48:	8e 89       	ldd	r24, Y+22	; 0x16
    2a4a:	9f 89       	ldd	r25, Y+23	; 0x17
    2a4c:	c2 96       	adiw	r24, 0x32	; 50
    2a4e:	84 51       	subi	r24, 0x14	; 20
    2a50:	9e 4f       	sbci	r25, 0xFE	; 254
    2a52:	fc 01       	movw	r30, r24
    2a54:	80 81       	ld	r24, Z
    2a56:	91 81       	ldd	r25, Z+1	; 0x01
    2a58:	a2 81       	ldd	r26, Z+2	; 0x02
    2a5a:	b3 81       	ldd	r27, Z+3	; 0x03
    2a5c:	2e 89       	ldd	r18, Y+22	; 0x16
    2a5e:	3f 89       	ldd	r19, Y+23	; 0x17
    2a60:	f9 01       	movw	r30, r18
    2a62:	82 87       	std	Z+10, r24	; 0x0a
    2a64:	93 87       	std	Z+11, r25	; 0x0b
    2a66:	a4 87       	std	Z+12, r26	; 0x0c
    2a68:	b5 87       	std	Z+13, r27	; 0x0d
    2a6a:	8e 89       	ldd	r24, Y+22	; 0x16
    2a6c:	9f 89       	ldd	r25, Y+23	; 0x17
    2a6e:	c2 96       	adiw	r24, 0x32	; 50
    2a70:	88 51       	subi	r24, 0x18	; 24
    2a72:	9e 4f       	sbci	r25, 0xFE	; 254
    2a74:	fc 01       	movw	r30, r24
    2a76:	80 81       	ld	r24, Z
    2a78:	91 81       	ldd	r25, Z+1	; 0x01
    2a7a:	a2 81       	ldd	r26, Z+2	; 0x02
    2a7c:	b3 81       	ldd	r27, Z+3	; 0x03
    2a7e:	2e 89       	ldd	r18, Y+22	; 0x16
    2a80:	3f 89       	ldd	r19, Y+23	; 0x17
    2a82:	f9 01       	movw	r30, r18
    2a84:	86 87       	std	Z+14, r24	; 0x0e
    2a86:	97 87       	std	Z+15, r25	; 0x0f
    2a88:	a0 8b       	std	Z+16, r26	; 0x10
    2a8a:	b1 8b       	std	Z+17, r27	; 0x11
    2a8c:	8e 89       	ldd	r24, Y+22	; 0x16
    2a8e:	9f 89       	ldd	r25, Y+23	; 0x17
    2a90:	29 81       	ldd	r18, Y+1	; 0x01
    2a92:	fc 01       	movw	r30, r24
    2a94:	20 83       	st	Z, r18
    2a96:	80 91 8c 01 	lds	r24, 0x018C	; 0x80018c <Fsid>
    2a9a:	90 91 8d 01 	lds	r25, 0x018D	; 0x80018d <Fsid+0x1>
    2a9e:	01 96       	adiw	r24, 0x01	; 1
    2aa0:	90 93 8d 01 	sts	0x018D, r25	; 0x80018d <Fsid+0x1>
    2aa4:	80 93 8c 01 	sts	0x018C, r24	; 0x80018c <Fsid>
    2aa8:	20 91 8c 01 	lds	r18, 0x018C	; 0x80018c <Fsid>
    2aac:	30 91 8d 01 	lds	r19, 0x018D	; 0x80018d <Fsid+0x1>
    2ab0:	8e 89       	ldd	r24, Y+22	; 0x16
    2ab2:	9f 89       	ldd	r25, Y+23	; 0x17
    2ab4:	fc 01       	movw	r30, r24
    2ab6:	37 83       	std	Z+7, r19	; 0x07
    2ab8:	26 83       	std	Z+6, r18	; 0x06
    2aba:	8e 89       	ldd	r24, Y+22	; 0x16
    2abc:	9f 89       	ldd	r25, Y+23	; 0x17
    2abe:	fc 01       	movw	r30, r24
    2ac0:	16 a6       	std	Z+46, r1	; 0x2e
    2ac2:	17 a6       	std	Z+47, r1	; 0x2f
    2ac4:	10 aa       	std	Z+48, r1	; 0x30
    2ac6:	11 aa       	std	Z+49, r1	; 0x31
    2ac8:	8e 89       	ldd	r24, Y+22	; 0x16
    2aca:	9f 89       	ldd	r25, Y+23	; 0x17
    2acc:	fc 01       	movw	r30, r24
    2ace:	14 82       	std	Z+4, r1	; 0x04
    2ad0:	8e 89       	ldd	r24, Y+22	; 0x16
    2ad2:	9f 89       	ldd	r25, Y+23	; 0x17
    2ad4:	fc 01       	movw	r30, r24
    2ad6:	16 8a       	std	Z+22, r1	; 0x16
    2ad8:	17 8a       	std	Z+23, r1	; 0x17
    2ada:	10 8e       	std	Z+24, r1	; 0x18
    2adc:	11 8e       	std	Z+25, r1	; 0x19
    2ade:	80 e0       	ldi	r24, 0x00	; 0
    2ae0:	ab 96       	adiw	r28, 0x2b	; 43
    2ae2:	0f b6       	in	r0, 0x3f	; 63
    2ae4:	f8 94       	cli
    2ae6:	de bf       	out	0x3e, r29	; 62
    2ae8:	0f be       	out	0x3f, r0	; 63
    2aea:	cd bf       	out	0x3d, r28	; 61
    2aec:	df 91       	pop	r29
    2aee:	cf 91       	pop	r28
    2af0:	1f 91       	pop	r17
    2af2:	0f 91       	pop	r16
    2af4:	ff 90       	pop	r15
    2af6:	ef 90       	pop	r14
    2af8:	08 95       	ret

00002afa <validate>:
    2afa:	cf 93       	push	r28
    2afc:	df 93       	push	r29
    2afe:	00 d0       	rcall	.+0      	; 0x2b00 <validate+0x6>
    2b00:	00 d0       	rcall	.+0      	; 0x2b02 <validate+0x8>
    2b02:	cd b7       	in	r28, 0x3d	; 61
    2b04:	de b7       	in	r29, 0x3e	; 62
    2b06:	9a 83       	std	Y+2, r25	; 0x02
    2b08:	89 83       	std	Y+1, r24	; 0x01
    2b0a:	7c 83       	std	Y+4, r23	; 0x04
    2b0c:	6b 83       	std	Y+3, r22	; 0x03
    2b0e:	89 81       	ldd	r24, Y+1	; 0x01
    2b10:	9a 81       	ldd	r25, Y+2	; 0x02
    2b12:	89 2b       	or	r24, r25
    2b14:	81 f0       	breq	.+32     	; 0x2b36 <validate+0x3c>
    2b16:	89 81       	ldd	r24, Y+1	; 0x01
    2b18:	9a 81       	ldd	r25, Y+2	; 0x02
    2b1a:	fc 01       	movw	r30, r24
    2b1c:	80 81       	ld	r24, Z
    2b1e:	88 23       	and	r24, r24
    2b20:	51 f0       	breq	.+20     	; 0x2b36 <validate+0x3c>
    2b22:	89 81       	ldd	r24, Y+1	; 0x01
    2b24:	9a 81       	ldd	r25, Y+2	; 0x02
    2b26:	fc 01       	movw	r30, r24
    2b28:	26 81       	ldd	r18, Z+6	; 0x06
    2b2a:	37 81       	ldd	r19, Z+7	; 0x07
    2b2c:	8b 81       	ldd	r24, Y+3	; 0x03
    2b2e:	9c 81       	ldd	r25, Y+4	; 0x04
    2b30:	28 17       	cp	r18, r24
    2b32:	39 07       	cpc	r19, r25
    2b34:	11 f0       	breq	.+4      	; 0x2b3a <validate+0x40>
    2b36:	89 e0       	ldi	r24, 0x09	; 9
    2b38:	0f c0       	rjmp	.+30     	; 0x2b58 <validate+0x5e>
    2b3a:	89 81       	ldd	r24, Y+1	; 0x01
    2b3c:	9a 81       	ldd	r25, Y+2	; 0x02
    2b3e:	fc 01       	movw	r30, r24
    2b40:	81 81       	ldd	r24, Z+1	; 0x01
    2b42:	0e 94 21 36 	call	0x6c42	; 0x6c42 <disk_status>
    2b46:	88 2f       	mov	r24, r24
    2b48:	90 e0       	ldi	r25, 0x00	; 0
    2b4a:	81 70       	andi	r24, 0x01	; 1
    2b4c:	99 27       	eor	r25, r25
    2b4e:	89 2b       	or	r24, r25
    2b50:	11 f0       	breq	.+4      	; 0x2b56 <validate+0x5c>
    2b52:	83 e0       	ldi	r24, 0x03	; 3
    2b54:	01 c0       	rjmp	.+2      	; 0x2b58 <validate+0x5e>
    2b56:	80 e0       	ldi	r24, 0x00	; 0
    2b58:	0f 90       	pop	r0
    2b5a:	0f 90       	pop	r0
    2b5c:	0f 90       	pop	r0
    2b5e:	0f 90       	pop	r0
    2b60:	df 91       	pop	r29
    2b62:	cf 91       	pop	r28
    2b64:	08 95       	ret

00002b66 <f_mount>:
    2b66:	cf 93       	push	r28
    2b68:	df 93       	push	r29
    2b6a:	00 d0       	rcall	.+0      	; 0x2b6c <f_mount+0x6>
    2b6c:	00 d0       	rcall	.+0      	; 0x2b6e <f_mount+0x8>
    2b6e:	1f 92       	push	r1
    2b70:	cd b7       	in	r28, 0x3d	; 61
    2b72:	de b7       	in	r29, 0x3e	; 62
    2b74:	8b 83       	std	Y+3, r24	; 0x03
    2b76:	7d 83       	std	Y+5, r23	; 0x05
    2b78:	6c 83       	std	Y+4, r22	; 0x04
    2b7a:	8b 81       	ldd	r24, Y+3	; 0x03
    2b7c:	88 23       	and	r24, r24
    2b7e:	11 f0       	breq	.+4      	; 0x2b84 <f_mount+0x1e>
    2b80:	8b e0       	ldi	r24, 0x0B	; 11
    2b82:	29 c0       	rjmp	.+82     	; 0x2bd6 <f_mount+0x70>
    2b84:	8b 81       	ldd	r24, Y+3	; 0x03
    2b86:	88 2f       	mov	r24, r24
    2b88:	90 e0       	ldi	r25, 0x00	; 0
    2b8a:	88 0f       	add	r24, r24
    2b8c:	99 1f       	adc	r25, r25
    2b8e:	86 57       	subi	r24, 0x76	; 118
    2b90:	9e 4f       	sbci	r25, 0xFE	; 254
    2b92:	fc 01       	movw	r30, r24
    2b94:	80 81       	ld	r24, Z
    2b96:	91 81       	ldd	r25, Z+1	; 0x01
    2b98:	9a 83       	std	Y+2, r25	; 0x02
    2b9a:	89 83       	std	Y+1, r24	; 0x01
    2b9c:	89 81       	ldd	r24, Y+1	; 0x01
    2b9e:	9a 81       	ldd	r25, Y+2	; 0x02
    2ba0:	89 2b       	or	r24, r25
    2ba2:	21 f0       	breq	.+8      	; 0x2bac <f_mount+0x46>
    2ba4:	89 81       	ldd	r24, Y+1	; 0x01
    2ba6:	9a 81       	ldd	r25, Y+2	; 0x02
    2ba8:	fc 01       	movw	r30, r24
    2baa:	10 82       	st	Z, r1
    2bac:	8c 81       	ldd	r24, Y+4	; 0x04
    2bae:	9d 81       	ldd	r25, Y+5	; 0x05
    2bb0:	89 2b       	or	r24, r25
    2bb2:	21 f0       	breq	.+8      	; 0x2bbc <f_mount+0x56>
    2bb4:	8c 81       	ldd	r24, Y+4	; 0x04
    2bb6:	9d 81       	ldd	r25, Y+5	; 0x05
    2bb8:	fc 01       	movw	r30, r24
    2bba:	10 82       	st	Z, r1
    2bbc:	8b 81       	ldd	r24, Y+3	; 0x03
    2bbe:	88 2f       	mov	r24, r24
    2bc0:	90 e0       	ldi	r25, 0x00	; 0
    2bc2:	88 0f       	add	r24, r24
    2bc4:	99 1f       	adc	r25, r25
    2bc6:	86 57       	subi	r24, 0x76	; 118
    2bc8:	9e 4f       	sbci	r25, 0xFE	; 254
    2bca:	2c 81       	ldd	r18, Y+4	; 0x04
    2bcc:	3d 81       	ldd	r19, Y+5	; 0x05
    2bce:	fc 01       	movw	r30, r24
    2bd0:	31 83       	std	Z+1, r19	; 0x01
    2bd2:	20 83       	st	Z, r18
    2bd4:	80 e0       	ldi	r24, 0x00	; 0
    2bd6:	0f 90       	pop	r0
    2bd8:	0f 90       	pop	r0
    2bda:	0f 90       	pop	r0
    2bdc:	0f 90       	pop	r0
    2bde:	0f 90       	pop	r0
    2be0:	df 91       	pop	r29
    2be2:	cf 91       	pop	r28
    2be4:	08 95       	ret

00002be6 <f_open>:
    2be6:	cf 93       	push	r28
    2be8:	df 93       	push	r29
    2bea:	cd b7       	in	r28, 0x3d	; 61
    2bec:	de b7       	in	r29, 0x3e	; 62
    2bee:	e2 97       	sbiw	r28, 0x32	; 50
    2bf0:	0f b6       	in	r0, 0x3f	; 63
    2bf2:	f8 94       	cli
    2bf4:	de bf       	out	0x3e, r29	; 62
    2bf6:	0f be       	out	0x3f, r0	; 63
    2bf8:	cd bf       	out	0x3d, r28	; 61
    2bfa:	9f a7       	std	Y+47, r25	; 0x2f
    2bfc:	8e a7       	std	Y+46, r24	; 0x2e
    2bfe:	79 ab       	std	Y+49, r23	; 0x31
    2c00:	68 ab       	std	Y+48, r22	; 0x30
    2c02:	4a ab       	std	Y+50, r20	; 0x32
    2c04:	8e a5       	ldd	r24, Y+46	; 0x2e
    2c06:	9f a5       	ldd	r25, Y+47	; 0x2f
    2c08:	fc 01       	movw	r30, r24
    2c0a:	11 82       	std	Z+1, r1	; 0x01
    2c0c:	10 82       	st	Z, r1
    2c0e:	8a a9       	ldd	r24, Y+50	; 0x32
    2c10:	8f 71       	andi	r24, 0x1F	; 31
    2c12:	8a ab       	std	Y+50, r24	; 0x32
    2c14:	8a a9       	ldd	r24, Y+50	; 0x32
    2c16:	48 2f       	mov	r20, r24
    2c18:	4e 7f       	andi	r20, 0xFE	; 254
    2c1a:	9e 01       	movw	r18, r28
    2c1c:	24 5f       	subi	r18, 0xF4	; 244
    2c1e:	3f 4f       	sbci	r19, 0xFF	; 255
    2c20:	ce 01       	movw	r24, r28
    2c22:	c0 96       	adiw	r24, 0x30	; 48
    2c24:	b9 01       	movw	r22, r18
    2c26:	0e 94 b2 11 	call	0x2364	; 0x2364 <chk_mounted>
    2c2a:	89 83       	std	Y+1, r24	; 0x01
    2c2c:	ce 01       	movw	r24, r28
    2c2e:	82 96       	adiw	r24, 0x22	; 34
    2c30:	99 a3       	std	Y+33, r25	; 0x21
    2c32:	88 a3       	std	Y+32, r24	; 0x20
    2c34:	89 81       	ldd	r24, Y+1	; 0x01
    2c36:	88 23       	and	r24, r24
    2c38:	41 f4       	brne	.+16     	; 0x2c4a <f_open+0x64>
    2c3a:	28 a9       	ldd	r18, Y+48	; 0x30
    2c3c:	39 a9       	ldd	r19, Y+49	; 0x31
    2c3e:	ce 01       	movw	r24, r28
    2c40:	0c 96       	adiw	r24, 0x0c	; 12
    2c42:	b9 01       	movw	r22, r18
    2c44:	0e 94 71 10 	call	0x20e2	; 0x20e2 <follow_path>
    2c48:	89 83       	std	Y+1, r24	; 0x01
    2c4a:	8e 8d       	ldd	r24, Y+30	; 0x1e
    2c4c:	9f 8d       	ldd	r25, Y+31	; 0x1f
    2c4e:	9b 83       	std	Y+3, r25	; 0x03
    2c50:	8a 83       	std	Y+2, r24	; 0x02
    2c52:	89 81       	ldd	r24, Y+1	; 0x01
    2c54:	88 23       	and	r24, r24
    2c56:	31 f4       	brne	.+12     	; 0x2c64 <f_open+0x7e>
    2c58:	8a 81       	ldd	r24, Y+2	; 0x02
    2c5a:	9b 81       	ldd	r25, Y+3	; 0x03
    2c5c:	89 2b       	or	r24, r25
    2c5e:	11 f4       	brne	.+4      	; 0x2c64 <f_open+0x7e>
    2c60:	86 e0       	ldi	r24, 0x06	; 6
    2c62:	89 83       	std	Y+1, r24	; 0x01
    2c64:	8a a9       	ldd	r24, Y+50	; 0x32
    2c66:	88 2f       	mov	r24, r24
    2c68:	90 e0       	ldi	r25, 0x00	; 0
    2c6a:	8c 71       	andi	r24, 0x1C	; 28
    2c6c:	99 27       	eor	r25, r25
    2c6e:	89 2b       	or	r24, r25
    2c70:	09 f4       	brne	.+2      	; 0x2c74 <f_open+0x8e>
    2c72:	c6 c0       	rjmp	.+396    	; 0x2e00 <f_open+0x21a>
    2c74:	89 81       	ldd	r24, Y+1	; 0x01
    2c76:	88 23       	and	r24, r24
    2c78:	81 f0       	breq	.+32     	; 0x2c9a <f_open+0xb4>
    2c7a:	89 81       	ldd	r24, Y+1	; 0x01
    2c7c:	84 30       	cpi	r24, 0x04	; 4
    2c7e:	29 f4       	brne	.+10     	; 0x2c8a <f_open+0xa4>
    2c80:	ce 01       	movw	r24, r28
    2c82:	0c 96       	adiw	r24, 0x0c	; 12
    2c84:	0e 94 9f 0e 	call	0x1d3e	; 0x1d3e <dir_register>
    2c88:	89 83       	std	Y+1, r24	; 0x01
    2c8a:	8a a9       	ldd	r24, Y+50	; 0x32
    2c8c:	88 60       	ori	r24, 0x08	; 8
    2c8e:	8a ab       	std	Y+50, r24	; 0x32
    2c90:	8e 8d       	ldd	r24, Y+30	; 0x1e
    2c92:	9f 8d       	ldd	r25, Y+31	; 0x1f
    2c94:	9b 83       	std	Y+3, r25	; 0x03
    2c96:	8a 83       	std	Y+2, r24	; 0x02
    2c98:	17 c0       	rjmp	.+46     	; 0x2cc8 <f_open+0xe2>
    2c9a:	8a a9       	ldd	r24, Y+50	; 0x32
    2c9c:	88 2f       	mov	r24, r24
    2c9e:	90 e0       	ldi	r25, 0x00	; 0
    2ca0:	84 70       	andi	r24, 0x04	; 4
    2ca2:	99 27       	eor	r25, r25
    2ca4:	89 2b       	or	r24, r25
    2ca6:	19 f0       	breq	.+6      	; 0x2cae <f_open+0xc8>
    2ca8:	88 e0       	ldi	r24, 0x08	; 8
    2caa:	89 83       	std	Y+1, r24	; 0x01
    2cac:	0d c0       	rjmp	.+26     	; 0x2cc8 <f_open+0xe2>
    2cae:	8a 81       	ldd	r24, Y+2	; 0x02
    2cb0:	9b 81       	ldd	r25, Y+3	; 0x03
    2cb2:	0b 96       	adiw	r24, 0x0b	; 11
    2cb4:	fc 01       	movw	r30, r24
    2cb6:	80 81       	ld	r24, Z
    2cb8:	88 2f       	mov	r24, r24
    2cba:	90 e0       	ldi	r25, 0x00	; 0
    2cbc:	81 71       	andi	r24, 0x11	; 17
    2cbe:	99 27       	eor	r25, r25
    2cc0:	89 2b       	or	r24, r25
    2cc2:	11 f0       	breq	.+4      	; 0x2cc8 <f_open+0xe2>
    2cc4:	87 e0       	ldi	r24, 0x07	; 7
    2cc6:	89 83       	std	Y+1, r24	; 0x01
    2cc8:	89 81       	ldd	r24, Y+1	; 0x01
    2cca:	88 23       	and	r24, r24
    2ccc:	09 f0       	breq	.+2      	; 0x2cd0 <f_open+0xea>
    2cce:	bd c0       	rjmp	.+378    	; 0x2e4a <f_open+0x264>
    2cd0:	8a a9       	ldd	r24, Y+50	; 0x32
    2cd2:	88 2f       	mov	r24, r24
    2cd4:	90 e0       	ldi	r25, 0x00	; 0
    2cd6:	88 70       	andi	r24, 0x08	; 8
    2cd8:	99 27       	eor	r25, r25
    2cda:	89 2b       	or	r24, r25
    2cdc:	09 f4       	brne	.+2      	; 0x2ce0 <f_open+0xfa>
    2cde:	b5 c0       	rjmp	.+362    	; 0x2e4a <f_open+0x264>
    2ce0:	0e 94 2d 1e 	call	0x3c5a	; 0x3c5a <get_fattime>
    2ce4:	dc 01       	movw	r26, r24
    2ce6:	cb 01       	movw	r24, r22
    2ce8:	8c 83       	std	Y+4, r24	; 0x04
    2cea:	9d 83       	std	Y+5, r25	; 0x05
    2cec:	ae 83       	std	Y+6, r26	; 0x06
    2cee:	bf 83       	std	Y+7, r27	; 0x07
    2cf0:	8a 81       	ldd	r24, Y+2	; 0x02
    2cf2:	9b 81       	ldd	r25, Y+3	; 0x03
    2cf4:	9c 01       	movw	r18, r24
    2cf6:	22 5f       	subi	r18, 0xF2	; 242
    2cf8:	3f 4f       	sbci	r19, 0xFF	; 255
    2cfa:	8c 81       	ldd	r24, Y+4	; 0x04
    2cfc:	9d 81       	ldd	r25, Y+5	; 0x05
    2cfe:	ae 81       	ldd	r26, Y+6	; 0x06
    2d00:	bf 81       	ldd	r27, Y+7	; 0x07
    2d02:	f9 01       	movw	r30, r18
    2d04:	80 83       	st	Z, r24
    2d06:	91 83       	std	Z+1, r25	; 0x01
    2d08:	a2 83       	std	Z+2, r26	; 0x02
    2d0a:	b3 83       	std	Z+3, r27	; 0x03
    2d0c:	8a 81       	ldd	r24, Y+2	; 0x02
    2d0e:	9b 81       	ldd	r25, Y+3	; 0x03
    2d10:	0b 96       	adiw	r24, 0x0b	; 11
    2d12:	fc 01       	movw	r30, r24
    2d14:	10 82       	st	Z, r1
    2d16:	8a 81       	ldd	r24, Y+2	; 0x02
    2d18:	9b 81       	ldd	r25, Y+3	; 0x03
    2d1a:	4c 96       	adiw	r24, 0x1c	; 28
    2d1c:	fc 01       	movw	r30, r24
    2d1e:	10 82       	st	Z, r1
    2d20:	11 82       	std	Z+1, r1	; 0x01
    2d22:	12 82       	std	Z+2, r1	; 0x02
    2d24:	13 82       	std	Z+3, r1	; 0x03
    2d26:	8a 81       	ldd	r24, Y+2	; 0x02
    2d28:	9b 81       	ldd	r25, Y+3	; 0x03
    2d2a:	44 96       	adiw	r24, 0x14	; 20
    2d2c:	fc 01       	movw	r30, r24
    2d2e:	80 81       	ld	r24, Z
    2d30:	91 81       	ldd	r25, Z+1	; 0x01
    2d32:	cc 01       	movw	r24, r24
    2d34:	a0 e0       	ldi	r26, 0x00	; 0
    2d36:	b0 e0       	ldi	r27, 0x00	; 0
    2d38:	ac 01       	movw	r20, r24
    2d3a:	33 27       	eor	r19, r19
    2d3c:	22 27       	eor	r18, r18
    2d3e:	8a 81       	ldd	r24, Y+2	; 0x02
    2d40:	9b 81       	ldd	r25, Y+3	; 0x03
    2d42:	4a 96       	adiw	r24, 0x1a	; 26
    2d44:	fc 01       	movw	r30, r24
    2d46:	80 81       	ld	r24, Z
    2d48:	91 81       	ldd	r25, Z+1	; 0x01
    2d4a:	cc 01       	movw	r24, r24
    2d4c:	a0 e0       	ldi	r26, 0x00	; 0
    2d4e:	b0 e0       	ldi	r27, 0x00	; 0
    2d50:	82 2b       	or	r24, r18
    2d52:	93 2b       	or	r25, r19
    2d54:	a4 2b       	or	r26, r20
    2d56:	b5 2b       	or	r27, r21
    2d58:	88 87       	std	Y+8, r24	; 0x08
    2d5a:	99 87       	std	Y+9, r25	; 0x09
    2d5c:	aa 87       	std	Y+10, r26	; 0x0a
    2d5e:	bb 87       	std	Y+11, r27	; 0x0b
    2d60:	8a 81       	ldd	r24, Y+2	; 0x02
    2d62:	9b 81       	ldd	r25, Y+3	; 0x03
    2d64:	4a 96       	adiw	r24, 0x1a	; 26
    2d66:	fc 01       	movw	r30, r24
    2d68:	11 82       	std	Z+1, r1	; 0x01
    2d6a:	10 82       	st	Z, r1
    2d6c:	8a 81       	ldd	r24, Y+2	; 0x02
    2d6e:	9b 81       	ldd	r25, Y+3	; 0x03
    2d70:	44 96       	adiw	r24, 0x14	; 20
    2d72:	fc 01       	movw	r30, r24
    2d74:	11 82       	std	Z+1, r1	; 0x01
    2d76:	10 82       	st	Z, r1
    2d78:	8c 85       	ldd	r24, Y+12	; 0x0c
    2d7a:	9d 85       	ldd	r25, Y+13	; 0x0d
    2d7c:	21 e0       	ldi	r18, 0x01	; 1
    2d7e:	fc 01       	movw	r30, r24
    2d80:	24 83       	std	Z+4, r18	; 0x04
    2d82:	88 85       	ldd	r24, Y+8	; 0x08
    2d84:	99 85       	ldd	r25, Y+9	; 0x09
    2d86:	aa 85       	ldd	r26, Y+10	; 0x0a
    2d88:	bb 85       	ldd	r27, Y+11	; 0x0b
    2d8a:	89 2b       	or	r24, r25
    2d8c:	8a 2b       	or	r24, r26
    2d8e:	8b 2b       	or	r24, r27
    2d90:	09 f4       	brne	.+2      	; 0x2d94 <f_open+0x1ae>
    2d92:	5b c0       	rjmp	.+182    	; 0x2e4a <f_open+0x264>
    2d94:	8c 85       	ldd	r24, Y+12	; 0x0c
    2d96:	9d 85       	ldd	r25, Y+13	; 0x0d
    2d98:	fc 01       	movw	r30, r24
    2d9a:	86 a5       	ldd	r24, Z+46	; 0x2e
    2d9c:	97 a5       	ldd	r25, Z+47	; 0x2f
    2d9e:	a0 a9       	ldd	r26, Z+48	; 0x30
    2da0:	b1 a9       	ldd	r27, Z+49	; 0x31
    2da2:	8c 83       	std	Y+4, r24	; 0x04
    2da4:	9d 83       	std	Y+5, r25	; 0x05
    2da6:	ae 83       	std	Y+6, r26	; 0x06
    2da8:	bf 83       	std	Y+7, r27	; 0x07
    2daa:	2c 85       	ldd	r18, Y+12	; 0x0c
    2dac:	3d 85       	ldd	r19, Y+13	; 0x0d
    2dae:	88 85       	ldd	r24, Y+8	; 0x08
    2db0:	99 85       	ldd	r25, Y+9	; 0x09
    2db2:	aa 85       	ldd	r26, Y+10	; 0x0a
    2db4:	bb 85       	ldd	r27, Y+11	; 0x0b
    2db6:	ac 01       	movw	r20, r24
    2db8:	bd 01       	movw	r22, r26
    2dba:	c9 01       	movw	r24, r18
    2dbc:	0e 94 d0 08 	call	0x11a0	; 0x11a0 <remove_chain>
    2dc0:	89 83       	std	Y+1, r24	; 0x01
    2dc2:	89 81       	ldd	r24, Y+1	; 0x01
    2dc4:	88 23       	and	r24, r24
    2dc6:	09 f0       	breq	.+2      	; 0x2dca <f_open+0x1e4>
    2dc8:	40 c0       	rjmp	.+128    	; 0x2e4a <f_open+0x264>
    2dca:	2c 85       	ldd	r18, Y+12	; 0x0c
    2dcc:	3d 85       	ldd	r19, Y+13	; 0x0d
    2dce:	88 85       	ldd	r24, Y+8	; 0x08
    2dd0:	99 85       	ldd	r25, Y+9	; 0x09
    2dd2:	aa 85       	ldd	r26, Y+10	; 0x0a
    2dd4:	bb 85       	ldd	r27, Y+11	; 0x0b
    2dd6:	01 97       	sbiw	r24, 0x01	; 1
    2dd8:	a1 09       	sbc	r26, r1
    2dda:	b1 09       	sbc	r27, r1
    2ddc:	f9 01       	movw	r30, r18
    2dde:	82 87       	std	Z+10, r24	; 0x0a
    2de0:	93 87       	std	Z+11, r25	; 0x0b
    2de2:	a4 87       	std	Z+12, r26	; 0x0c
    2de4:	b5 87       	std	Z+13, r27	; 0x0d
    2de6:	2c 85       	ldd	r18, Y+12	; 0x0c
    2de8:	3d 85       	ldd	r19, Y+13	; 0x0d
    2dea:	8c 81       	ldd	r24, Y+4	; 0x04
    2dec:	9d 81       	ldd	r25, Y+5	; 0x05
    2dee:	ae 81       	ldd	r26, Y+6	; 0x06
    2df0:	bf 81       	ldd	r27, Y+7	; 0x07
    2df2:	ac 01       	movw	r20, r24
    2df4:	bd 01       	movw	r22, r26
    2df6:	c9 01       	movw	r24, r18
    2df8:	0e 94 e4 03 	call	0x7c8	; 0x7c8 <move_window>
    2dfc:	89 83       	std	Y+1, r24	; 0x01
    2dfe:	25 c0       	rjmp	.+74     	; 0x2e4a <f_open+0x264>
    2e00:	89 81       	ldd	r24, Y+1	; 0x01
    2e02:	88 23       	and	r24, r24
    2e04:	11 f5       	brne	.+68     	; 0x2e4a <f_open+0x264>
    2e06:	8a 81       	ldd	r24, Y+2	; 0x02
    2e08:	9b 81       	ldd	r25, Y+3	; 0x03
    2e0a:	0b 96       	adiw	r24, 0x0b	; 11
    2e0c:	fc 01       	movw	r30, r24
    2e0e:	80 81       	ld	r24, Z
    2e10:	88 2f       	mov	r24, r24
    2e12:	90 e0       	ldi	r25, 0x00	; 0
    2e14:	80 71       	andi	r24, 0x10	; 16
    2e16:	99 27       	eor	r25, r25
    2e18:	89 2b       	or	r24, r25
    2e1a:	19 f0       	breq	.+6      	; 0x2e22 <f_open+0x23c>
    2e1c:	84 e0       	ldi	r24, 0x04	; 4
    2e1e:	89 83       	std	Y+1, r24	; 0x01
    2e20:	14 c0       	rjmp	.+40     	; 0x2e4a <f_open+0x264>
    2e22:	8a a9       	ldd	r24, Y+50	; 0x32
    2e24:	88 2f       	mov	r24, r24
    2e26:	90 e0       	ldi	r25, 0x00	; 0
    2e28:	82 70       	andi	r24, 0x02	; 2
    2e2a:	99 27       	eor	r25, r25
    2e2c:	89 2b       	or	r24, r25
    2e2e:	69 f0       	breq	.+26     	; 0x2e4a <f_open+0x264>
    2e30:	8a 81       	ldd	r24, Y+2	; 0x02
    2e32:	9b 81       	ldd	r25, Y+3	; 0x03
    2e34:	0b 96       	adiw	r24, 0x0b	; 11
    2e36:	fc 01       	movw	r30, r24
    2e38:	80 81       	ld	r24, Z
    2e3a:	88 2f       	mov	r24, r24
    2e3c:	90 e0       	ldi	r25, 0x00	; 0
    2e3e:	81 70       	andi	r24, 0x01	; 1
    2e40:	99 27       	eor	r25, r25
    2e42:	89 2b       	or	r24, r25
    2e44:	11 f0       	breq	.+4      	; 0x2e4a <f_open+0x264>
    2e46:	87 e0       	ldi	r24, 0x07	; 7
    2e48:	89 83       	std	Y+1, r24	; 0x01
    2e4a:	89 81       	ldd	r24, Y+1	; 0x01
    2e4c:	88 23       	and	r24, r24
    2e4e:	f9 f4       	brne	.+62     	; 0x2e8e <f_open+0x2a8>
    2e50:	8a a9       	ldd	r24, Y+50	; 0x32
    2e52:	88 2f       	mov	r24, r24
    2e54:	90 e0       	ldi	r25, 0x00	; 0
    2e56:	88 70       	andi	r24, 0x08	; 8
    2e58:	99 27       	eor	r25, r25
    2e5a:	89 2b       	or	r24, r25
    2e5c:	19 f0       	breq	.+6      	; 0x2e64 <f_open+0x27e>
    2e5e:	8a a9       	ldd	r24, Y+50	; 0x32
    2e60:	80 62       	ori	r24, 0x20	; 32
    2e62:	8a ab       	std	Y+50, r24	; 0x32
    2e64:	8c 85       	ldd	r24, Y+12	; 0x0c
    2e66:	9d 85       	ldd	r25, Y+13	; 0x0d
    2e68:	fc 01       	movw	r30, r24
    2e6a:	86 a5       	ldd	r24, Z+46	; 0x2e
    2e6c:	97 a5       	ldd	r25, Z+47	; 0x2f
    2e6e:	a0 a9       	ldd	r26, Z+48	; 0x30
    2e70:	b1 a9       	ldd	r27, Z+49	; 0x31
    2e72:	2e a5       	ldd	r18, Y+46	; 0x2e
    2e74:	3f a5       	ldd	r19, Y+47	; 0x2f
    2e76:	f9 01       	movw	r30, r18
    2e78:	82 8f       	std	Z+26, r24	; 0x1a
    2e7a:	93 8f       	std	Z+27, r25	; 0x1b
    2e7c:	a4 8f       	std	Z+28, r26	; 0x1c
    2e7e:	b5 8f       	std	Z+29, r27	; 0x1d
    2e80:	8e a5       	ldd	r24, Y+46	; 0x2e
    2e82:	9f a5       	ldd	r25, Y+47	; 0x2f
    2e84:	2a 81       	ldd	r18, Y+2	; 0x02
    2e86:	3b 81       	ldd	r19, Y+3	; 0x03
    2e88:	fc 01       	movw	r30, r24
    2e8a:	37 8f       	std	Z+31, r19	; 0x1f
    2e8c:	26 8f       	std	Z+30, r18	; 0x1e
    2e8e:	89 81       	ldd	r24, Y+1	; 0x01
    2e90:	88 23       	and	r24, r24
    2e92:	09 f0       	breq	.+2      	; 0x2e96 <f_open+0x2b0>
    2e94:	53 c0       	rjmp	.+166    	; 0x2f3c <f_open+0x356>
    2e96:	8e a5       	ldd	r24, Y+46	; 0x2e
    2e98:	9f a5       	ldd	r25, Y+47	; 0x2f
    2e9a:	2a a9       	ldd	r18, Y+50	; 0x32
    2e9c:	fc 01       	movw	r30, r24
    2e9e:	24 83       	std	Z+4, r18	; 0x04
    2ea0:	8a 81       	ldd	r24, Y+2	; 0x02
    2ea2:	9b 81       	ldd	r25, Y+3	; 0x03
    2ea4:	44 96       	adiw	r24, 0x14	; 20
    2ea6:	fc 01       	movw	r30, r24
    2ea8:	80 81       	ld	r24, Z
    2eaa:	91 81       	ldd	r25, Z+1	; 0x01
    2eac:	cc 01       	movw	r24, r24
    2eae:	a0 e0       	ldi	r26, 0x00	; 0
    2eb0:	b0 e0       	ldi	r27, 0x00	; 0
    2eb2:	ac 01       	movw	r20, r24
    2eb4:	33 27       	eor	r19, r19
    2eb6:	22 27       	eor	r18, r18
    2eb8:	8a 81       	ldd	r24, Y+2	; 0x02
    2eba:	9b 81       	ldd	r25, Y+3	; 0x03
    2ebc:	4a 96       	adiw	r24, 0x1a	; 26
    2ebe:	fc 01       	movw	r30, r24
    2ec0:	80 81       	ld	r24, Z
    2ec2:	91 81       	ldd	r25, Z+1	; 0x01
    2ec4:	cc 01       	movw	r24, r24
    2ec6:	a0 e0       	ldi	r26, 0x00	; 0
    2ec8:	b0 e0       	ldi	r27, 0x00	; 0
    2eca:	82 2b       	or	r24, r18
    2ecc:	93 2b       	or	r25, r19
    2ece:	a4 2b       	or	r26, r20
    2ed0:	b5 2b       	or	r27, r21
    2ed2:	2e a5       	ldd	r18, Y+46	; 0x2e
    2ed4:	3f a5       	ldd	r19, Y+47	; 0x2f
    2ed6:	f9 01       	movw	r30, r18
    2ed8:	86 87       	std	Z+14, r24	; 0x0e
    2eda:	97 87       	std	Z+15, r25	; 0x0f
    2edc:	a0 8b       	std	Z+16, r26	; 0x10
    2ede:	b1 8b       	std	Z+17, r27	; 0x11
    2ee0:	8a 81       	ldd	r24, Y+2	; 0x02
    2ee2:	9b 81       	ldd	r25, Y+3	; 0x03
    2ee4:	4c 96       	adiw	r24, 0x1c	; 28
    2ee6:	fc 01       	movw	r30, r24
    2ee8:	80 81       	ld	r24, Z
    2eea:	91 81       	ldd	r25, Z+1	; 0x01
    2eec:	a2 81       	ldd	r26, Z+2	; 0x02
    2eee:	b3 81       	ldd	r27, Z+3	; 0x03
    2ef0:	2e a5       	ldd	r18, Y+46	; 0x2e
    2ef2:	3f a5       	ldd	r19, Y+47	; 0x2f
    2ef4:	f9 01       	movw	r30, r18
    2ef6:	82 87       	std	Z+10, r24	; 0x0a
    2ef8:	93 87       	std	Z+11, r25	; 0x0b
    2efa:	a4 87       	std	Z+12, r26	; 0x0c
    2efc:	b5 87       	std	Z+13, r27	; 0x0d
    2efe:	8e a5       	ldd	r24, Y+46	; 0x2e
    2f00:	9f a5       	ldd	r25, Y+47	; 0x2f
    2f02:	fc 01       	movw	r30, r24
    2f04:	16 82       	std	Z+6, r1	; 0x06
    2f06:	17 82       	std	Z+7, r1	; 0x07
    2f08:	10 86       	std	Z+8, r1	; 0x08
    2f0a:	11 86       	std	Z+9, r1	; 0x09
    2f0c:	8e a5       	ldd	r24, Y+46	; 0x2e
    2f0e:	9f a5       	ldd	r25, Y+47	; 0x2f
    2f10:	fc 01       	movw	r30, r24
    2f12:	16 8a       	std	Z+22, r1	; 0x16
    2f14:	17 8a       	std	Z+23, r1	; 0x17
    2f16:	10 8e       	std	Z+24, r1	; 0x18
    2f18:	11 8e       	std	Z+25, r1	; 0x19
    2f1a:	2c 85       	ldd	r18, Y+12	; 0x0c
    2f1c:	3d 85       	ldd	r19, Y+13	; 0x0d
    2f1e:	8e a5       	ldd	r24, Y+46	; 0x2e
    2f20:	9f a5       	ldd	r25, Y+47	; 0x2f
    2f22:	fc 01       	movw	r30, r24
    2f24:	31 83       	std	Z+1, r19	; 0x01
    2f26:	20 83       	st	Z, r18
    2f28:	8c 85       	ldd	r24, Y+12	; 0x0c
    2f2a:	9d 85       	ldd	r25, Y+13	; 0x0d
    2f2c:	fc 01       	movw	r30, r24
    2f2e:	26 81       	ldd	r18, Z+6	; 0x06
    2f30:	37 81       	ldd	r19, Z+7	; 0x07
    2f32:	8e a5       	ldd	r24, Y+46	; 0x2e
    2f34:	9f a5       	ldd	r25, Y+47	; 0x2f
    2f36:	fc 01       	movw	r30, r24
    2f38:	33 83       	std	Z+3, r19	; 0x03
    2f3a:	22 83       	std	Z+2, r18	; 0x02
    2f3c:	89 81       	ldd	r24, Y+1	; 0x01
    2f3e:	e2 96       	adiw	r28, 0x32	; 50
    2f40:	0f b6       	in	r0, 0x3f	; 63
    2f42:	f8 94       	cli
    2f44:	de bf       	out	0x3e, r29	; 62
    2f46:	0f be       	out	0x3f, r0	; 63
    2f48:	cd bf       	out	0x3d, r28	; 61
    2f4a:	df 91       	pop	r29
    2f4c:	cf 91       	pop	r28
    2f4e:	08 95       	ret

00002f50 <f_read>:
    2f50:	ef 92       	push	r14
    2f52:	ff 92       	push	r15
    2f54:	0f 93       	push	r16
    2f56:	1f 93       	push	r17
    2f58:	cf 93       	push	r28
    2f5a:	df 93       	push	r29
    2f5c:	cd b7       	in	r28, 0x3d	; 61
    2f5e:	de b7       	in	r29, 0x3e	; 62
    2f60:	6c 97       	sbiw	r28, 0x1c	; 28
    2f62:	0f b6       	in	r0, 0x3f	; 63
    2f64:	f8 94       	cli
    2f66:	de bf       	out	0x3e, r29	; 62
    2f68:	0f be       	out	0x3f, r0	; 63
    2f6a:	cd bf       	out	0x3d, r28	; 61
    2f6c:	9e 8b       	std	Y+22, r25	; 0x16
    2f6e:	8d 8b       	std	Y+21, r24	; 0x15
    2f70:	78 8f       	std	Y+24, r23	; 0x18
    2f72:	6f 8b       	std	Y+23, r22	; 0x17
    2f74:	5a 8f       	std	Y+26, r21	; 0x1a
    2f76:	49 8f       	std	Y+25, r20	; 0x19
    2f78:	3c 8f       	std	Y+28, r19	; 0x1c
    2f7a:	2b 8f       	std	Y+27, r18	; 0x1b
    2f7c:	8f 89       	ldd	r24, Y+23	; 0x17
    2f7e:	98 8d       	ldd	r25, Y+24	; 0x18
    2f80:	9e 83       	std	Y+6, r25	; 0x06
    2f82:	8d 83       	std	Y+5, r24	; 0x05
    2f84:	8b 8d       	ldd	r24, Y+27	; 0x1b
    2f86:	9c 8d       	ldd	r25, Y+28	; 0x1c
    2f88:	dc 01       	movw	r26, r24
    2f8a:	1d 92       	st	X+, r1
    2f8c:	1c 92       	st	X, r1
    2f8e:	8d 89       	ldd	r24, Y+21	; 0x15
    2f90:	9e 89       	ldd	r25, Y+22	; 0x16
    2f92:	fc 01       	movw	r30, r24
    2f94:	22 81       	ldd	r18, Z+2	; 0x02
    2f96:	33 81       	ldd	r19, Z+3	; 0x03
    2f98:	8d 89       	ldd	r24, Y+21	; 0x15
    2f9a:	9e 89       	ldd	r25, Y+22	; 0x16
    2f9c:	dc 01       	movw	r26, r24
    2f9e:	8d 91       	ld	r24, X+
    2fa0:	9c 91       	ld	r25, X
    2fa2:	b9 01       	movw	r22, r18
    2fa4:	0e 94 7d 15 	call	0x2afa	; 0x2afa <validate>
    2fa8:	8f 83       	std	Y+7, r24	; 0x07
    2faa:	8f 81       	ldd	r24, Y+7	; 0x07
    2fac:	88 23       	and	r24, r24
    2fae:	11 f0       	breq	.+4      	; 0x2fb4 <f_read+0x64>
    2fb0:	8f 81       	ldd	r24, Y+7	; 0x07
    2fb2:	5b c2       	rjmp	.+1206   	; 0x346a <f_read+0x51a>
    2fb4:	8d 89       	ldd	r24, Y+21	; 0x15
    2fb6:	9e 89       	ldd	r25, Y+22	; 0x16
    2fb8:	fc 01       	movw	r30, r24
    2fba:	84 81       	ldd	r24, Z+4	; 0x04
    2fbc:	88 23       	and	r24, r24
    2fbe:	14 f4       	brge	.+4      	; 0x2fc4 <f_read+0x74>
    2fc0:	82 e0       	ldi	r24, 0x02	; 2
    2fc2:	53 c2       	rjmp	.+1190   	; 0x346a <f_read+0x51a>
    2fc4:	8d 89       	ldd	r24, Y+21	; 0x15
    2fc6:	9e 89       	ldd	r25, Y+22	; 0x16
    2fc8:	dc 01       	movw	r26, r24
    2fca:	14 96       	adiw	r26, 0x04	; 4
    2fcc:	8c 91       	ld	r24, X
    2fce:	88 2f       	mov	r24, r24
    2fd0:	90 e0       	ldi	r25, 0x00	; 0
    2fd2:	81 70       	andi	r24, 0x01	; 1
    2fd4:	99 27       	eor	r25, r25
    2fd6:	89 2b       	or	r24, r25
    2fd8:	11 f4       	brne	.+4      	; 0x2fde <f_read+0x8e>
    2fda:	87 e0       	ldi	r24, 0x07	; 7
    2fdc:	46 c2       	rjmp	.+1164   	; 0x346a <f_read+0x51a>
    2fde:	8d 89       	ldd	r24, Y+21	; 0x15
    2fe0:	9e 89       	ldd	r25, Y+22	; 0x16
    2fe2:	fc 01       	movw	r30, r24
    2fe4:	22 85       	ldd	r18, Z+10	; 0x0a
    2fe6:	33 85       	ldd	r19, Z+11	; 0x0b
    2fe8:	44 85       	ldd	r20, Z+12	; 0x0c
    2fea:	55 85       	ldd	r21, Z+13	; 0x0d
    2fec:	8d 89       	ldd	r24, Y+21	; 0x15
    2fee:	9e 89       	ldd	r25, Y+22	; 0x16
    2ff0:	fc 01       	movw	r30, r24
    2ff2:	86 81       	ldd	r24, Z+6	; 0x06
    2ff4:	97 81       	ldd	r25, Z+7	; 0x07
    2ff6:	a0 85       	ldd	r26, Z+8	; 0x08
    2ff8:	b1 85       	ldd	r27, Z+9	; 0x09
    2ffa:	79 01       	movw	r14, r18
    2ffc:	8a 01       	movw	r16, r20
    2ffe:	e8 1a       	sub	r14, r24
    3000:	f9 0a       	sbc	r15, r25
    3002:	0a 0b       	sbc	r16, r26
    3004:	1b 0b       	sbc	r17, r27
    3006:	d8 01       	movw	r26, r16
    3008:	c7 01       	movw	r24, r14
    300a:	88 87       	std	Y+8, r24	; 0x08
    300c:	99 87       	std	Y+9, r25	; 0x09
    300e:	aa 87       	std	Y+10, r26	; 0x0a
    3010:	bb 87       	std	Y+11, r27	; 0x0b
    3012:	89 8d       	ldd	r24, Y+25	; 0x19
    3014:	9a 8d       	ldd	r25, Y+26	; 0x1a
    3016:	9c 01       	movw	r18, r24
    3018:	40 e0       	ldi	r20, 0x00	; 0
    301a:	50 e0       	ldi	r21, 0x00	; 0
    301c:	88 85       	ldd	r24, Y+8	; 0x08
    301e:	99 85       	ldd	r25, Y+9	; 0x09
    3020:	aa 85       	ldd	r26, Y+10	; 0x0a
    3022:	bb 85       	ldd	r27, Y+11	; 0x0b
    3024:	82 17       	cp	r24, r18
    3026:	93 07       	cpc	r25, r19
    3028:	a4 07       	cpc	r26, r20
    302a:	b5 07       	cpc	r27, r21
    302c:	08 f0       	brcs	.+2      	; 0x3030 <f_read+0xe0>
    302e:	17 c2       	rjmp	.+1070   	; 0x345e <f_read+0x50e>
    3030:	88 85       	ldd	r24, Y+8	; 0x08
    3032:	99 85       	ldd	r25, Y+9	; 0x09
    3034:	9a 8f       	std	Y+26, r25	; 0x1a
    3036:	89 8f       	std	Y+25, r24	; 0x19
    3038:	12 c2       	rjmp	.+1060   	; 0x345e <f_read+0x50e>
    303a:	8d 89       	ldd	r24, Y+21	; 0x15
    303c:	9e 89       	ldd	r25, Y+22	; 0x16
    303e:	fc 01       	movw	r30, r24
    3040:	86 81       	ldd	r24, Z+6	; 0x06
    3042:	97 81       	ldd	r25, Z+7	; 0x07
    3044:	a0 85       	ldd	r26, Z+8	; 0x08
    3046:	b1 85       	ldd	r27, Z+9	; 0x09
    3048:	91 70       	andi	r25, 0x01	; 1
    304a:	aa 27       	eor	r26, r26
    304c:	bb 27       	eor	r27, r27
    304e:	89 2b       	or	r24, r25
    3050:	8a 2b       	or	r24, r26
    3052:	8b 2b       	or	r24, r27
    3054:	09 f0       	breq	.+2      	; 0x3058 <f_read+0x108>
    3056:	76 c1       	rjmp	.+748    	; 0x3344 <f_read+0x3f4>
    3058:	8d 89       	ldd	r24, Y+21	; 0x15
    305a:	9e 89       	ldd	r25, Y+22	; 0x16
    305c:	fc 01       	movw	r30, r24
    305e:	86 81       	ldd	r24, Z+6	; 0x06
    3060:	97 81       	ldd	r25, Z+7	; 0x07
    3062:	a0 85       	ldd	r26, Z+8	; 0x08
    3064:	b1 85       	ldd	r27, Z+9	; 0x09
    3066:	07 2e       	mov	r0, r23
    3068:	79 e0       	ldi	r23, 0x09	; 9
    306a:	b6 95       	lsr	r27
    306c:	a7 95       	ror	r26
    306e:	97 95       	ror	r25
    3070:	87 95       	ror	r24
    3072:	7a 95       	dec	r23
    3074:	d1 f7       	brne	.-12     	; 0x306a <f_read+0x11a>
    3076:	70 2d       	mov	r23, r0
    3078:	28 2f       	mov	r18, r24
    307a:	8d 89       	ldd	r24, Y+21	; 0x15
    307c:	9e 89       	ldd	r25, Y+22	; 0x16
    307e:	dc 01       	movw	r26, r24
    3080:	8d 91       	ld	r24, X+
    3082:	9c 91       	ld	r25, X
    3084:	fc 01       	movw	r30, r24
    3086:	82 81       	ldd	r24, Z+2	; 0x02
    3088:	81 50       	subi	r24, 0x01	; 1
    308a:	82 23       	and	r24, r18
    308c:	8c 87       	std	Y+12, r24	; 0x0c
    308e:	8c 85       	ldd	r24, Y+12	; 0x0c
    3090:	88 23       	and	r24, r24
    3092:	09 f0       	breq	.+2      	; 0x3096 <f_read+0x146>
    3094:	60 c0       	rjmp	.+192    	; 0x3156 <f_read+0x206>
    3096:	8d 89       	ldd	r24, Y+21	; 0x15
    3098:	9e 89       	ldd	r25, Y+22	; 0x16
    309a:	fc 01       	movw	r30, r24
    309c:	86 81       	ldd	r24, Z+6	; 0x06
    309e:	97 81       	ldd	r25, Z+7	; 0x07
    30a0:	a0 85       	ldd	r26, Z+8	; 0x08
    30a2:	b1 85       	ldd	r27, Z+9	; 0x09
    30a4:	89 2b       	or	r24, r25
    30a6:	8a 2b       	or	r24, r26
    30a8:	8b 2b       	or	r24, r27
    30aa:	41 f4       	brne	.+16     	; 0x30bc <f_read+0x16c>
    30ac:	8d 89       	ldd	r24, Y+21	; 0x15
    30ae:	9e 89       	ldd	r25, Y+22	; 0x16
    30b0:	fc 01       	movw	r30, r24
    30b2:	86 85       	ldd	r24, Z+14	; 0x0e
    30b4:	97 85       	ldd	r25, Z+15	; 0x0f
    30b6:	a0 89       	ldd	r26, Z+16	; 0x10
    30b8:	b1 89       	ldd	r27, Z+17	; 0x11
    30ba:	13 c0       	rjmp	.+38     	; 0x30e2 <f_read+0x192>
    30bc:	8d 89       	ldd	r24, Y+21	; 0x15
    30be:	9e 89       	ldd	r25, Y+22	; 0x16
    30c0:	fc 01       	movw	r30, r24
    30c2:	82 89       	ldd	r24, Z+18	; 0x12
    30c4:	93 89       	ldd	r25, Z+19	; 0x13
    30c6:	a4 89       	ldd	r26, Z+20	; 0x14
    30c8:	b5 89       	ldd	r27, Z+21	; 0x15
    30ca:	2d 89       	ldd	r18, Y+21	; 0x15
    30cc:	3e 89       	ldd	r19, Y+22	; 0x16
    30ce:	f9 01       	movw	r30, r18
    30d0:	20 81       	ld	r18, Z
    30d2:	31 81       	ldd	r19, Z+1	; 0x01
    30d4:	ac 01       	movw	r20, r24
    30d6:	bd 01       	movw	r22, r26
    30d8:	c9 01       	movw	r24, r18
    30da:	0e 94 c2 05 	call	0xb84	; 0xb84 <get_fat>
    30de:	dc 01       	movw	r26, r24
    30e0:	cb 01       	movw	r24, r22
    30e2:	89 8b       	std	Y+17, r24	; 0x11
    30e4:	9a 8b       	std	Y+18, r25	; 0x12
    30e6:	ab 8b       	std	Y+19, r26	; 0x13
    30e8:	bc 8b       	std	Y+20, r27	; 0x14
    30ea:	89 89       	ldd	r24, Y+17	; 0x11
    30ec:	9a 89       	ldd	r25, Y+18	; 0x12
    30ee:	ab 89       	ldd	r26, Y+19	; 0x13
    30f0:	bc 89       	ldd	r27, Y+20	; 0x14
    30f2:	02 97       	sbiw	r24, 0x02	; 2
    30f4:	a1 05       	cpc	r26, r1
    30f6:	b1 05       	cpc	r27, r1
    30f8:	68 f4       	brcc	.+26     	; 0x3114 <f_read+0x1c4>
    30fa:	8d 89       	ldd	r24, Y+21	; 0x15
    30fc:	9e 89       	ldd	r25, Y+22	; 0x16
    30fe:	dc 01       	movw	r26, r24
    3100:	14 96       	adiw	r26, 0x04	; 4
    3102:	8c 91       	ld	r24, X
    3104:	28 2f       	mov	r18, r24
    3106:	20 68       	ori	r18, 0x80	; 128
    3108:	8d 89       	ldd	r24, Y+21	; 0x15
    310a:	9e 89       	ldd	r25, Y+22	; 0x16
    310c:	fc 01       	movw	r30, r24
    310e:	24 83       	std	Z+4, r18	; 0x04
    3110:	82 e0       	ldi	r24, 0x02	; 2
    3112:	ab c1       	rjmp	.+854    	; 0x346a <f_read+0x51a>
    3114:	89 89       	ldd	r24, Y+17	; 0x11
    3116:	9a 89       	ldd	r25, Y+18	; 0x12
    3118:	ab 89       	ldd	r26, Y+19	; 0x13
    311a:	bc 89       	ldd	r27, Y+20	; 0x14
    311c:	8f 3f       	cpi	r24, 0xFF	; 255
    311e:	9f 4f       	sbci	r25, 0xFF	; 255
    3120:	af 4f       	sbci	r26, 0xFF	; 255
    3122:	bf 4f       	sbci	r27, 0xFF	; 255
    3124:	69 f4       	brne	.+26     	; 0x3140 <f_read+0x1f0>
    3126:	8d 89       	ldd	r24, Y+21	; 0x15
    3128:	9e 89       	ldd	r25, Y+22	; 0x16
    312a:	dc 01       	movw	r26, r24
    312c:	14 96       	adiw	r26, 0x04	; 4
    312e:	8c 91       	ld	r24, X
    3130:	28 2f       	mov	r18, r24
    3132:	20 68       	ori	r18, 0x80	; 128
    3134:	8d 89       	ldd	r24, Y+21	; 0x15
    3136:	9e 89       	ldd	r25, Y+22	; 0x16
    3138:	fc 01       	movw	r30, r24
    313a:	24 83       	std	Z+4, r18	; 0x04
    313c:	81 e0       	ldi	r24, 0x01	; 1
    313e:	95 c1       	rjmp	.+810    	; 0x346a <f_read+0x51a>
    3140:	2d 89       	ldd	r18, Y+21	; 0x15
    3142:	3e 89       	ldd	r19, Y+22	; 0x16
    3144:	89 89       	ldd	r24, Y+17	; 0x11
    3146:	9a 89       	ldd	r25, Y+18	; 0x12
    3148:	ab 89       	ldd	r26, Y+19	; 0x13
    314a:	bc 89       	ldd	r27, Y+20	; 0x14
    314c:	f9 01       	movw	r30, r18
    314e:	82 8b       	std	Z+18, r24	; 0x12
    3150:	93 8b       	std	Z+19, r25	; 0x13
    3152:	a4 8b       	std	Z+20, r26	; 0x14
    3154:	b5 8b       	std	Z+21, r27	; 0x15
    3156:	8d 89       	ldd	r24, Y+21	; 0x15
    3158:	9e 89       	ldd	r25, Y+22	; 0x16
    315a:	fc 01       	movw	r30, r24
    315c:	82 89       	ldd	r24, Z+18	; 0x12
    315e:	93 89       	ldd	r25, Z+19	; 0x13
    3160:	a4 89       	ldd	r26, Z+20	; 0x14
    3162:	b5 89       	ldd	r27, Z+21	; 0x15
    3164:	2d 89       	ldd	r18, Y+21	; 0x15
    3166:	3e 89       	ldd	r19, Y+22	; 0x16
    3168:	f9 01       	movw	r30, r18
    316a:	20 81       	ld	r18, Z
    316c:	31 81       	ldd	r19, Z+1	; 0x01
    316e:	ac 01       	movw	r20, r24
    3170:	bd 01       	movw	r22, r26
    3172:	c9 01       	movw	r24, r18
    3174:	0e 94 68 05 	call	0xad0	; 0xad0 <clust2sect>
    3178:	dc 01       	movw	r26, r24
    317a:	cb 01       	movw	r24, r22
    317c:	8d 87       	std	Y+13, r24	; 0x0d
    317e:	9e 87       	std	Y+14, r25	; 0x0e
    3180:	af 87       	std	Y+15, r26	; 0x0f
    3182:	b8 8b       	std	Y+16, r27	; 0x10
    3184:	8d 85       	ldd	r24, Y+13	; 0x0d
    3186:	9e 85       	ldd	r25, Y+14	; 0x0e
    3188:	af 85       	ldd	r26, Y+15	; 0x0f
    318a:	b8 89       	ldd	r27, Y+16	; 0x10
    318c:	89 2b       	or	r24, r25
    318e:	8a 2b       	or	r24, r26
    3190:	8b 2b       	or	r24, r27
    3192:	69 f4       	brne	.+26     	; 0x31ae <f_read+0x25e>
    3194:	8d 89       	ldd	r24, Y+21	; 0x15
    3196:	9e 89       	ldd	r25, Y+22	; 0x16
    3198:	dc 01       	movw	r26, r24
    319a:	14 96       	adiw	r26, 0x04	; 4
    319c:	8c 91       	ld	r24, X
    319e:	28 2f       	mov	r18, r24
    31a0:	20 68       	ori	r18, 0x80	; 128
    31a2:	8d 89       	ldd	r24, Y+21	; 0x15
    31a4:	9e 89       	ldd	r25, Y+22	; 0x16
    31a6:	fc 01       	movw	r30, r24
    31a8:	24 83       	std	Z+4, r18	; 0x04
    31aa:	82 e0       	ldi	r24, 0x02	; 2
    31ac:	5e c1       	rjmp	.+700    	; 0x346a <f_read+0x51a>
    31ae:	8c 85       	ldd	r24, Y+12	; 0x0c
    31b0:	88 2f       	mov	r24, r24
    31b2:	90 e0       	ldi	r25, 0x00	; 0
    31b4:	a0 e0       	ldi	r26, 0x00	; 0
    31b6:	b0 e0       	ldi	r27, 0x00	; 0
    31b8:	2d 85       	ldd	r18, Y+13	; 0x0d
    31ba:	3e 85       	ldd	r19, Y+14	; 0x0e
    31bc:	4f 85       	ldd	r20, Y+15	; 0x0f
    31be:	58 89       	ldd	r21, Y+16	; 0x10
    31c0:	82 0f       	add	r24, r18
    31c2:	93 1f       	adc	r25, r19
    31c4:	a4 1f       	adc	r26, r20
    31c6:	b5 1f       	adc	r27, r21
    31c8:	8d 87       	std	Y+13, r24	; 0x0d
    31ca:	9e 87       	std	Y+14, r25	; 0x0e
    31cc:	af 87       	std	Y+15, r26	; 0x0f
    31ce:	b8 8b       	std	Y+16, r27	; 0x10
    31d0:	89 8d       	ldd	r24, Y+25	; 0x19
    31d2:	9a 8d       	ldd	r25, Y+26	; 0x1a
    31d4:	89 2f       	mov	r24, r25
    31d6:	99 27       	eor	r25, r25
    31d8:	86 95       	lsr	r24
    31da:	9c 83       	std	Y+4, r25	; 0x04
    31dc:	8b 83       	std	Y+3, r24	; 0x03
    31de:	8b 81       	ldd	r24, Y+3	; 0x03
    31e0:	9c 81       	ldd	r25, Y+4	; 0x04
    31e2:	89 2b       	or	r24, r25
    31e4:	09 f4       	brne	.+2      	; 0x31e8 <f_read+0x298>
    31e6:	a3 c0       	rjmp	.+326    	; 0x332e <f_read+0x3de>
    31e8:	8c 85       	ldd	r24, Y+12	; 0x0c
    31ea:	28 2f       	mov	r18, r24
    31ec:	30 e0       	ldi	r19, 0x00	; 0
    31ee:	8b 81       	ldd	r24, Y+3	; 0x03
    31f0:	9c 81       	ldd	r25, Y+4	; 0x04
    31f2:	28 0f       	add	r18, r24
    31f4:	39 1f       	adc	r19, r25
    31f6:	8d 89       	ldd	r24, Y+21	; 0x15
    31f8:	9e 89       	ldd	r25, Y+22	; 0x16
    31fa:	dc 01       	movw	r26, r24
    31fc:	8d 91       	ld	r24, X+
    31fe:	9c 91       	ld	r25, X
    3200:	fc 01       	movw	r30, r24
    3202:	82 81       	ldd	r24, Z+2	; 0x02
    3204:	88 2f       	mov	r24, r24
    3206:	90 e0       	ldi	r25, 0x00	; 0
    3208:	82 17       	cp	r24, r18
    320a:	93 07       	cpc	r25, r19
    320c:	90 f4       	brcc	.+36     	; 0x3232 <f_read+0x2e2>
    320e:	8d 89       	ldd	r24, Y+21	; 0x15
    3210:	9e 89       	ldd	r25, Y+22	; 0x16
    3212:	dc 01       	movw	r26, r24
    3214:	8d 91       	ld	r24, X+
    3216:	9c 91       	ld	r25, X
    3218:	fc 01       	movw	r30, r24
    321a:	82 81       	ldd	r24, Z+2	; 0x02
    321c:	28 2f       	mov	r18, r24
    321e:	30 e0       	ldi	r19, 0x00	; 0
    3220:	8c 85       	ldd	r24, Y+12	; 0x0c
    3222:	88 2f       	mov	r24, r24
    3224:	90 e0       	ldi	r25, 0x00	; 0
    3226:	79 01       	movw	r14, r18
    3228:	e8 1a       	sub	r14, r24
    322a:	f9 0a       	sbc	r15, r25
    322c:	c7 01       	movw	r24, r14
    322e:	9c 83       	std	Y+4, r25	; 0x04
    3230:	8b 83       	std	Y+3, r24	; 0x03
    3232:	2b 81       	ldd	r18, Y+3	; 0x03
    3234:	8d 89       	ldd	r24, Y+21	; 0x15
    3236:	9e 89       	ldd	r25, Y+22	; 0x16
    3238:	dc 01       	movw	r26, r24
    323a:	8d 91       	ld	r24, X+
    323c:	9c 91       	ld	r25, X
    323e:	dc 01       	movw	r26, r24
    3240:	11 96       	adiw	r26, 0x01	; 1
    3242:	ec 91       	ld	r30, X
    3244:	8d 85       	ldd	r24, Y+13	; 0x0d
    3246:	9e 85       	ldd	r25, Y+14	; 0x0e
    3248:	af 85       	ldd	r26, Y+15	; 0x0f
    324a:	b8 89       	ldd	r27, Y+16	; 0x10
    324c:	6d 81       	ldd	r22, Y+5	; 0x05
    324e:	7e 81       	ldd	r23, Y+6	; 0x06
    3250:	02 2f       	mov	r16, r18
    3252:	9c 01       	movw	r18, r24
    3254:	ad 01       	movw	r20, r26
    3256:	8e 2f       	mov	r24, r30
    3258:	0e 94 32 36 	call	0x6c64	; 0x6c64 <disk_read>
    325c:	88 23       	and	r24, r24
    325e:	69 f0       	breq	.+26     	; 0x327a <f_read+0x32a>
    3260:	8d 89       	ldd	r24, Y+21	; 0x15
    3262:	9e 89       	ldd	r25, Y+22	; 0x16
    3264:	fc 01       	movw	r30, r24
    3266:	84 81       	ldd	r24, Z+4	; 0x04
    3268:	28 2f       	mov	r18, r24
    326a:	20 68       	ori	r18, 0x80	; 128
    326c:	8d 89       	ldd	r24, Y+21	; 0x15
    326e:	9e 89       	ldd	r25, Y+22	; 0x16
    3270:	dc 01       	movw	r26, r24
    3272:	14 96       	adiw	r26, 0x04	; 4
    3274:	2c 93       	st	X, r18
    3276:	81 e0       	ldi	r24, 0x01	; 1
    3278:	f8 c0       	rjmp	.+496    	; 0x346a <f_read+0x51a>
    327a:	8d 89       	ldd	r24, Y+21	; 0x15
    327c:	9e 89       	ldd	r25, Y+22	; 0x16
    327e:	fc 01       	movw	r30, r24
    3280:	80 81       	ld	r24, Z
    3282:	91 81       	ldd	r25, Z+1	; 0x01
    3284:	dc 01       	movw	r26, r24
    3286:	14 96       	adiw	r26, 0x04	; 4
    3288:	8c 91       	ld	r24, X
    328a:	88 23       	and	r24, r24
    328c:	09 f4       	brne	.+2      	; 0x3290 <f_read+0x340>
    328e:	47 c0       	rjmp	.+142    	; 0x331e <f_read+0x3ce>
    3290:	8d 89       	ldd	r24, Y+21	; 0x15
    3292:	9e 89       	ldd	r25, Y+22	; 0x16
    3294:	fc 01       	movw	r30, r24
    3296:	80 81       	ld	r24, Z
    3298:	91 81       	ldd	r25, Z+1	; 0x01
    329a:	dc 01       	movw	r26, r24
    329c:	9e 96       	adiw	r26, 0x2e	; 46
    329e:	2d 91       	ld	r18, X+
    32a0:	3d 91       	ld	r19, X+
    32a2:	4d 91       	ld	r20, X+
    32a4:	5c 91       	ld	r21, X
    32a6:	d1 97       	sbiw	r26, 0x31	; 49
    32a8:	8d 85       	ldd	r24, Y+13	; 0x0d
    32aa:	9e 85       	ldd	r25, Y+14	; 0x0e
    32ac:	af 85       	ldd	r26, Y+15	; 0x0f
    32ae:	b8 89       	ldd	r27, Y+16	; 0x10
    32b0:	28 1b       	sub	r18, r24
    32b2:	39 0b       	sbc	r19, r25
    32b4:	4a 0b       	sbc	r20, r26
    32b6:	5b 0b       	sbc	r21, r27
    32b8:	8b 81       	ldd	r24, Y+3	; 0x03
    32ba:	9c 81       	ldd	r25, Y+4	; 0x04
    32bc:	cc 01       	movw	r24, r24
    32be:	a0 e0       	ldi	r26, 0x00	; 0
    32c0:	b0 e0       	ldi	r27, 0x00	; 0
    32c2:	28 17       	cp	r18, r24
    32c4:	39 07       	cpc	r19, r25
    32c6:	4a 07       	cpc	r20, r26
    32c8:	5b 07       	cpc	r21, r27
    32ca:	48 f5       	brcc	.+82     	; 0x331e <f_read+0x3ce>
    32cc:	8d 89       	ldd	r24, Y+21	; 0x15
    32ce:	9e 89       	ldd	r25, Y+22	; 0x16
    32d0:	fc 01       	movw	r30, r24
    32d2:	80 81       	ld	r24, Z
    32d4:	91 81       	ldd	r25, Z+1	; 0x01
    32d6:	bc 01       	movw	r22, r24
    32d8:	6e 5c       	subi	r22, 0xCE	; 206
    32da:	7f 4f       	sbci	r23, 0xFF	; 255
    32dc:	8d 89       	ldd	r24, Y+21	; 0x15
    32de:	9e 89       	ldd	r25, Y+22	; 0x16
    32e0:	dc 01       	movw	r26, r24
    32e2:	8d 91       	ld	r24, X+
    32e4:	9c 91       	ld	r25, X
    32e6:	fc 01       	movw	r30, r24
    32e8:	26 a5       	ldd	r18, Z+46	; 0x2e
    32ea:	37 a5       	ldd	r19, Z+47	; 0x2f
    32ec:	40 a9       	ldd	r20, Z+48	; 0x30
    32ee:	51 a9       	ldd	r21, Z+49	; 0x31
    32f0:	8d 85       	ldd	r24, Y+13	; 0x0d
    32f2:	9e 85       	ldd	r25, Y+14	; 0x0e
    32f4:	af 85       	ldd	r26, Y+15	; 0x0f
    32f6:	b8 89       	ldd	r27, Y+16	; 0x10
    32f8:	79 01       	movw	r14, r18
    32fa:	8a 01       	movw	r16, r20
    32fc:	e8 1a       	sub	r14, r24
    32fe:	f9 0a       	sbc	r15, r25
    3300:	0a 0b       	sbc	r16, r26
    3302:	1b 0b       	sbc	r17, r27
    3304:	d8 01       	movw	r26, r16
    3306:	c7 01       	movw	r24, r14
    3308:	98 2f       	mov	r25, r24
    330a:	88 27       	eor	r24, r24
    330c:	99 0f       	add	r25, r25
    330e:	2d 81       	ldd	r18, Y+5	; 0x05
    3310:	3e 81       	ldd	r19, Y+6	; 0x06
    3312:	82 0f       	add	r24, r18
    3314:	93 1f       	adc	r25, r19
    3316:	40 e0       	ldi	r20, 0x00	; 0
    3318:	52 e0       	ldi	r21, 0x02	; 2
    331a:	0e 94 d9 02 	call	0x5b2	; 0x5b2 <mem_cpy>
    331e:	8b 81       	ldd	r24, Y+3	; 0x03
    3320:	9c 81       	ldd	r25, Y+4	; 0x04
    3322:	98 2f       	mov	r25, r24
    3324:	88 27       	eor	r24, r24
    3326:	99 0f       	add	r25, r25
    3328:	9a 83       	std	Y+2, r25	; 0x02
    332a:	89 83       	std	Y+1, r24	; 0x01
    332c:	5f c0       	rjmp	.+190    	; 0x33ec <f_read+0x49c>
    332e:	2d 89       	ldd	r18, Y+21	; 0x15
    3330:	3e 89       	ldd	r19, Y+22	; 0x16
    3332:	8d 85       	ldd	r24, Y+13	; 0x0d
    3334:	9e 85       	ldd	r25, Y+14	; 0x0e
    3336:	af 85       	ldd	r26, Y+15	; 0x0f
    3338:	b8 89       	ldd	r27, Y+16	; 0x10
    333a:	f9 01       	movw	r30, r18
    333c:	86 8b       	std	Z+22, r24	; 0x16
    333e:	97 8b       	std	Z+23, r25	; 0x17
    3340:	a0 8f       	std	Z+24, r26	; 0x18
    3342:	b1 8f       	std	Z+25, r27	; 0x19
    3344:	8d 89       	ldd	r24, Y+21	; 0x15
    3346:	9e 89       	ldd	r25, Y+22	; 0x16
    3348:	fc 01       	movw	r30, r24
    334a:	86 81       	ldd	r24, Z+6	; 0x06
    334c:	97 81       	ldd	r25, Z+7	; 0x07
    334e:	a0 85       	ldd	r26, Z+8	; 0x08
    3350:	b1 85       	ldd	r27, Z+9	; 0x09
    3352:	91 70       	andi	r25, 0x01	; 1
    3354:	20 e0       	ldi	r18, 0x00	; 0
    3356:	32 e0       	ldi	r19, 0x02	; 2
    3358:	79 01       	movw	r14, r18
    335a:	e8 1a       	sub	r14, r24
    335c:	f9 0a       	sbc	r15, r25
    335e:	c7 01       	movw	r24, r14
    3360:	9a 83       	std	Y+2, r25	; 0x02
    3362:	89 83       	std	Y+1, r24	; 0x01
    3364:	29 81       	ldd	r18, Y+1	; 0x01
    3366:	3a 81       	ldd	r19, Y+2	; 0x02
    3368:	89 8d       	ldd	r24, Y+25	; 0x19
    336a:	9a 8d       	ldd	r25, Y+26	; 0x1a
    336c:	82 17       	cp	r24, r18
    336e:	93 07       	cpc	r25, r19
    3370:	20 f4       	brcc	.+8      	; 0x337a <f_read+0x42a>
    3372:	89 8d       	ldd	r24, Y+25	; 0x19
    3374:	9a 8d       	ldd	r25, Y+26	; 0x1a
    3376:	9a 83       	std	Y+2, r25	; 0x02
    3378:	89 83       	std	Y+1, r24	; 0x01
    337a:	8d 89       	ldd	r24, Y+21	; 0x15
    337c:	9e 89       	ldd	r25, Y+22	; 0x16
    337e:	fc 01       	movw	r30, r24
    3380:	86 89       	ldd	r24, Z+22	; 0x16
    3382:	97 89       	ldd	r25, Z+23	; 0x17
    3384:	a0 8d       	ldd	r26, Z+24	; 0x18
    3386:	b1 8d       	ldd	r27, Z+25	; 0x19
    3388:	2d 89       	ldd	r18, Y+21	; 0x15
    338a:	3e 89       	ldd	r19, Y+22	; 0x16
    338c:	f9 01       	movw	r30, r18
    338e:	20 81       	ld	r18, Z
    3390:	31 81       	ldd	r19, Z+1	; 0x01
    3392:	ac 01       	movw	r20, r24
    3394:	bd 01       	movw	r22, r26
    3396:	c9 01       	movw	r24, r18
    3398:	0e 94 e4 03 	call	0x7c8	; 0x7c8 <move_window>
    339c:	88 23       	and	r24, r24
    339e:	69 f0       	breq	.+26     	; 0x33ba <f_read+0x46a>
    33a0:	8d 89       	ldd	r24, Y+21	; 0x15
    33a2:	9e 89       	ldd	r25, Y+22	; 0x16
    33a4:	dc 01       	movw	r26, r24
    33a6:	14 96       	adiw	r26, 0x04	; 4
    33a8:	8c 91       	ld	r24, X
    33aa:	28 2f       	mov	r18, r24
    33ac:	20 68       	ori	r18, 0x80	; 128
    33ae:	8d 89       	ldd	r24, Y+21	; 0x15
    33b0:	9e 89       	ldd	r25, Y+22	; 0x16
    33b2:	fc 01       	movw	r30, r24
    33b4:	24 83       	std	Z+4, r18	; 0x04
    33b6:	81 e0       	ldi	r24, 0x01	; 1
    33b8:	58 c0       	rjmp	.+176    	; 0x346a <f_read+0x51a>
    33ba:	8d 89       	ldd	r24, Y+21	; 0x15
    33bc:	9e 89       	ldd	r25, Y+22	; 0x16
    33be:	dc 01       	movw	r26, r24
    33c0:	2d 91       	ld	r18, X+
    33c2:	3c 91       	ld	r19, X
    33c4:	8d 89       	ldd	r24, Y+21	; 0x15
    33c6:	9e 89       	ldd	r25, Y+22	; 0x16
    33c8:	fc 01       	movw	r30, r24
    33ca:	86 81       	ldd	r24, Z+6	; 0x06
    33cc:	97 81       	ldd	r25, Z+7	; 0x07
    33ce:	a0 85       	ldd	r26, Z+8	; 0x08
    33d0:	b1 85       	ldd	r27, Z+9	; 0x09
    33d2:	91 70       	andi	r25, 0x01	; 1
    33d4:	aa 27       	eor	r26, r26
    33d6:	bb 27       	eor	r27, r27
    33d8:	c2 96       	adiw	r24, 0x32	; 50
    33da:	28 0f       	add	r18, r24
    33dc:	39 1f       	adc	r19, r25
    33de:	49 81       	ldd	r20, Y+1	; 0x01
    33e0:	5a 81       	ldd	r21, Y+2	; 0x02
    33e2:	8d 81       	ldd	r24, Y+5	; 0x05
    33e4:	9e 81       	ldd	r25, Y+6	; 0x06
    33e6:	b9 01       	movw	r22, r18
    33e8:	0e 94 d9 02 	call	0x5b2	; 0x5b2 <mem_cpy>
    33ec:	2d 81       	ldd	r18, Y+5	; 0x05
    33ee:	3e 81       	ldd	r19, Y+6	; 0x06
    33f0:	89 81       	ldd	r24, Y+1	; 0x01
    33f2:	9a 81       	ldd	r25, Y+2	; 0x02
    33f4:	82 0f       	add	r24, r18
    33f6:	93 1f       	adc	r25, r19
    33f8:	9e 83       	std	Y+6, r25	; 0x06
    33fa:	8d 83       	std	Y+5, r24	; 0x05
    33fc:	8d 89       	ldd	r24, Y+21	; 0x15
    33fe:	9e 89       	ldd	r25, Y+22	; 0x16
    3400:	dc 01       	movw	r26, r24
    3402:	16 96       	adiw	r26, 0x06	; 6
    3404:	2d 91       	ld	r18, X+
    3406:	3d 91       	ld	r19, X+
    3408:	4d 91       	ld	r20, X+
    340a:	5c 91       	ld	r21, X
    340c:	19 97       	sbiw	r26, 0x09	; 9
    340e:	89 81       	ldd	r24, Y+1	; 0x01
    3410:	9a 81       	ldd	r25, Y+2	; 0x02
    3412:	cc 01       	movw	r24, r24
    3414:	a0 e0       	ldi	r26, 0x00	; 0
    3416:	b0 e0       	ldi	r27, 0x00	; 0
    3418:	82 0f       	add	r24, r18
    341a:	93 1f       	adc	r25, r19
    341c:	a4 1f       	adc	r26, r20
    341e:	b5 1f       	adc	r27, r21
    3420:	2d 89       	ldd	r18, Y+21	; 0x15
    3422:	3e 89       	ldd	r19, Y+22	; 0x16
    3424:	f9 01       	movw	r30, r18
    3426:	86 83       	std	Z+6, r24	; 0x06
    3428:	97 83       	std	Z+7, r25	; 0x07
    342a:	a0 87       	std	Z+8, r26	; 0x08
    342c:	b1 87       	std	Z+9, r27	; 0x09
    342e:	8b 8d       	ldd	r24, Y+27	; 0x1b
    3430:	9c 8d       	ldd	r25, Y+28	; 0x1c
    3432:	dc 01       	movw	r26, r24
    3434:	2d 91       	ld	r18, X+
    3436:	3c 91       	ld	r19, X
    3438:	89 81       	ldd	r24, Y+1	; 0x01
    343a:	9a 81       	ldd	r25, Y+2	; 0x02
    343c:	28 0f       	add	r18, r24
    343e:	39 1f       	adc	r19, r25
    3440:	8b 8d       	ldd	r24, Y+27	; 0x1b
    3442:	9c 8d       	ldd	r25, Y+28	; 0x1c
    3444:	fc 01       	movw	r30, r24
    3446:	31 83       	std	Z+1, r19	; 0x01
    3448:	20 83       	st	Z, r18
    344a:	29 8d       	ldd	r18, Y+25	; 0x19
    344c:	3a 8d       	ldd	r19, Y+26	; 0x1a
    344e:	89 81       	ldd	r24, Y+1	; 0x01
    3450:	9a 81       	ldd	r25, Y+2	; 0x02
    3452:	79 01       	movw	r14, r18
    3454:	e8 1a       	sub	r14, r24
    3456:	f9 0a       	sbc	r15, r25
    3458:	c7 01       	movw	r24, r14
    345a:	9a 8f       	std	Y+26, r25	; 0x1a
    345c:	89 8f       	std	Y+25, r24	; 0x19
    345e:	89 8d       	ldd	r24, Y+25	; 0x19
    3460:	9a 8d       	ldd	r25, Y+26	; 0x1a
    3462:	89 2b       	or	r24, r25
    3464:	09 f0       	breq	.+2      	; 0x3468 <f_read+0x518>
    3466:	e9 cd       	rjmp	.-1070   	; 0x303a <f_read+0xea>
    3468:	80 e0       	ldi	r24, 0x00	; 0
    346a:	6c 96       	adiw	r28, 0x1c	; 28
    346c:	0f b6       	in	r0, 0x3f	; 63
    346e:	f8 94       	cli
    3470:	de bf       	out	0x3e, r29	; 62
    3472:	0f be       	out	0x3f, r0	; 63
    3474:	cd bf       	out	0x3d, r28	; 61
    3476:	df 91       	pop	r29
    3478:	cf 91       	pop	r28
    347a:	1f 91       	pop	r17
    347c:	0f 91       	pop	r16
    347e:	ff 90       	pop	r15
    3480:	ef 90       	pop	r14
    3482:	08 95       	ret

00003484 <f_sync>:
    3484:	cf 93       	push	r28
    3486:	df 93       	push	r29
    3488:	cd b7       	in	r28, 0x3d	; 61
    348a:	de b7       	in	r29, 0x3e	; 62
    348c:	29 97       	sbiw	r28, 0x09	; 9
    348e:	0f b6       	in	r0, 0x3f	; 63
    3490:	f8 94       	cli
    3492:	de bf       	out	0x3e, r29	; 62
    3494:	0f be       	out	0x3f, r0	; 63
    3496:	cd bf       	out	0x3d, r28	; 61
    3498:	99 87       	std	Y+9, r25	; 0x09
    349a:	88 87       	std	Y+8, r24	; 0x08
    349c:	88 85       	ldd	r24, Y+8	; 0x08
    349e:	99 85       	ldd	r25, Y+9	; 0x09
    34a0:	fc 01       	movw	r30, r24
    34a2:	22 81       	ldd	r18, Z+2	; 0x02
    34a4:	33 81       	ldd	r19, Z+3	; 0x03
    34a6:	88 85       	ldd	r24, Y+8	; 0x08
    34a8:	99 85       	ldd	r25, Y+9	; 0x09
    34aa:	fc 01       	movw	r30, r24
    34ac:	80 81       	ld	r24, Z
    34ae:	91 81       	ldd	r25, Z+1	; 0x01
    34b0:	b9 01       	movw	r22, r18
    34b2:	0e 94 7d 15 	call	0x2afa	; 0x2afa <validate>
    34b6:	89 83       	std	Y+1, r24	; 0x01
    34b8:	89 81       	ldd	r24, Y+1	; 0x01
    34ba:	88 23       	and	r24, r24
    34bc:	09 f0       	breq	.+2      	; 0x34c0 <f_sync+0x3c>
    34be:	96 c0       	rjmp	.+300    	; 0x35ec <f_sync+0x168>
    34c0:	88 85       	ldd	r24, Y+8	; 0x08
    34c2:	99 85       	ldd	r25, Y+9	; 0x09
    34c4:	fc 01       	movw	r30, r24
    34c6:	84 81       	ldd	r24, Z+4	; 0x04
    34c8:	88 2f       	mov	r24, r24
    34ca:	90 e0       	ldi	r25, 0x00	; 0
    34cc:	80 72       	andi	r24, 0x20	; 32
    34ce:	99 27       	eor	r25, r25
    34d0:	89 2b       	or	r24, r25
    34d2:	09 f4       	brne	.+2      	; 0x34d6 <f_sync+0x52>
    34d4:	8b c0       	rjmp	.+278    	; 0x35ec <f_sync+0x168>
    34d6:	88 85       	ldd	r24, Y+8	; 0x08
    34d8:	99 85       	ldd	r25, Y+9	; 0x09
    34da:	fc 01       	movw	r30, r24
    34dc:	82 8d       	ldd	r24, Z+26	; 0x1a
    34de:	93 8d       	ldd	r25, Z+27	; 0x1b
    34e0:	a4 8d       	ldd	r26, Z+28	; 0x1c
    34e2:	b5 8d       	ldd	r27, Z+29	; 0x1d
    34e4:	28 85       	ldd	r18, Y+8	; 0x08
    34e6:	39 85       	ldd	r19, Y+9	; 0x09
    34e8:	f9 01       	movw	r30, r18
    34ea:	20 81       	ld	r18, Z
    34ec:	31 81       	ldd	r19, Z+1	; 0x01
    34ee:	ac 01       	movw	r20, r24
    34f0:	bd 01       	movw	r22, r26
    34f2:	c9 01       	movw	r24, r18
    34f4:	0e 94 e4 03 	call	0x7c8	; 0x7c8 <move_window>
    34f8:	89 83       	std	Y+1, r24	; 0x01
    34fa:	89 81       	ldd	r24, Y+1	; 0x01
    34fc:	88 23       	and	r24, r24
    34fe:	09 f0       	breq	.+2      	; 0x3502 <f_sync+0x7e>
    3500:	75 c0       	rjmp	.+234    	; 0x35ec <f_sync+0x168>
    3502:	88 85       	ldd	r24, Y+8	; 0x08
    3504:	99 85       	ldd	r25, Y+9	; 0x09
    3506:	fc 01       	movw	r30, r24
    3508:	86 8d       	ldd	r24, Z+30	; 0x1e
    350a:	97 8d       	ldd	r25, Z+31	; 0x1f
    350c:	9b 83       	std	Y+3, r25	; 0x03
    350e:	8a 83       	std	Y+2, r24	; 0x02
    3510:	8a 81       	ldd	r24, Y+2	; 0x02
    3512:	9b 81       	ldd	r25, Y+3	; 0x03
    3514:	0b 96       	adiw	r24, 0x0b	; 11
    3516:	2a 81       	ldd	r18, Y+2	; 0x02
    3518:	3b 81       	ldd	r19, Y+3	; 0x03
    351a:	25 5f       	subi	r18, 0xF5	; 245
    351c:	3f 4f       	sbci	r19, 0xFF	; 255
    351e:	f9 01       	movw	r30, r18
    3520:	20 81       	ld	r18, Z
    3522:	20 62       	ori	r18, 0x20	; 32
    3524:	fc 01       	movw	r30, r24
    3526:	20 83       	st	Z, r18
    3528:	8a 81       	ldd	r24, Y+2	; 0x02
    352a:	9b 81       	ldd	r25, Y+3	; 0x03
    352c:	9c 01       	movw	r18, r24
    352e:	24 5e       	subi	r18, 0xE4	; 228
    3530:	3f 4f       	sbci	r19, 0xFF	; 255
    3532:	88 85       	ldd	r24, Y+8	; 0x08
    3534:	99 85       	ldd	r25, Y+9	; 0x09
    3536:	fc 01       	movw	r30, r24
    3538:	82 85       	ldd	r24, Z+10	; 0x0a
    353a:	93 85       	ldd	r25, Z+11	; 0x0b
    353c:	a4 85       	ldd	r26, Z+12	; 0x0c
    353e:	b5 85       	ldd	r27, Z+13	; 0x0d
    3540:	f9 01       	movw	r30, r18
    3542:	80 83       	st	Z, r24
    3544:	91 83       	std	Z+1, r25	; 0x01
    3546:	a2 83       	std	Z+2, r26	; 0x02
    3548:	b3 83       	std	Z+3, r27	; 0x03
    354a:	8a 81       	ldd	r24, Y+2	; 0x02
    354c:	9b 81       	ldd	r25, Y+3	; 0x03
    354e:	9c 01       	movw	r18, r24
    3550:	26 5e       	subi	r18, 0xE6	; 230
    3552:	3f 4f       	sbci	r19, 0xFF	; 255
    3554:	88 85       	ldd	r24, Y+8	; 0x08
    3556:	99 85       	ldd	r25, Y+9	; 0x09
    3558:	fc 01       	movw	r30, r24
    355a:	86 85       	ldd	r24, Z+14	; 0x0e
    355c:	97 85       	ldd	r25, Z+15	; 0x0f
    355e:	a0 89       	ldd	r26, Z+16	; 0x10
    3560:	b1 89       	ldd	r27, Z+17	; 0x11
    3562:	f9 01       	movw	r30, r18
    3564:	91 83       	std	Z+1, r25	; 0x01
    3566:	80 83       	st	Z, r24
    3568:	8a 81       	ldd	r24, Y+2	; 0x02
    356a:	9b 81       	ldd	r25, Y+3	; 0x03
    356c:	9c 01       	movw	r18, r24
    356e:	2c 5e       	subi	r18, 0xEC	; 236
    3570:	3f 4f       	sbci	r19, 0xFF	; 255
    3572:	88 85       	ldd	r24, Y+8	; 0x08
    3574:	99 85       	ldd	r25, Y+9	; 0x09
    3576:	fc 01       	movw	r30, r24
    3578:	86 85       	ldd	r24, Z+14	; 0x0e
    357a:	97 85       	ldd	r25, Z+15	; 0x0f
    357c:	a0 89       	ldd	r26, Z+16	; 0x10
    357e:	b1 89       	ldd	r27, Z+17	; 0x11
    3580:	cd 01       	movw	r24, r26
    3582:	aa 27       	eor	r26, r26
    3584:	bb 27       	eor	r27, r27
    3586:	f9 01       	movw	r30, r18
    3588:	91 83       	std	Z+1, r25	; 0x01
    358a:	80 83       	st	Z, r24
    358c:	0e 94 2d 1e 	call	0x3c5a	; 0x3c5a <get_fattime>
    3590:	dc 01       	movw	r26, r24
    3592:	cb 01       	movw	r24, r22
    3594:	8c 83       	std	Y+4, r24	; 0x04
    3596:	9d 83       	std	Y+5, r25	; 0x05
    3598:	ae 83       	std	Y+6, r26	; 0x06
    359a:	bf 83       	std	Y+7, r27	; 0x07
    359c:	8a 81       	ldd	r24, Y+2	; 0x02
    359e:	9b 81       	ldd	r25, Y+3	; 0x03
    35a0:	9c 01       	movw	r18, r24
    35a2:	2a 5e       	subi	r18, 0xEA	; 234
    35a4:	3f 4f       	sbci	r19, 0xFF	; 255
    35a6:	8c 81       	ldd	r24, Y+4	; 0x04
    35a8:	9d 81       	ldd	r25, Y+5	; 0x05
    35aa:	ae 81       	ldd	r26, Y+6	; 0x06
    35ac:	bf 81       	ldd	r27, Y+7	; 0x07
    35ae:	f9 01       	movw	r30, r18
    35b0:	80 83       	st	Z, r24
    35b2:	91 83       	std	Z+1, r25	; 0x01
    35b4:	a2 83       	std	Z+2, r26	; 0x02
    35b6:	b3 83       	std	Z+3, r27	; 0x03
    35b8:	88 85       	ldd	r24, Y+8	; 0x08
    35ba:	99 85       	ldd	r25, Y+9	; 0x09
    35bc:	fc 01       	movw	r30, r24
    35be:	84 81       	ldd	r24, Z+4	; 0x04
    35c0:	28 2f       	mov	r18, r24
    35c2:	2f 7d       	andi	r18, 0xDF	; 223
    35c4:	88 85       	ldd	r24, Y+8	; 0x08
    35c6:	99 85       	ldd	r25, Y+9	; 0x09
    35c8:	fc 01       	movw	r30, r24
    35ca:	24 83       	std	Z+4, r18	; 0x04
    35cc:	88 85       	ldd	r24, Y+8	; 0x08
    35ce:	99 85       	ldd	r25, Y+9	; 0x09
    35d0:	fc 01       	movw	r30, r24
    35d2:	80 81       	ld	r24, Z
    35d4:	91 81       	ldd	r25, Z+1	; 0x01
    35d6:	21 e0       	ldi	r18, 0x01	; 1
    35d8:	fc 01       	movw	r30, r24
    35da:	24 83       	std	Z+4, r18	; 0x04
    35dc:	88 85       	ldd	r24, Y+8	; 0x08
    35de:	99 85       	ldd	r25, Y+9	; 0x09
    35e0:	fc 01       	movw	r30, r24
    35e2:	80 81       	ld	r24, Z
    35e4:	91 81       	ldd	r25, Z+1	; 0x01
    35e6:	0e 94 b9 04 	call	0x972	; 0x972 <sync>
    35ea:	89 83       	std	Y+1, r24	; 0x01
    35ec:	89 81       	ldd	r24, Y+1	; 0x01
    35ee:	29 96       	adiw	r28, 0x09	; 9
    35f0:	0f b6       	in	r0, 0x3f	; 63
    35f2:	f8 94       	cli
    35f4:	de bf       	out	0x3e, r29	; 62
    35f6:	0f be       	out	0x3f, r0	; 63
    35f8:	cd bf       	out	0x3d, r28	; 61
    35fa:	df 91       	pop	r29
    35fc:	cf 91       	pop	r28
    35fe:	08 95       	ret

00003600 <f_close>:
    3600:	cf 93       	push	r28
    3602:	df 93       	push	r29
    3604:	00 d0       	rcall	.+0      	; 0x3606 <f_close+0x6>
    3606:	1f 92       	push	r1
    3608:	cd b7       	in	r28, 0x3d	; 61
    360a:	de b7       	in	r29, 0x3e	; 62
    360c:	9b 83       	std	Y+3, r25	; 0x03
    360e:	8a 83       	std	Y+2, r24	; 0x02
    3610:	8a 81       	ldd	r24, Y+2	; 0x02
    3612:	9b 81       	ldd	r25, Y+3	; 0x03
    3614:	0e 94 42 1a 	call	0x3484	; 0x3484 <f_sync>
    3618:	89 83       	std	Y+1, r24	; 0x01
    361a:	89 81       	ldd	r24, Y+1	; 0x01
    361c:	88 23       	and	r24, r24
    361e:	29 f4       	brne	.+10     	; 0x362a <f_close+0x2a>
    3620:	8a 81       	ldd	r24, Y+2	; 0x02
    3622:	9b 81       	ldd	r25, Y+3	; 0x03
    3624:	fc 01       	movw	r30, r24
    3626:	11 82       	std	Z+1, r1	; 0x01
    3628:	10 82       	st	Z, r1
    362a:	89 81       	ldd	r24, Y+1	; 0x01
    362c:	0f 90       	pop	r0
    362e:	0f 90       	pop	r0
    3630:	0f 90       	pop	r0
    3632:	df 91       	pop	r29
    3634:	cf 91       	pop	r28
    3636:	08 95       	ret

00003638 <f_lseek>:

FRESULT f_lseek (
	FIL *fp,		/* Pointer to the file object */
	DWORD ofs		/* File pointer from top of file */
)
{
    3638:	ef 92       	push	r14
    363a:	ff 92       	push	r15
    363c:	0f 93       	push	r16
    363e:	1f 93       	push	r17
    3640:	cf 93       	push	r28
    3642:	df 93       	push	r29
    3644:	cd b7       	in	r28, 0x3d	; 61
    3646:	de b7       	in	r29, 0x3e	; 62
    3648:	67 97       	sbiw	r28, 0x17	; 23
    364a:	0f b6       	in	r0, 0x3f	; 63
    364c:	f8 94       	cli
    364e:	de bf       	out	0x3e, r29	; 62
    3650:	0f be       	out	0x3f, r0	; 63
    3652:	cd bf       	out	0x3d, r28	; 61
    3654:	9b 8b       	std	Y+19, r25	; 0x13
    3656:	8a 8b       	std	Y+18, r24	; 0x12
    3658:	4c 8b       	std	Y+20, r20	; 0x14
    365a:	5d 8b       	std	Y+21, r21	; 0x15
    365c:	6e 8b       	std	Y+22, r22	; 0x16
    365e:	7f 8b       	std	Y+23, r23	; 0x17
	FRESULT res;


	res = validate(fp->fs, fp->id);		/* Check validity of the object */
    3660:	8a 89       	ldd	r24, Y+18	; 0x12
    3662:	9b 89       	ldd	r25, Y+19	; 0x13
    3664:	fc 01       	movw	r30, r24
    3666:	22 81       	ldd	r18, Z+2	; 0x02
    3668:	33 81       	ldd	r19, Z+3	; 0x03
    366a:	8a 89       	ldd	r24, Y+18	; 0x12
    366c:	9b 89       	ldd	r25, Y+19	; 0x13
    366e:	fc 01       	movw	r30, r24
    3670:	80 81       	ld	r24, Z
    3672:	91 81       	ldd	r25, Z+1	; 0x01
    3674:	b9 01       	movw	r22, r18
    3676:	0e 94 7d 15 	call	0x2afa	; 0x2afa <validate>
    367a:	89 87       	std	Y+9, r24	; 0x09
	if (res != FR_OK) LEAVE_FF(fp->fs, res);
    367c:	89 85       	ldd	r24, Y+9	; 0x09
    367e:	88 23       	and	r24, r24
    3680:	11 f0       	breq	.+4      	; 0x3686 <f_lseek+0x4e>
    3682:	89 85       	ldd	r24, Y+9	; 0x09
    3684:	c5 c2       	rjmp	.+1418   	; 0x3c10 <f_lseek+0x5d8>
	if (fp->flag & FA__ERROR)			/* Check abort flag */
    3686:	8a 89       	ldd	r24, Y+18	; 0x12
    3688:	9b 89       	ldd	r25, Y+19	; 0x13
    368a:	fc 01       	movw	r30, r24
    368c:	84 81       	ldd	r24, Z+4	; 0x04
    368e:	88 23       	and	r24, r24
    3690:	14 f4       	brge	.+4      	; 0x3696 <f_lseek+0x5e>
		LEAVE_FF(fp->fs, FR_INT_ERR);
    3692:	82 e0       	ldi	r24, 0x02	; 2
    3694:	bd c2       	rjmp	.+1402   	; 0x3c10 <f_lseek+0x5d8>

	/* Normal Seek */
	{
		DWORD clst, bcs, nsect, ifptr;

		if (ofs > fp->fsize					/* In read-only mode, clip offset with the file size */
    3696:	8a 89       	ldd	r24, Y+18	; 0x12
    3698:	9b 89       	ldd	r25, Y+19	; 0x13
    369a:	fc 01       	movw	r30, r24
    369c:	22 85       	ldd	r18, Z+10	; 0x0a
    369e:	33 85       	ldd	r19, Z+11	; 0x0b
    36a0:	44 85       	ldd	r20, Z+12	; 0x0c
    36a2:	55 85       	ldd	r21, Z+13	; 0x0d
    36a4:	8c 89       	ldd	r24, Y+20	; 0x14
    36a6:	9d 89       	ldd	r25, Y+21	; 0x15
    36a8:	ae 89       	ldd	r26, Y+22	; 0x16
    36aa:	bf 89       	ldd	r27, Y+23	; 0x17
    36ac:	28 17       	cp	r18, r24
    36ae:	39 07       	cpc	r19, r25
    36b0:	4a 07       	cpc	r20, r26
    36b2:	5b 07       	cpc	r21, r27
    36b4:	a8 f4       	brcc	.+42     	; 0x36e0 <f_lseek+0xa8>
#if !_FS_READONLY
			 && !(fp->flag & FA_WRITE)
    36b6:	8a 89       	ldd	r24, Y+18	; 0x12
    36b8:	9b 89       	ldd	r25, Y+19	; 0x13
    36ba:	fc 01       	movw	r30, r24
    36bc:	84 81       	ldd	r24, Z+4	; 0x04
    36be:	88 2f       	mov	r24, r24
    36c0:	90 e0       	ldi	r25, 0x00	; 0
    36c2:	82 70       	andi	r24, 0x02	; 2
    36c4:	99 27       	eor	r25, r25
    36c6:	89 2b       	or	r24, r25
    36c8:	59 f4       	brne	.+22     	; 0x36e0 <f_lseek+0xa8>
#endif
			) ofs = fp->fsize;
    36ca:	8a 89       	ldd	r24, Y+18	; 0x12
    36cc:	9b 89       	ldd	r25, Y+19	; 0x13
    36ce:	fc 01       	movw	r30, r24
    36d0:	82 85       	ldd	r24, Z+10	; 0x0a
    36d2:	93 85       	ldd	r25, Z+11	; 0x0b
    36d4:	a4 85       	ldd	r26, Z+12	; 0x0c
    36d6:	b5 85       	ldd	r27, Z+13	; 0x0d
    36d8:	8c 8b       	std	Y+20, r24	; 0x14
    36da:	9d 8b       	std	Y+21, r25	; 0x15
    36dc:	ae 8b       	std	Y+22, r26	; 0x16
    36de:	bf 8b       	std	Y+23, r27	; 0x17

		ifptr = fp->fptr;
    36e0:	8a 89       	ldd	r24, Y+18	; 0x12
    36e2:	9b 89       	ldd	r25, Y+19	; 0x13
    36e4:	fc 01       	movw	r30, r24
    36e6:	86 81       	ldd	r24, Z+6	; 0x06
    36e8:	97 81       	ldd	r25, Z+7	; 0x07
    36ea:	a0 85       	ldd	r26, Z+8	; 0x08
    36ec:	b1 85       	ldd	r27, Z+9	; 0x09
    36ee:	8a 87       	std	Y+10, r24	; 0x0a
    36f0:	9b 87       	std	Y+11, r25	; 0x0b
    36f2:	ac 87       	std	Y+12, r26	; 0x0c
    36f4:	bd 87       	std	Y+13, r27	; 0x0d
		fp->fptr = nsect = 0;
    36f6:	1d 82       	std	Y+5, r1	; 0x05
    36f8:	1e 82       	std	Y+6, r1	; 0x06
    36fa:	1f 82       	std	Y+7, r1	; 0x07
    36fc:	18 86       	std	Y+8, r1	; 0x08
    36fe:	2a 89       	ldd	r18, Y+18	; 0x12
    3700:	3b 89       	ldd	r19, Y+19	; 0x13
    3702:	8d 81       	ldd	r24, Y+5	; 0x05
    3704:	9e 81       	ldd	r25, Y+6	; 0x06
    3706:	af 81       	ldd	r26, Y+7	; 0x07
    3708:	b8 85       	ldd	r27, Y+8	; 0x08
    370a:	f9 01       	movw	r30, r18
    370c:	86 83       	std	Z+6, r24	; 0x06
    370e:	97 83       	std	Z+7, r25	; 0x07
    3710:	a0 87       	std	Z+8, r26	; 0x08
    3712:	b1 87       	std	Z+9, r27	; 0x09
		if (ofs) {
    3714:	8c 89       	ldd	r24, Y+20	; 0x14
    3716:	9d 89       	ldd	r25, Y+21	; 0x15
    3718:	ae 89       	ldd	r26, Y+22	; 0x16
    371a:	bf 89       	ldd	r27, Y+23	; 0x17
    371c:	89 2b       	or	r24, r25
    371e:	8a 2b       	or	r24, r26
    3720:	8b 2b       	or	r24, r27
    3722:	09 f4       	brne	.+2      	; 0x3726 <f_lseek+0xee>
    3724:	20 c2       	rjmp	.+1088   	; 0x3b66 <f_lseek+0x52e>
			bcs = (DWORD)fp->fs->csize * SS(fp->fs);	/* Cluster size (byte) */
    3726:	8a 89       	ldd	r24, Y+18	; 0x12
    3728:	9b 89       	ldd	r25, Y+19	; 0x13
    372a:	fc 01       	movw	r30, r24
    372c:	80 81       	ld	r24, Z
    372e:	91 81       	ldd	r25, Z+1	; 0x01
    3730:	fc 01       	movw	r30, r24
    3732:	82 81       	ldd	r24, Z+2	; 0x02
    3734:	88 2f       	mov	r24, r24
    3736:	90 e0       	ldi	r25, 0x00	; 0
    3738:	a0 e0       	ldi	r26, 0x00	; 0
    373a:	b0 e0       	ldi	r27, 0x00	; 0
    373c:	07 2e       	mov	r0, r23
    373e:	79 e0       	ldi	r23, 0x09	; 9
    3740:	88 0f       	add	r24, r24
    3742:	99 1f       	adc	r25, r25
    3744:	aa 1f       	adc	r26, r26
    3746:	bb 1f       	adc	r27, r27
    3748:	7a 95       	dec	r23
    374a:	d1 f7       	brne	.-12     	; 0x3740 <f_lseek+0x108>
    374c:	70 2d       	mov	r23, r0
    374e:	8e 87       	std	Y+14, r24	; 0x0e
    3750:	9f 87       	std	Y+15, r25	; 0x0f
    3752:	a8 8b       	std	Y+16, r26	; 0x10
    3754:	b9 8b       	std	Y+17, r27	; 0x11
			if (ifptr > 0 &&
    3756:	8a 85       	ldd	r24, Y+10	; 0x0a
    3758:	9b 85       	ldd	r25, Y+11	; 0x0b
    375a:	ac 85       	ldd	r26, Y+12	; 0x0c
    375c:	bd 85       	ldd	r27, Y+13	; 0x0d
    375e:	89 2b       	or	r24, r25
    3760:	8a 2b       	or	r24, r26
    3762:	8b 2b       	or	r24, r27
    3764:	09 f4       	brne	.+2      	; 0x3768 <f_lseek+0x130>
    3766:	6d c0       	rjmp	.+218    	; 0x3842 <f_lseek+0x20a>
				(ofs - 1) / bcs >= (ifptr - 1) / bcs) {	/* When seek to same or following cluster, */
    3768:	8c 89       	ldd	r24, Y+20	; 0x14
    376a:	9d 89       	ldd	r25, Y+21	; 0x15
    376c:	ae 89       	ldd	r26, Y+22	; 0x16
    376e:	bf 89       	ldd	r27, Y+23	; 0x17
    3770:	01 97       	sbiw	r24, 0x01	; 1
    3772:	a1 09       	sbc	r26, r1
    3774:	b1 09       	sbc	r27, r1
    3776:	2e 85       	ldd	r18, Y+14	; 0x0e
    3778:	3f 85       	ldd	r19, Y+15	; 0x0f
    377a:	48 89       	ldd	r20, Y+16	; 0x10
    377c:	59 89       	ldd	r21, Y+17	; 0x11
    377e:	bc 01       	movw	r22, r24
    3780:	cd 01       	movw	r24, r26
    3782:	0e 94 5e 3e 	call	0x7cbc	; 0x7cbc <__udivmodsi4>
    3786:	da 01       	movw	r26, r20
    3788:	c9 01       	movw	r24, r18
    378a:	7c 01       	movw	r14, r24
    378c:	8d 01       	movw	r16, r26
    378e:	8a 85       	ldd	r24, Y+10	; 0x0a
    3790:	9b 85       	ldd	r25, Y+11	; 0x0b
    3792:	ac 85       	ldd	r26, Y+12	; 0x0c
    3794:	bd 85       	ldd	r27, Y+13	; 0x0d
    3796:	01 97       	sbiw	r24, 0x01	; 1
    3798:	a1 09       	sbc	r26, r1
    379a:	b1 09       	sbc	r27, r1
    379c:	2e 85       	ldd	r18, Y+14	; 0x0e
    379e:	3f 85       	ldd	r19, Y+15	; 0x0f
    37a0:	48 89       	ldd	r20, Y+16	; 0x10
    37a2:	59 89       	ldd	r21, Y+17	; 0x11
    37a4:	bc 01       	movw	r22, r24
    37a6:	cd 01       	movw	r24, r26
    37a8:	0e 94 5e 3e 	call	0x7cbc	; 0x7cbc <__udivmodsi4>
    37ac:	da 01       	movw	r26, r20
    37ae:	c9 01       	movw	r24, r18

		ifptr = fp->fptr;
		fp->fptr = nsect = 0;
		if (ofs) {
			bcs = (DWORD)fp->fs->csize * SS(fp->fs);	/* Cluster size (byte) */
			if (ifptr > 0 &&
    37b0:	e8 16       	cp	r14, r24
    37b2:	f9 06       	cpc	r15, r25
    37b4:	0a 07       	cpc	r16, r26
    37b6:	1b 07       	cpc	r17, r27
    37b8:	08 f4       	brcc	.+2      	; 0x37bc <f_lseek+0x184>
    37ba:	43 c0       	rjmp	.+134    	; 0x3842 <f_lseek+0x20a>
				(ofs - 1) / bcs >= (ifptr - 1) / bcs) {	/* When seek to same or following cluster, */
				fp->fptr = (ifptr - 1) & ~(bcs - 1);	/* start from the current cluster */
    37bc:	8a 85       	ldd	r24, Y+10	; 0x0a
    37be:	9b 85       	ldd	r25, Y+11	; 0x0b
    37c0:	ac 85       	ldd	r26, Y+12	; 0x0c
    37c2:	bd 85       	ldd	r27, Y+13	; 0x0d
    37c4:	9c 01       	movw	r18, r24
    37c6:	ad 01       	movw	r20, r26
    37c8:	21 50       	subi	r18, 0x01	; 1
    37ca:	31 09       	sbc	r19, r1
    37cc:	41 09       	sbc	r20, r1
    37ce:	51 09       	sbc	r21, r1
    37d0:	8e 85       	ldd	r24, Y+14	; 0x0e
    37d2:	9f 85       	ldd	r25, Y+15	; 0x0f
    37d4:	a8 89       	ldd	r26, Y+16	; 0x10
    37d6:	b9 89       	ldd	r27, Y+17	; 0x11
    37d8:	b0 95       	com	r27
    37da:	a0 95       	com	r26
    37dc:	90 95       	com	r25
    37de:	81 95       	neg	r24
    37e0:	9f 4f       	sbci	r25, 0xFF	; 255
    37e2:	af 4f       	sbci	r26, 0xFF	; 255
    37e4:	bf 4f       	sbci	r27, 0xFF	; 255
    37e6:	82 23       	and	r24, r18
    37e8:	93 23       	and	r25, r19
    37ea:	a4 23       	and	r26, r20
    37ec:	b5 23       	and	r27, r21
    37ee:	2a 89       	ldd	r18, Y+18	; 0x12
    37f0:	3b 89       	ldd	r19, Y+19	; 0x13
    37f2:	f9 01       	movw	r30, r18
    37f4:	86 83       	std	Z+6, r24	; 0x06
    37f6:	97 83       	std	Z+7, r25	; 0x07
    37f8:	a0 87       	std	Z+8, r26	; 0x08
    37fa:	b1 87       	std	Z+9, r27	; 0x09
				ofs -= fp->fptr;
    37fc:	8a 89       	ldd	r24, Y+18	; 0x12
    37fe:	9b 89       	ldd	r25, Y+19	; 0x13
    3800:	fc 01       	movw	r30, r24
    3802:	86 81       	ldd	r24, Z+6	; 0x06
    3804:	97 81       	ldd	r25, Z+7	; 0x07
    3806:	a0 85       	ldd	r26, Z+8	; 0x08
    3808:	b1 85       	ldd	r27, Z+9	; 0x09
    380a:	2c 89       	ldd	r18, Y+20	; 0x14
    380c:	3d 89       	ldd	r19, Y+21	; 0x15
    380e:	4e 89       	ldd	r20, Y+22	; 0x16
    3810:	5f 89       	ldd	r21, Y+23	; 0x17
    3812:	79 01       	movw	r14, r18
    3814:	8a 01       	movw	r16, r20
    3816:	e8 1a       	sub	r14, r24
    3818:	f9 0a       	sbc	r15, r25
    381a:	0a 0b       	sbc	r16, r26
    381c:	1b 0b       	sbc	r17, r27
    381e:	d8 01       	movw	r26, r16
    3820:	c7 01       	movw	r24, r14
    3822:	8c 8b       	std	Y+20, r24	; 0x14
    3824:	9d 8b       	std	Y+21, r25	; 0x15
    3826:	ae 8b       	std	Y+22, r26	; 0x16
    3828:	bf 8b       	std	Y+23, r27	; 0x17
				clst = fp->curr_clust;
    382a:	8a 89       	ldd	r24, Y+18	; 0x12
    382c:	9b 89       	ldd	r25, Y+19	; 0x13
    382e:	fc 01       	movw	r30, r24
    3830:	82 89       	ldd	r24, Z+18	; 0x12
    3832:	93 89       	ldd	r25, Z+19	; 0x13
    3834:	a4 89       	ldd	r26, Z+20	; 0x14
    3836:	b5 89       	ldd	r27, Z+21	; 0x15
    3838:	89 83       	std	Y+1, r24	; 0x01
    383a:	9a 83       	std	Y+2, r25	; 0x02
    383c:	ab 83       	std	Y+3, r26	; 0x03
    383e:	bc 83       	std	Y+4, r27	; 0x04
    3840:	63 c0       	rjmp	.+198    	; 0x3908 <f_lseek+0x2d0>
			} else {									/* When seek to back cluster, */
				clst = fp->org_clust;					/* start from the first cluster */
    3842:	8a 89       	ldd	r24, Y+18	; 0x12
    3844:	9b 89       	ldd	r25, Y+19	; 0x13
    3846:	fc 01       	movw	r30, r24
    3848:	86 85       	ldd	r24, Z+14	; 0x0e
    384a:	97 85       	ldd	r25, Z+15	; 0x0f
    384c:	a0 89       	ldd	r26, Z+16	; 0x10
    384e:	b1 89       	ldd	r27, Z+17	; 0x11
    3850:	89 83       	std	Y+1, r24	; 0x01
    3852:	9a 83       	std	Y+2, r25	; 0x02
    3854:	ab 83       	std	Y+3, r26	; 0x03
    3856:	bc 83       	std	Y+4, r27	; 0x04
#if !_FS_READONLY
				if (clst == 0) {						/* If no cluster chain, create a new chain */
    3858:	89 81       	ldd	r24, Y+1	; 0x01
    385a:	9a 81       	ldd	r25, Y+2	; 0x02
    385c:	ab 81       	ldd	r26, Y+3	; 0x03
    385e:	bc 81       	ldd	r27, Y+4	; 0x04
    3860:	89 2b       	or	r24, r25
    3862:	8a 2b       	or	r24, r26
    3864:	8b 2b       	or	r24, r27
    3866:	09 f0       	breq	.+2      	; 0x386a <f_lseek+0x232>
    3868:	44 c0       	rjmp	.+136    	; 0x38f2 <f_lseek+0x2ba>
					clst = create_chain(fp->fs, 0);
    386a:	8a 89       	ldd	r24, Y+18	; 0x12
    386c:	9b 89       	ldd	r25, Y+19	; 0x13
    386e:	fc 01       	movw	r30, r24
    3870:	80 81       	ld	r24, Z
    3872:	91 81       	ldd	r25, Z+1	; 0x01
    3874:	40 e0       	ldi	r20, 0x00	; 0
    3876:	50 e0       	ldi	r21, 0x00	; 0
    3878:	ba 01       	movw	r22, r20
    387a:	0e 94 8e 09 	call	0x131c	; 0x131c <create_chain>
    387e:	dc 01       	movw	r26, r24
    3880:	cb 01       	movw	r24, r22
    3882:	89 83       	std	Y+1, r24	; 0x01
    3884:	9a 83       	std	Y+2, r25	; 0x02
    3886:	ab 83       	std	Y+3, r26	; 0x03
    3888:	bc 83       	std	Y+4, r27	; 0x04
					if (clst == 1) ABORT(fp->fs, FR_INT_ERR);
    388a:	89 81       	ldd	r24, Y+1	; 0x01
    388c:	9a 81       	ldd	r25, Y+2	; 0x02
    388e:	ab 81       	ldd	r26, Y+3	; 0x03
    3890:	bc 81       	ldd	r27, Y+4	; 0x04
    3892:	01 97       	sbiw	r24, 0x01	; 1
    3894:	a1 05       	cpc	r26, r1
    3896:	b1 05       	cpc	r27, r1
    3898:	61 f4       	brne	.+24     	; 0x38b2 <f_lseek+0x27a>
    389a:	8a 89       	ldd	r24, Y+18	; 0x12
    389c:	9b 89       	ldd	r25, Y+19	; 0x13
    389e:	fc 01       	movw	r30, r24
    38a0:	84 81       	ldd	r24, Z+4	; 0x04
    38a2:	28 2f       	mov	r18, r24
    38a4:	20 68       	ori	r18, 0x80	; 128
    38a6:	8a 89       	ldd	r24, Y+18	; 0x12
    38a8:	9b 89       	ldd	r25, Y+19	; 0x13
    38aa:	fc 01       	movw	r30, r24
    38ac:	24 83       	std	Z+4, r18	; 0x04
    38ae:	82 e0       	ldi	r24, 0x02	; 2
    38b0:	af c1       	rjmp	.+862    	; 0x3c10 <f_lseek+0x5d8>
					if (clst == 0xFFFFFFFF) ABORT(fp->fs, FR_DISK_ERR);
    38b2:	89 81       	ldd	r24, Y+1	; 0x01
    38b4:	9a 81       	ldd	r25, Y+2	; 0x02
    38b6:	ab 81       	ldd	r26, Y+3	; 0x03
    38b8:	bc 81       	ldd	r27, Y+4	; 0x04
    38ba:	8f 3f       	cpi	r24, 0xFF	; 255
    38bc:	9f 4f       	sbci	r25, 0xFF	; 255
    38be:	af 4f       	sbci	r26, 0xFF	; 255
    38c0:	bf 4f       	sbci	r27, 0xFF	; 255
    38c2:	61 f4       	brne	.+24     	; 0x38dc <f_lseek+0x2a4>
    38c4:	8a 89       	ldd	r24, Y+18	; 0x12
    38c6:	9b 89       	ldd	r25, Y+19	; 0x13
    38c8:	fc 01       	movw	r30, r24
    38ca:	84 81       	ldd	r24, Z+4	; 0x04
    38cc:	28 2f       	mov	r18, r24
    38ce:	20 68       	ori	r18, 0x80	; 128
    38d0:	8a 89       	ldd	r24, Y+18	; 0x12
    38d2:	9b 89       	ldd	r25, Y+19	; 0x13
    38d4:	fc 01       	movw	r30, r24
    38d6:	24 83       	std	Z+4, r18	; 0x04
    38d8:	81 e0       	ldi	r24, 0x01	; 1
    38da:	9a c1       	rjmp	.+820    	; 0x3c10 <f_lseek+0x5d8>
					fp->org_clust = clst;
    38dc:	2a 89       	ldd	r18, Y+18	; 0x12
    38de:	3b 89       	ldd	r19, Y+19	; 0x13
    38e0:	89 81       	ldd	r24, Y+1	; 0x01
    38e2:	9a 81       	ldd	r25, Y+2	; 0x02
    38e4:	ab 81       	ldd	r26, Y+3	; 0x03
    38e6:	bc 81       	ldd	r27, Y+4	; 0x04
    38e8:	f9 01       	movw	r30, r18
    38ea:	86 87       	std	Z+14, r24	; 0x0e
    38ec:	97 87       	std	Z+15, r25	; 0x0f
    38ee:	a0 8b       	std	Z+16, r26	; 0x10
    38f0:	b1 8b       	std	Z+17, r27	; 0x11
				}
#endif
				fp->curr_clust = clst;
    38f2:	2a 89       	ldd	r18, Y+18	; 0x12
    38f4:	3b 89       	ldd	r19, Y+19	; 0x13
    38f6:	89 81       	ldd	r24, Y+1	; 0x01
    38f8:	9a 81       	ldd	r25, Y+2	; 0x02
    38fa:	ab 81       	ldd	r26, Y+3	; 0x03
    38fc:	bc 81       	ldd	r27, Y+4	; 0x04
    38fe:	f9 01       	movw	r30, r18
    3900:	82 8b       	std	Z+18, r24	; 0x12
    3902:	93 8b       	std	Z+19, r25	; 0x13
    3904:	a4 8b       	std	Z+20, r26	; 0x14
    3906:	b5 8b       	std	Z+21, r27	; 0x15
			}
			if (clst != 0) {
    3908:	89 81       	ldd	r24, Y+1	; 0x01
    390a:	9a 81       	ldd	r25, Y+2	; 0x02
    390c:	ab 81       	ldd	r26, Y+3	; 0x03
    390e:	bc 81       	ldd	r27, Y+4	; 0x04
    3910:	89 2b       	or	r24, r25
    3912:	8a 2b       	or	r24, r26
    3914:	8b 2b       	or	r24, r27
    3916:	09 f4       	brne	.+2      	; 0x391a <f_lseek+0x2e2>
    3918:	26 c1       	rjmp	.+588    	; 0x3b66 <f_lseek+0x52e>
				while (ofs > bcs) {						/* Cluster following loop */
    391a:	b4 c0       	rjmp	.+360    	; 0x3a84 <f_lseek+0x44c>
#if !_FS_READONLY
					if (fp->flag & FA_WRITE) {			/* Check if in write mode or not */
    391c:	8a 89       	ldd	r24, Y+18	; 0x12
    391e:	9b 89       	ldd	r25, Y+19	; 0x13
    3920:	fc 01       	movw	r30, r24
    3922:	84 81       	ldd	r24, Z+4	; 0x04
    3924:	88 2f       	mov	r24, r24
    3926:	90 e0       	ldi	r25, 0x00	; 0
    3928:	82 70       	andi	r24, 0x02	; 2
    392a:	99 27       	eor	r25, r25
    392c:	89 2b       	or	r24, r25
    392e:	29 f1       	breq	.+74     	; 0x397a <f_lseek+0x342>
						clst = create_chain(fp->fs, clst);	/* Force stretch if in write mode */
    3930:	8a 89       	ldd	r24, Y+18	; 0x12
    3932:	9b 89       	ldd	r25, Y+19	; 0x13
    3934:	fc 01       	movw	r30, r24
    3936:	20 81       	ld	r18, Z
    3938:	31 81       	ldd	r19, Z+1	; 0x01
    393a:	89 81       	ldd	r24, Y+1	; 0x01
    393c:	9a 81       	ldd	r25, Y+2	; 0x02
    393e:	ab 81       	ldd	r26, Y+3	; 0x03
    3940:	bc 81       	ldd	r27, Y+4	; 0x04
    3942:	ac 01       	movw	r20, r24
    3944:	bd 01       	movw	r22, r26
    3946:	c9 01       	movw	r24, r18
    3948:	0e 94 8e 09 	call	0x131c	; 0x131c <create_chain>
    394c:	dc 01       	movw	r26, r24
    394e:	cb 01       	movw	r24, r22
    3950:	89 83       	std	Y+1, r24	; 0x01
    3952:	9a 83       	std	Y+2, r25	; 0x02
    3954:	ab 83       	std	Y+3, r26	; 0x03
    3956:	bc 83       	std	Y+4, r27	; 0x04
						if (clst == 0) {				/* When disk gets full, clip file size */
    3958:	89 81       	ldd	r24, Y+1	; 0x01
    395a:	9a 81       	ldd	r25, Y+2	; 0x02
    395c:	ab 81       	ldd	r26, Y+3	; 0x03
    395e:	bc 81       	ldd	r27, Y+4	; 0x04
    3960:	89 2b       	or	r24, r25
    3962:	8a 2b       	or	r24, r26
    3964:	8b 2b       	or	r24, r27
    3966:	e9 f4       	brne	.+58     	; 0x39a2 <f_lseek+0x36a>
							ofs = bcs; break;
    3968:	8e 85       	ldd	r24, Y+14	; 0x0e
    396a:	9f 85       	ldd	r25, Y+15	; 0x0f
    396c:	a8 89       	ldd	r26, Y+16	; 0x10
    396e:	b9 89       	ldd	r27, Y+17	; 0x11
    3970:	8c 8b       	std	Y+20, r24	; 0x14
    3972:	9d 8b       	std	Y+21, r25	; 0x15
    3974:	ae 8b       	std	Y+22, r26	; 0x16
    3976:	bf 8b       	std	Y+23, r27	; 0x17
    3978:	93 c0       	rjmp	.+294    	; 0x3aa0 <f_lseek+0x468>
						}
					} else
#endif
						clst = get_fat(fp->fs, clst);	/* Follow cluster chain if not in write mode */
    397a:	8a 89       	ldd	r24, Y+18	; 0x12
    397c:	9b 89       	ldd	r25, Y+19	; 0x13
    397e:	fc 01       	movw	r30, r24
    3980:	20 81       	ld	r18, Z
    3982:	31 81       	ldd	r19, Z+1	; 0x01
    3984:	89 81       	ldd	r24, Y+1	; 0x01
    3986:	9a 81       	ldd	r25, Y+2	; 0x02
    3988:	ab 81       	ldd	r26, Y+3	; 0x03
    398a:	bc 81       	ldd	r27, Y+4	; 0x04
    398c:	ac 01       	movw	r20, r24
    398e:	bd 01       	movw	r22, r26
    3990:	c9 01       	movw	r24, r18
    3992:	0e 94 c2 05 	call	0xb84	; 0xb84 <get_fat>
    3996:	dc 01       	movw	r26, r24
    3998:	cb 01       	movw	r24, r22
    399a:	89 83       	std	Y+1, r24	; 0x01
    399c:	9a 83       	std	Y+2, r25	; 0x02
    399e:	ab 83       	std	Y+3, r26	; 0x03
    39a0:	bc 83       	std	Y+4, r27	; 0x04
					if (clst == 0xFFFFFFFF) ABORT(fp->fs, FR_DISK_ERR);
    39a2:	89 81       	ldd	r24, Y+1	; 0x01
    39a4:	9a 81       	ldd	r25, Y+2	; 0x02
    39a6:	ab 81       	ldd	r26, Y+3	; 0x03
    39a8:	bc 81       	ldd	r27, Y+4	; 0x04
    39aa:	8f 3f       	cpi	r24, 0xFF	; 255
    39ac:	9f 4f       	sbci	r25, 0xFF	; 255
    39ae:	af 4f       	sbci	r26, 0xFF	; 255
    39b0:	bf 4f       	sbci	r27, 0xFF	; 255
    39b2:	61 f4       	brne	.+24     	; 0x39cc <f_lseek+0x394>
    39b4:	8a 89       	ldd	r24, Y+18	; 0x12
    39b6:	9b 89       	ldd	r25, Y+19	; 0x13
    39b8:	fc 01       	movw	r30, r24
    39ba:	84 81       	ldd	r24, Z+4	; 0x04
    39bc:	28 2f       	mov	r18, r24
    39be:	20 68       	ori	r18, 0x80	; 128
    39c0:	8a 89       	ldd	r24, Y+18	; 0x12
    39c2:	9b 89       	ldd	r25, Y+19	; 0x13
    39c4:	fc 01       	movw	r30, r24
    39c6:	24 83       	std	Z+4, r18	; 0x04
    39c8:	81 e0       	ldi	r24, 0x01	; 1
    39ca:	22 c1       	rjmp	.+580    	; 0x3c10 <f_lseek+0x5d8>
					if (clst <= 1 || clst >= fp->fs->n_fatent) ABORT(fp->fs, FR_INT_ERR);
    39cc:	89 81       	ldd	r24, Y+1	; 0x01
    39ce:	9a 81       	ldd	r25, Y+2	; 0x02
    39d0:	ab 81       	ldd	r26, Y+3	; 0x03
    39d2:	bc 81       	ldd	r27, Y+4	; 0x04
    39d4:	02 97       	sbiw	r24, 0x02	; 2
    39d6:	a1 05       	cpc	r26, r1
    39d8:	b1 05       	cpc	r27, r1
    39da:	98 f0       	brcs	.+38     	; 0x3a02 <f_lseek+0x3ca>
    39dc:	8a 89       	ldd	r24, Y+18	; 0x12
    39de:	9b 89       	ldd	r25, Y+19	; 0x13
    39e0:	fc 01       	movw	r30, r24
    39e2:	80 81       	ld	r24, Z
    39e4:	91 81       	ldd	r25, Z+1	; 0x01
    39e6:	fc 01       	movw	r30, r24
    39e8:	22 8d       	ldd	r18, Z+26	; 0x1a
    39ea:	33 8d       	ldd	r19, Z+27	; 0x1b
    39ec:	44 8d       	ldd	r20, Z+28	; 0x1c
    39ee:	55 8d       	ldd	r21, Z+29	; 0x1d
    39f0:	89 81       	ldd	r24, Y+1	; 0x01
    39f2:	9a 81       	ldd	r25, Y+2	; 0x02
    39f4:	ab 81       	ldd	r26, Y+3	; 0x03
    39f6:	bc 81       	ldd	r27, Y+4	; 0x04
    39f8:	82 17       	cp	r24, r18
    39fa:	93 07       	cpc	r25, r19
    39fc:	a4 07       	cpc	r26, r20
    39fe:	b5 07       	cpc	r27, r21
    3a00:	60 f0       	brcs	.+24     	; 0x3a1a <f_lseek+0x3e2>
    3a02:	8a 89       	ldd	r24, Y+18	; 0x12
    3a04:	9b 89       	ldd	r25, Y+19	; 0x13
    3a06:	fc 01       	movw	r30, r24
    3a08:	84 81       	ldd	r24, Z+4	; 0x04
    3a0a:	28 2f       	mov	r18, r24
    3a0c:	20 68       	ori	r18, 0x80	; 128
    3a0e:	8a 89       	ldd	r24, Y+18	; 0x12
    3a10:	9b 89       	ldd	r25, Y+19	; 0x13
    3a12:	fc 01       	movw	r30, r24
    3a14:	24 83       	std	Z+4, r18	; 0x04
    3a16:	82 e0       	ldi	r24, 0x02	; 2
    3a18:	fb c0       	rjmp	.+502    	; 0x3c10 <f_lseek+0x5d8>
					fp->curr_clust = clst;
    3a1a:	2a 89       	ldd	r18, Y+18	; 0x12
    3a1c:	3b 89       	ldd	r19, Y+19	; 0x13
    3a1e:	89 81       	ldd	r24, Y+1	; 0x01
    3a20:	9a 81       	ldd	r25, Y+2	; 0x02
    3a22:	ab 81       	ldd	r26, Y+3	; 0x03
    3a24:	bc 81       	ldd	r27, Y+4	; 0x04
    3a26:	f9 01       	movw	r30, r18
    3a28:	82 8b       	std	Z+18, r24	; 0x12
    3a2a:	93 8b       	std	Z+19, r25	; 0x13
    3a2c:	a4 8b       	std	Z+20, r26	; 0x14
    3a2e:	b5 8b       	std	Z+21, r27	; 0x15
					fp->fptr += bcs;
    3a30:	8a 89       	ldd	r24, Y+18	; 0x12
    3a32:	9b 89       	ldd	r25, Y+19	; 0x13
    3a34:	fc 01       	movw	r30, r24
    3a36:	26 81       	ldd	r18, Z+6	; 0x06
    3a38:	37 81       	ldd	r19, Z+7	; 0x07
    3a3a:	40 85       	ldd	r20, Z+8	; 0x08
    3a3c:	51 85       	ldd	r21, Z+9	; 0x09
    3a3e:	8e 85       	ldd	r24, Y+14	; 0x0e
    3a40:	9f 85       	ldd	r25, Y+15	; 0x0f
    3a42:	a8 89       	ldd	r26, Y+16	; 0x10
    3a44:	b9 89       	ldd	r27, Y+17	; 0x11
    3a46:	82 0f       	add	r24, r18
    3a48:	93 1f       	adc	r25, r19
    3a4a:	a4 1f       	adc	r26, r20
    3a4c:	b5 1f       	adc	r27, r21
    3a4e:	2a 89       	ldd	r18, Y+18	; 0x12
    3a50:	3b 89       	ldd	r19, Y+19	; 0x13
    3a52:	f9 01       	movw	r30, r18
    3a54:	86 83       	std	Z+6, r24	; 0x06
    3a56:	97 83       	std	Z+7, r25	; 0x07
    3a58:	a0 87       	std	Z+8, r26	; 0x08
    3a5a:	b1 87       	std	Z+9, r27	; 0x09
					ofs -= bcs;
    3a5c:	2c 89       	ldd	r18, Y+20	; 0x14
    3a5e:	3d 89       	ldd	r19, Y+21	; 0x15
    3a60:	4e 89       	ldd	r20, Y+22	; 0x16
    3a62:	5f 89       	ldd	r21, Y+23	; 0x17
    3a64:	8e 85       	ldd	r24, Y+14	; 0x0e
    3a66:	9f 85       	ldd	r25, Y+15	; 0x0f
    3a68:	a8 89       	ldd	r26, Y+16	; 0x10
    3a6a:	b9 89       	ldd	r27, Y+17	; 0x11
    3a6c:	79 01       	movw	r14, r18
    3a6e:	8a 01       	movw	r16, r20
    3a70:	e8 1a       	sub	r14, r24
    3a72:	f9 0a       	sbc	r15, r25
    3a74:	0a 0b       	sbc	r16, r26
    3a76:	1b 0b       	sbc	r17, r27
    3a78:	d8 01       	movw	r26, r16
    3a7a:	c7 01       	movw	r24, r14
    3a7c:	8c 8b       	std	Y+20, r24	; 0x14
    3a7e:	9d 8b       	std	Y+21, r25	; 0x15
    3a80:	ae 8b       	std	Y+22, r26	; 0x16
    3a82:	bf 8b       	std	Y+23, r27	; 0x17
				}
#endif
				fp->curr_clust = clst;
			}
			if (clst != 0) {
				while (ofs > bcs) {						/* Cluster following loop */
    3a84:	2c 89       	ldd	r18, Y+20	; 0x14
    3a86:	3d 89       	ldd	r19, Y+21	; 0x15
    3a88:	4e 89       	ldd	r20, Y+22	; 0x16
    3a8a:	5f 89       	ldd	r21, Y+23	; 0x17
    3a8c:	8e 85       	ldd	r24, Y+14	; 0x0e
    3a8e:	9f 85       	ldd	r25, Y+15	; 0x0f
    3a90:	a8 89       	ldd	r26, Y+16	; 0x10
    3a92:	b9 89       	ldd	r27, Y+17	; 0x11
    3a94:	82 17       	cp	r24, r18
    3a96:	93 07       	cpc	r25, r19
    3a98:	a4 07       	cpc	r26, r20
    3a9a:	b5 07       	cpc	r27, r21
    3a9c:	08 f4       	brcc	.+2      	; 0x3aa0 <f_lseek+0x468>
    3a9e:	3e cf       	rjmp	.-388    	; 0x391c <f_lseek+0x2e4>
					if (clst <= 1 || clst >= fp->fs->n_fatent) ABORT(fp->fs, FR_INT_ERR);
					fp->curr_clust = clst;
					fp->fptr += bcs;
					ofs -= bcs;
				}
				fp->fptr += ofs;
    3aa0:	8a 89       	ldd	r24, Y+18	; 0x12
    3aa2:	9b 89       	ldd	r25, Y+19	; 0x13
    3aa4:	fc 01       	movw	r30, r24
    3aa6:	26 81       	ldd	r18, Z+6	; 0x06
    3aa8:	37 81       	ldd	r19, Z+7	; 0x07
    3aaa:	40 85       	ldd	r20, Z+8	; 0x08
    3aac:	51 85       	ldd	r21, Z+9	; 0x09
    3aae:	8c 89       	ldd	r24, Y+20	; 0x14
    3ab0:	9d 89       	ldd	r25, Y+21	; 0x15
    3ab2:	ae 89       	ldd	r26, Y+22	; 0x16
    3ab4:	bf 89       	ldd	r27, Y+23	; 0x17
    3ab6:	82 0f       	add	r24, r18
    3ab8:	93 1f       	adc	r25, r19
    3aba:	a4 1f       	adc	r26, r20
    3abc:	b5 1f       	adc	r27, r21
    3abe:	2a 89       	ldd	r18, Y+18	; 0x12
    3ac0:	3b 89       	ldd	r19, Y+19	; 0x13
    3ac2:	f9 01       	movw	r30, r18
    3ac4:	86 83       	std	Z+6, r24	; 0x06
    3ac6:	97 83       	std	Z+7, r25	; 0x07
    3ac8:	a0 87       	std	Z+8, r26	; 0x08
    3aca:	b1 87       	std	Z+9, r27	; 0x09
				if (ofs % SS(fp->fs)) {
    3acc:	8c 89       	ldd	r24, Y+20	; 0x14
    3ace:	9d 89       	ldd	r25, Y+21	; 0x15
    3ad0:	ae 89       	ldd	r26, Y+22	; 0x16
    3ad2:	bf 89       	ldd	r27, Y+23	; 0x17
    3ad4:	91 70       	andi	r25, 0x01	; 1
    3ad6:	aa 27       	eor	r26, r26
    3ad8:	bb 27       	eor	r27, r27
    3ada:	89 2b       	or	r24, r25
    3adc:	8a 2b       	or	r24, r26
    3ade:	8b 2b       	or	r24, r27
    3ae0:	09 f4       	brne	.+2      	; 0x3ae4 <f_lseek+0x4ac>
    3ae2:	41 c0       	rjmp	.+130    	; 0x3b66 <f_lseek+0x52e>
					nsect = clust2sect(fp->fs, clst);	/* Current sector */
    3ae4:	8a 89       	ldd	r24, Y+18	; 0x12
    3ae6:	9b 89       	ldd	r25, Y+19	; 0x13
    3ae8:	fc 01       	movw	r30, r24
    3aea:	20 81       	ld	r18, Z
    3aec:	31 81       	ldd	r19, Z+1	; 0x01
    3aee:	89 81       	ldd	r24, Y+1	; 0x01
    3af0:	9a 81       	ldd	r25, Y+2	; 0x02
    3af2:	ab 81       	ldd	r26, Y+3	; 0x03
    3af4:	bc 81       	ldd	r27, Y+4	; 0x04
    3af6:	ac 01       	movw	r20, r24
    3af8:	bd 01       	movw	r22, r26
    3afa:	c9 01       	movw	r24, r18
    3afc:	0e 94 68 05 	call	0xad0	; 0xad0 <clust2sect>
    3b00:	dc 01       	movw	r26, r24
    3b02:	cb 01       	movw	r24, r22
    3b04:	8d 83       	std	Y+5, r24	; 0x05
    3b06:	9e 83       	std	Y+6, r25	; 0x06
    3b08:	af 83       	std	Y+7, r26	; 0x07
    3b0a:	b8 87       	std	Y+8, r27	; 0x08
					if (!nsect) ABORT(fp->fs, FR_INT_ERR);
    3b0c:	8d 81       	ldd	r24, Y+5	; 0x05
    3b0e:	9e 81       	ldd	r25, Y+6	; 0x06
    3b10:	af 81       	ldd	r26, Y+7	; 0x07
    3b12:	b8 85       	ldd	r27, Y+8	; 0x08
    3b14:	89 2b       	or	r24, r25
    3b16:	8a 2b       	or	r24, r26
    3b18:	8b 2b       	or	r24, r27
    3b1a:	61 f4       	brne	.+24     	; 0x3b34 <f_lseek+0x4fc>
    3b1c:	8a 89       	ldd	r24, Y+18	; 0x12
    3b1e:	9b 89       	ldd	r25, Y+19	; 0x13
    3b20:	fc 01       	movw	r30, r24
    3b22:	84 81       	ldd	r24, Z+4	; 0x04
    3b24:	28 2f       	mov	r18, r24
    3b26:	20 68       	ori	r18, 0x80	; 128
    3b28:	8a 89       	ldd	r24, Y+18	; 0x12
    3b2a:	9b 89       	ldd	r25, Y+19	; 0x13
    3b2c:	fc 01       	movw	r30, r24
    3b2e:	24 83       	std	Z+4, r18	; 0x04
    3b30:	82 e0       	ldi	r24, 0x02	; 2
    3b32:	6e c0       	rjmp	.+220    	; 0x3c10 <f_lseek+0x5d8>
					nsect += ofs / SS(fp->fs);
    3b34:	8c 89       	ldd	r24, Y+20	; 0x14
    3b36:	9d 89       	ldd	r25, Y+21	; 0x15
    3b38:	ae 89       	ldd	r26, Y+22	; 0x16
    3b3a:	bf 89       	ldd	r27, Y+23	; 0x17
    3b3c:	07 2e       	mov	r0, r23
    3b3e:	79 e0       	ldi	r23, 0x09	; 9
    3b40:	b6 95       	lsr	r27
    3b42:	a7 95       	ror	r26
    3b44:	97 95       	ror	r25
    3b46:	87 95       	ror	r24
    3b48:	7a 95       	dec	r23
    3b4a:	d1 f7       	brne	.-12     	; 0x3b40 <f_lseek+0x508>
    3b4c:	70 2d       	mov	r23, r0
    3b4e:	2d 81       	ldd	r18, Y+5	; 0x05
    3b50:	3e 81       	ldd	r19, Y+6	; 0x06
    3b52:	4f 81       	ldd	r20, Y+7	; 0x07
    3b54:	58 85       	ldd	r21, Y+8	; 0x08
    3b56:	82 0f       	add	r24, r18
    3b58:	93 1f       	adc	r25, r19
    3b5a:	a4 1f       	adc	r26, r20
    3b5c:	b5 1f       	adc	r27, r21
    3b5e:	8d 83       	std	Y+5, r24	; 0x05
    3b60:	9e 83       	std	Y+6, r25	; 0x06
    3b62:	af 83       	std	Y+7, r26	; 0x07
    3b64:	b8 87       	std	Y+8, r27	; 0x08
				}
			}
		}
		if (fp->fptr % SS(fp->fs) && nsect != fp->dsect) {
    3b66:	8a 89       	ldd	r24, Y+18	; 0x12
    3b68:	9b 89       	ldd	r25, Y+19	; 0x13
    3b6a:	fc 01       	movw	r30, r24
    3b6c:	86 81       	ldd	r24, Z+6	; 0x06
    3b6e:	97 81       	ldd	r25, Z+7	; 0x07
    3b70:	a0 85       	ldd	r26, Z+8	; 0x08
    3b72:	b1 85       	ldd	r27, Z+9	; 0x09
    3b74:	91 70       	andi	r25, 0x01	; 1
    3b76:	aa 27       	eor	r26, r26
    3b78:	bb 27       	eor	r27, r27
    3b7a:	89 2b       	or	r24, r25
    3b7c:	8a 2b       	or	r24, r26
    3b7e:	8b 2b       	or	r24, r27
    3b80:	d9 f0       	breq	.+54     	; 0x3bb8 <f_lseek+0x580>
    3b82:	8a 89       	ldd	r24, Y+18	; 0x12
    3b84:	9b 89       	ldd	r25, Y+19	; 0x13
    3b86:	fc 01       	movw	r30, r24
    3b88:	26 89       	ldd	r18, Z+22	; 0x16
    3b8a:	37 89       	ldd	r19, Z+23	; 0x17
    3b8c:	40 8d       	ldd	r20, Z+24	; 0x18
    3b8e:	51 8d       	ldd	r21, Z+25	; 0x19
    3b90:	8d 81       	ldd	r24, Y+5	; 0x05
    3b92:	9e 81       	ldd	r25, Y+6	; 0x06
    3b94:	af 81       	ldd	r26, Y+7	; 0x07
    3b96:	b8 85       	ldd	r27, Y+8	; 0x08
    3b98:	28 17       	cp	r18, r24
    3b9a:	39 07       	cpc	r19, r25
    3b9c:	4a 07       	cpc	r20, r26
    3b9e:	5b 07       	cpc	r21, r27
    3ba0:	59 f0       	breq	.+22     	; 0x3bb8 <f_lseek+0x580>
			}
#endif
			if (disk_read(fp->fs->drv, fp->buf, nsect, 1) != RES_OK)
				ABORT(fp->fs, FR_DISK_ERR);
#endif
			fp->dsect = nsect;
    3ba2:	2a 89       	ldd	r18, Y+18	; 0x12
    3ba4:	3b 89       	ldd	r19, Y+19	; 0x13
    3ba6:	8d 81       	ldd	r24, Y+5	; 0x05
    3ba8:	9e 81       	ldd	r25, Y+6	; 0x06
    3baa:	af 81       	ldd	r26, Y+7	; 0x07
    3bac:	b8 85       	ldd	r27, Y+8	; 0x08
    3bae:	f9 01       	movw	r30, r18
    3bb0:	86 8b       	std	Z+22, r24	; 0x16
    3bb2:	97 8b       	std	Z+23, r25	; 0x17
    3bb4:	a0 8f       	std	Z+24, r26	; 0x18
    3bb6:	b1 8f       	std	Z+25, r27	; 0x19
		}
#if !_FS_READONLY
		if (fp->fptr > fp->fsize) {			/* Set change flag if the file size is extended */
    3bb8:	8a 89       	ldd	r24, Y+18	; 0x12
    3bba:	9b 89       	ldd	r25, Y+19	; 0x13
    3bbc:	fc 01       	movw	r30, r24
    3bbe:	26 81       	ldd	r18, Z+6	; 0x06
    3bc0:	37 81       	ldd	r19, Z+7	; 0x07
    3bc2:	40 85       	ldd	r20, Z+8	; 0x08
    3bc4:	51 85       	ldd	r21, Z+9	; 0x09
    3bc6:	8a 89       	ldd	r24, Y+18	; 0x12
    3bc8:	9b 89       	ldd	r25, Y+19	; 0x13
    3bca:	fc 01       	movw	r30, r24
    3bcc:	82 85       	ldd	r24, Z+10	; 0x0a
    3bce:	93 85       	ldd	r25, Z+11	; 0x0b
    3bd0:	a4 85       	ldd	r26, Z+12	; 0x0c
    3bd2:	b5 85       	ldd	r27, Z+13	; 0x0d
    3bd4:	82 17       	cp	r24, r18
    3bd6:	93 07       	cpc	r25, r19
    3bd8:	a4 07       	cpc	r26, r20
    3bda:	b5 07       	cpc	r27, r21
    3bdc:	c0 f4       	brcc	.+48     	; 0x3c0e <f_lseek+0x5d6>
			fp->fsize = fp->fptr;
    3bde:	8a 89       	ldd	r24, Y+18	; 0x12
    3be0:	9b 89       	ldd	r25, Y+19	; 0x13
    3be2:	fc 01       	movw	r30, r24
    3be4:	86 81       	ldd	r24, Z+6	; 0x06
    3be6:	97 81       	ldd	r25, Z+7	; 0x07
    3be8:	a0 85       	ldd	r26, Z+8	; 0x08
    3bea:	b1 85       	ldd	r27, Z+9	; 0x09
    3bec:	2a 89       	ldd	r18, Y+18	; 0x12
    3bee:	3b 89       	ldd	r19, Y+19	; 0x13
    3bf0:	f9 01       	movw	r30, r18
    3bf2:	82 87       	std	Z+10, r24	; 0x0a
    3bf4:	93 87       	std	Z+11, r25	; 0x0b
    3bf6:	a4 87       	std	Z+12, r26	; 0x0c
    3bf8:	b5 87       	std	Z+13, r27	; 0x0d
			fp->flag |= FA__WRITTEN;
    3bfa:	8a 89       	ldd	r24, Y+18	; 0x12
    3bfc:	9b 89       	ldd	r25, Y+19	; 0x13
    3bfe:	fc 01       	movw	r30, r24
    3c00:	84 81       	ldd	r24, Z+4	; 0x04
    3c02:	28 2f       	mov	r18, r24
    3c04:	20 62       	ori	r18, 0x20	; 32
    3c06:	8a 89       	ldd	r24, Y+18	; 0x12
    3c08:	9b 89       	ldd	r25, Y+19	; 0x13
    3c0a:	fc 01       	movw	r30, r24
    3c0c:	24 83       	std	Z+4, r18	; 0x04
		}
#endif
	}

	LEAVE_FF(fp->fs, res);
    3c0e:	89 85       	ldd	r24, Y+9	; 0x09
}
    3c10:	67 96       	adiw	r28, 0x17	; 23
    3c12:	0f b6       	in	r0, 0x3f	; 63
    3c14:	f8 94       	cli
    3c16:	de bf       	out	0x3e, r29	; 62
    3c18:	0f be       	out	0x3f, r0	; 63
    3c1a:	cd bf       	out	0x3d, r28	; 61
    3c1c:	df 91       	pop	r29
    3c1e:	cf 91       	pop	r28
    3c20:	1f 91       	pop	r17
    3c22:	0f 91       	pop	r16
    3c24:	ff 90       	pop	r15
    3c26:	ef 90       	pop	r14
    3c28:	08 95       	ret

00003c2a <rx_handler>:
	cli();
	m = timer0_millis;
	SREG = oldSREG;

	return m;
}
    3c2a:	cf 93       	push	r28
    3c2c:	df 93       	push	r29
    3c2e:	1f 92       	push	r1
    3c30:	cd b7       	in	r28, 0x3d	; 61
    3c32:	de b7       	in	r29, 0x3e	; 62
    3c34:	89 83       	std	Y+1, r24	; 0x01
    3c36:	89 81       	ldd	r24, Y+1	; 0x01
    3c38:	8e 3f       	cpi	r24, 0xFE	; 254
    3c3a:	51 f0       	breq	.+20     	; 0x3c50 <rx_handler+0x26>
    3c3c:	69 81       	ldd	r22, Y+1	; 0x01
    3c3e:	85 e7       	ldi	r24, 0x75	; 117
    3c40:	94 e0       	ldi	r25, 0x04	; 4
    3c42:	0e 94 7c 02 	call	0x4f8	; 0x4f8 <bufferAddToEnd>
    3c46:	88 23       	and	r24, r24
    3c48:	21 f4       	brne	.+8      	; 0x3c52 <rx_handler+0x28>
    3c4a:	0e 94 83 3d 	call	0x7b06	; 0x7b06 <uartFlushReceiveBuffer>
    3c4e:	01 c0       	rjmp	.+2      	; 0x3c52 <rx_handler+0x28>
    3c50:	00 00       	nop
    3c52:	0f 90       	pop	r0
    3c54:	df 91       	pop	r29
    3c56:	cf 91       	pop	r28
    3c58:	08 95       	ret

00003c5a <get_fattime>:
    3c5a:	cf 93       	push	r28
    3c5c:	df 93       	push	r29
    3c5e:	cd b7       	in	r28, 0x3d	; 61
    3c60:	de b7       	in	r29, 0x3e	; 62
    3c62:	80 e0       	ldi	r24, 0x00	; 0
    3c64:	90 e0       	ldi	r25, 0x00	; 0
    3c66:	dc 01       	movw	r26, r24
    3c68:	bc 01       	movw	r22, r24
    3c6a:	cd 01       	movw	r24, r26
    3c6c:	df 91       	pop	r29
    3c6e:	cf 91       	pop	r28
    3c70:	08 95       	ret

00003c72 <configTimers>:
    3c72:	cf 93       	push	r28
    3c74:	df 93       	push	r29
    3c76:	cd b7       	in	r28, 0x3d	; 61
    3c78:	de b7       	in	r29, 0x3e	; 62
    3c7a:	83 e5       	ldi	r24, 0x53	; 83
    3c7c:	90 e0       	ldi	r25, 0x00	; 0
    3c7e:	23 e5       	ldi	r18, 0x53	; 83
    3c80:	30 e0       	ldi	r19, 0x00	; 0
    3c82:	f9 01       	movw	r30, r18
    3c84:	20 81       	ld	r18, Z
    3c86:	22 60       	ori	r18, 0x02	; 2
    3c88:	fc 01       	movw	r30, r24
    3c8a:	20 83       	st	Z, r18
    3c8c:	83 e5       	ldi	r24, 0x53	; 83
    3c8e:	90 e0       	ldi	r25, 0x00	; 0
    3c90:	23 e5       	ldi	r18, 0x53	; 83
    3c92:	30 e0       	ldi	r19, 0x00	; 0
    3c94:	f9 01       	movw	r30, r18
    3c96:	20 81       	ld	r18, Z
    3c98:	21 60       	ori	r18, 0x01	; 1
    3c9a:	fc 01       	movw	r30, r24
    3c9c:	20 83       	st	Z, r18
    3c9e:	89 e5       	ldi	r24, 0x59	; 89
    3ca0:	90 e0       	ldi	r25, 0x00	; 0
    3ca2:	29 e5       	ldi	r18, 0x59	; 89
    3ca4:	30 e0       	ldi	r19, 0x00	; 0
    3ca6:	f9 01       	movw	r30, r18
    3ca8:	20 81       	ld	r18, Z
    3caa:	21 60       	ori	r18, 0x01	; 1
    3cac:	fc 01       	movw	r30, r24
    3cae:	20 83       	st	Z, r18
    3cb0:	83 e4       	ldi	r24, 0x43	; 67
    3cb2:	90 e0       	ldi	r25, 0x00	; 0
    3cb4:	2c e9       	ldi	r18, 0x9C	; 156
    3cb6:	fc 01       	movw	r30, r24
    3cb8:	20 83       	st	Z, r18
    3cba:	85 e4       	ldi	r24, 0x45	; 69
    3cbc:	90 e0       	ldi	r25, 0x00	; 0
    3cbe:	25 e4       	ldi	r18, 0x45	; 69
    3cc0:	30 e0       	ldi	r19, 0x00	; 0
    3cc2:	f9 01       	movw	r30, r18
    3cc4:	20 81       	ld	r18, Z
    3cc6:	28 60       	ori	r18, 0x08	; 8
    3cc8:	fc 01       	movw	r30, r24
    3cca:	20 83       	st	Z, r18
    3ccc:	89 e5       	ldi	r24, 0x59	; 89
    3cce:	90 e0       	ldi	r25, 0x00	; 0
    3cd0:	29 e5       	ldi	r18, 0x59	; 89
    3cd2:	30 e0       	ldi	r19, 0x00	; 0
    3cd4:	f9 01       	movw	r30, r18
    3cd6:	20 81       	ld	r18, Z
    3cd8:	20 68       	ori	r18, 0x80	; 128
    3cda:	fc 01       	movw	r30, r24
    3cdc:	20 83       	st	Z, r18
    3cde:	85 e4       	ldi	r24, 0x45	; 69
    3ce0:	90 e0       	ldi	r25, 0x00	; 0
    3ce2:	25 e4       	ldi	r18, 0x45	; 69
    3ce4:	30 e0       	ldi	r19, 0x00	; 0
    3ce6:	f9 01       	movw	r30, r18
    3ce8:	20 81       	ld	r18, Z
    3cea:	27 60       	ori	r18, 0x07	; 7
    3cec:	fc 01       	movw	r30, r24
    3cee:	20 83       	st	Z, r18
    3cf0:	00 00       	nop
    3cf2:	df 91       	pop	r29
    3cf4:	cf 91       	pop	r28
    3cf6:	08 95       	ret

00003cf8 <addMillis>:
    3cf8:	cf 93       	push	r28
    3cfa:	df 93       	push	r29
    3cfc:	00 d0       	rcall	.+0      	; 0x3cfe <addMillis+0x6>
    3cfe:	00 d0       	rcall	.+0      	; 0x3d00 <addMillis+0x8>
    3d00:	1f 92       	push	r1
    3d02:	cd b7       	in	r28, 0x3d	; 61
    3d04:	de b7       	in	r29, 0x3e	; 62
    3d06:	80 91 93 01 	lds	r24, 0x0193	; 0x800193 <timer0_millis>
    3d0a:	90 91 94 01 	lds	r25, 0x0194	; 0x800194 <timer0_millis+0x1>
    3d0e:	a0 91 95 01 	lds	r26, 0x0195	; 0x800195 <timer0_millis+0x2>
    3d12:	b0 91 96 01 	lds	r27, 0x0196	; 0x800196 <timer0_millis+0x3>
    3d16:	89 83       	std	Y+1, r24	; 0x01
    3d18:	9a 83       	std	Y+2, r25	; 0x02
    3d1a:	ab 83       	std	Y+3, r26	; 0x03
    3d1c:	bc 83       	std	Y+4, r27	; 0x04
    3d1e:	80 91 97 01 	lds	r24, 0x0197	; 0x800197 <timer0_fract>
    3d22:	8d 83       	std	Y+5, r24	; 0x05
    3d24:	89 81       	ldd	r24, Y+1	; 0x01
    3d26:	9a 81       	ldd	r25, Y+2	; 0x02
    3d28:	ab 81       	ldd	r26, Y+3	; 0x03
    3d2a:	bc 81       	ldd	r27, Y+4	; 0x04
    3d2c:	01 96       	adiw	r24, 0x01	; 1
    3d2e:	a1 1d       	adc	r26, r1
    3d30:	b1 1d       	adc	r27, r1
    3d32:	89 83       	std	Y+1, r24	; 0x01
    3d34:	9a 83       	std	Y+2, r25	; 0x02
    3d36:	ab 83       	std	Y+3, r26	; 0x03
    3d38:	bc 83       	std	Y+4, r27	; 0x04
    3d3a:	8d 81       	ldd	r24, Y+5	; 0x05
    3d3c:	8d 5f       	subi	r24, 0xFD	; 253
    3d3e:	8d 83       	std	Y+5, r24	; 0x05
    3d40:	8d 81       	ldd	r24, Y+5	; 0x05
    3d42:	8d 37       	cpi	r24, 0x7D	; 125
    3d44:	70 f0       	brcs	.+28     	; 0x3d62 <addMillis+0x6a>
    3d46:	8d 81       	ldd	r24, Y+5	; 0x05
    3d48:	8d 57       	subi	r24, 0x7D	; 125
    3d4a:	8d 83       	std	Y+5, r24	; 0x05
    3d4c:	89 81       	ldd	r24, Y+1	; 0x01
    3d4e:	9a 81       	ldd	r25, Y+2	; 0x02
    3d50:	ab 81       	ldd	r26, Y+3	; 0x03
    3d52:	bc 81       	ldd	r27, Y+4	; 0x04
    3d54:	01 96       	adiw	r24, 0x01	; 1
    3d56:	a1 1d       	adc	r26, r1
    3d58:	b1 1d       	adc	r27, r1
    3d5a:	89 83       	std	Y+1, r24	; 0x01
    3d5c:	9a 83       	std	Y+2, r25	; 0x02
    3d5e:	ab 83       	std	Y+3, r26	; 0x03
    3d60:	bc 83       	std	Y+4, r27	; 0x04
    3d62:	8d 81       	ldd	r24, Y+5	; 0x05
    3d64:	80 93 97 01 	sts	0x0197, r24	; 0x800197 <timer0_fract>
    3d68:	89 81       	ldd	r24, Y+1	; 0x01
    3d6a:	9a 81       	ldd	r25, Y+2	; 0x02
    3d6c:	ab 81       	ldd	r26, Y+3	; 0x03
    3d6e:	bc 81       	ldd	r27, Y+4	; 0x04
    3d70:	80 93 93 01 	sts	0x0193, r24	; 0x800193 <timer0_millis>
    3d74:	90 93 94 01 	sts	0x0194, r25	; 0x800194 <timer0_millis+0x1>
    3d78:	a0 93 95 01 	sts	0x0195, r26	; 0x800195 <timer0_millis+0x2>
    3d7c:	b0 93 96 01 	sts	0x0196, r27	; 0x800196 <timer0_millis+0x3>
    3d80:	80 91 8f 01 	lds	r24, 0x018F	; 0x80018f <timer0_overflow_count>
    3d84:	90 91 90 01 	lds	r25, 0x0190	; 0x800190 <timer0_overflow_count+0x1>
    3d88:	a0 91 91 01 	lds	r26, 0x0191	; 0x800191 <timer0_overflow_count+0x2>
    3d8c:	b0 91 92 01 	lds	r27, 0x0192	; 0x800192 <timer0_overflow_count+0x3>
    3d90:	01 96       	adiw	r24, 0x01	; 1
    3d92:	a1 1d       	adc	r26, r1
    3d94:	b1 1d       	adc	r27, r1
    3d96:	80 93 8f 01 	sts	0x018F, r24	; 0x80018f <timer0_overflow_count>
    3d9a:	90 93 90 01 	sts	0x0190, r25	; 0x800190 <timer0_overflow_count+0x1>
    3d9e:	a0 93 91 01 	sts	0x0191, r26	; 0x800191 <timer0_overflow_count+0x2>
    3da2:	b0 93 92 01 	sts	0x0192, r27	; 0x800192 <timer0_overflow_count+0x3>
    3da6:	00 00       	nop
    3da8:	0f 90       	pop	r0
    3daa:	0f 90       	pop	r0
    3dac:	0f 90       	pop	r0
    3dae:	0f 90       	pop	r0
    3db0:	0f 90       	pop	r0
    3db2:	df 91       	pop	r29
    3db4:	cf 91       	pop	r28
    3db6:	08 95       	ret

00003db8 <getMicros>:

unsigned long getMicros() {
    3db8:	cf 93       	push	r28
    3dba:	df 93       	push	r29
    3dbc:	00 d0       	rcall	.+0      	; 0x3dbe <getMicros+0x6>
    3dbe:	00 d0       	rcall	.+0      	; 0x3dc0 <getMicros+0x8>
    3dc0:	00 d0       	rcall	.+0      	; 0x3dc2 <getMicros+0xa>
    3dc2:	cd b7       	in	r28, 0x3d	; 61
    3dc4:	de b7       	in	r29, 0x3e	; 62
	unsigned long m;
	uint8_t oldSREG = SREG, t;
    3dc6:	8f e5       	ldi	r24, 0x5F	; 95
    3dc8:	90 e0       	ldi	r25, 0x00	; 0
    3dca:	fc 01       	movw	r30, r24
    3dcc:	80 81       	ld	r24, Z
    3dce:	8d 83       	std	Y+5, r24	; 0x05
	
	cli();
    3dd0:	f8 94       	cli
	m = timer0_overflow_count;
    3dd2:	80 91 8f 01 	lds	r24, 0x018F	; 0x80018f <timer0_overflow_count>
    3dd6:	90 91 90 01 	lds	r25, 0x0190	; 0x800190 <timer0_overflow_count+0x1>
    3dda:	a0 91 91 01 	lds	r26, 0x0191	; 0x800191 <timer0_overflow_count+0x2>
    3dde:	b0 91 92 01 	lds	r27, 0x0192	; 0x800192 <timer0_overflow_count+0x3>
    3de2:	89 83       	std	Y+1, r24	; 0x01
    3de4:	9a 83       	std	Y+2, r25	; 0x02
    3de6:	ab 83       	std	Y+3, r26	; 0x03
    3de8:	bc 83       	std	Y+4, r27	; 0x04
	#if defined(TCNT0)
	t = TCNT0;
    3dea:	82 e5       	ldi	r24, 0x52	; 82
    3dec:	90 e0       	ldi	r25, 0x00	; 0
    3dee:	fc 01       	movw	r30, r24
    3df0:	80 81       	ld	r24, Z
    3df2:	8e 83       	std	Y+6, r24	; 0x06

	#ifdef TIFR0
	if ((TIFR0 & _BV(TOV0)) && (t < 255))
	m++;
	#else
	if ((TIFR & _BV(TOV0)) && (t < 255))
    3df4:	88 e5       	ldi	r24, 0x58	; 88
    3df6:	90 e0       	ldi	r25, 0x00	; 0
    3df8:	fc 01       	movw	r30, r24
    3dfa:	80 81       	ld	r24, Z
    3dfc:	88 2f       	mov	r24, r24
    3dfe:	90 e0       	ldi	r25, 0x00	; 0
    3e00:	81 70       	andi	r24, 0x01	; 1
    3e02:	99 27       	eor	r25, r25
    3e04:	89 2b       	or	r24, r25
    3e06:	71 f0       	breq	.+28     	; 0x3e24 <getMicros+0x6c>
    3e08:	8e 81       	ldd	r24, Y+6	; 0x06
    3e0a:	8f 3f       	cpi	r24, 0xFF	; 255
    3e0c:	59 f0       	breq	.+22     	; 0x3e24 <getMicros+0x6c>
	m++;
    3e0e:	89 81       	ldd	r24, Y+1	; 0x01
    3e10:	9a 81       	ldd	r25, Y+2	; 0x02
    3e12:	ab 81       	ldd	r26, Y+3	; 0x03
    3e14:	bc 81       	ldd	r27, Y+4	; 0x04
    3e16:	01 96       	adiw	r24, 0x01	; 1
    3e18:	a1 1d       	adc	r26, r1
    3e1a:	b1 1d       	adc	r27, r1
    3e1c:	89 83       	std	Y+1, r24	; 0x01
    3e1e:	9a 83       	std	Y+2, r25	; 0x02
    3e20:	ab 83       	std	Y+3, r26	; 0x03
    3e22:	bc 83       	std	Y+4, r27	; 0x04
	#endif

	SREG = oldSREG;
    3e24:	8f e5       	ldi	r24, 0x5F	; 95
    3e26:	90 e0       	ldi	r25, 0x00	; 0
    3e28:	2d 81       	ldd	r18, Y+5	; 0x05
    3e2a:	fc 01       	movw	r30, r24
    3e2c:	20 83       	st	Z, r18
	
	return ((m << 8) + t) * (64 / clockCyclesPerMicrosecond());
    3e2e:	89 81       	ldd	r24, Y+1	; 0x01
    3e30:	9a 81       	ldd	r25, Y+2	; 0x02
    3e32:	ab 81       	ldd	r26, Y+3	; 0x03
    3e34:	bc 81       	ldd	r27, Y+4	; 0x04
    3e36:	22 27       	eor	r18, r18
    3e38:	38 2f       	mov	r19, r24
    3e3a:	49 2f       	mov	r20, r25
    3e3c:	5a 2f       	mov	r21, r26
    3e3e:	8e 81       	ldd	r24, Y+6	; 0x06
    3e40:	88 2f       	mov	r24, r24
    3e42:	90 e0       	ldi	r25, 0x00	; 0
    3e44:	a0 e0       	ldi	r26, 0x00	; 0
    3e46:	b0 e0       	ldi	r27, 0x00	; 0
    3e48:	82 0f       	add	r24, r18
    3e4a:	93 1f       	adc	r25, r19
    3e4c:	a4 1f       	adc	r26, r20
    3e4e:	b5 1f       	adc	r27, r21
    3e50:	88 0f       	add	r24, r24
    3e52:	99 1f       	adc	r25, r25
    3e54:	aa 1f       	adc	r26, r26
    3e56:	bb 1f       	adc	r27, r27
    3e58:	88 0f       	add	r24, r24
    3e5a:	99 1f       	adc	r25, r25
    3e5c:	aa 1f       	adc	r26, r26
    3e5e:	bb 1f       	adc	r27, r27
    3e60:	bc 01       	movw	r22, r24
    3e62:	cd 01       	movw	r24, r26
    3e64:	26 96       	adiw	r28, 0x06	; 6
    3e66:	0f b6       	in	r0, 0x3f	; 63
    3e68:	f8 94       	cli
    3e6a:	de bf       	out	0x3e, r29	; 62
    3e6c:	0f be       	out	0x3f, r0	; 63
    3e6e:	cd bf       	out	0x3d, r28	; 61
    3e70:	df 91       	pop	r29
    3e72:	cf 91       	pop	r28
    3e74:	08 95       	ret

00003e76 <lcdInitHW>:

void lcdClear(void)
{
	// clear LCD
	lcdControlWrite(1<<LCD_CLR);
}
    3e76:	cf 93       	push	r28
    3e78:	df 93       	push	r29
    3e7a:	cd b7       	in	r28, 0x3d	; 61
    3e7c:	de b7       	in	r29, 0x3e	; 62
    3e7e:	82 e3       	ldi	r24, 0x32	; 50
    3e80:	90 e0       	ldi	r25, 0x00	; 0
    3e82:	22 e3       	ldi	r18, 0x32	; 50
    3e84:	30 e0       	ldi	r19, 0x00	; 0
    3e86:	f9 01       	movw	r30, r18
    3e88:	20 81       	ld	r18, Z
    3e8a:	2b 7f       	andi	r18, 0xFB	; 251
    3e8c:	fc 01       	movw	r30, r24
    3e8e:	20 83       	st	Z, r18
    3e90:	82 e3       	ldi	r24, 0x32	; 50
    3e92:	90 e0       	ldi	r25, 0x00	; 0
    3e94:	22 e3       	ldi	r18, 0x32	; 50
    3e96:	30 e0       	ldi	r19, 0x00	; 0
    3e98:	f9 01       	movw	r30, r18
    3e9a:	20 81       	ld	r18, Z
    3e9c:	27 7f       	andi	r18, 0xF7	; 247
    3e9e:	fc 01       	movw	r30, r24
    3ea0:	20 83       	st	Z, r18
    3ea2:	82 e3       	ldi	r24, 0x32	; 50
    3ea4:	90 e0       	ldi	r25, 0x00	; 0
    3ea6:	22 e3       	ldi	r18, 0x32	; 50
    3ea8:	30 e0       	ldi	r19, 0x00	; 0
    3eaa:	f9 01       	movw	r30, r18
    3eac:	20 81       	ld	r18, Z
    3eae:	2f 7e       	andi	r18, 0xEF	; 239
    3eb0:	fc 01       	movw	r30, r24
    3eb2:	20 83       	st	Z, r18
    3eb4:	81 e3       	ldi	r24, 0x31	; 49
    3eb6:	90 e0       	ldi	r25, 0x00	; 0
    3eb8:	21 e3       	ldi	r18, 0x31	; 49
    3eba:	30 e0       	ldi	r19, 0x00	; 0
    3ebc:	f9 01       	movw	r30, r18
    3ebe:	20 81       	ld	r18, Z
    3ec0:	24 60       	ori	r18, 0x04	; 4
    3ec2:	fc 01       	movw	r30, r24
    3ec4:	20 83       	st	Z, r18
    3ec6:	81 e3       	ldi	r24, 0x31	; 49
    3ec8:	90 e0       	ldi	r25, 0x00	; 0
    3eca:	21 e3       	ldi	r18, 0x31	; 49
    3ecc:	30 e0       	ldi	r19, 0x00	; 0
    3ece:	f9 01       	movw	r30, r18
    3ed0:	20 81       	ld	r18, Z
    3ed2:	28 60       	ori	r18, 0x08	; 8
    3ed4:	fc 01       	movw	r30, r24
    3ed6:	20 83       	st	Z, r18
    3ed8:	81 e3       	ldi	r24, 0x31	; 49
    3eda:	90 e0       	ldi	r25, 0x00	; 0
    3edc:	21 e3       	ldi	r18, 0x31	; 49
    3ede:	30 e0       	ldi	r19, 0x00	; 0
    3ee0:	f9 01       	movw	r30, r18
    3ee2:	20 81       	ld	r18, Z
    3ee4:	20 61       	ori	r18, 0x10	; 16
    3ee6:	fc 01       	movw	r30, r24
    3ee8:	20 83       	st	Z, r18
    3eea:	8a e3       	ldi	r24, 0x3A	; 58
    3eec:	90 e0       	ldi	r25, 0x00	; 0
    3eee:	2a e3       	ldi	r18, 0x3A	; 58
    3ef0:	30 e0       	ldi	r19, 0x00	; 0
    3ef2:	f9 01       	movw	r30, r18
    3ef4:	20 81       	ld	r18, Z
    3ef6:	2f 70       	andi	r18, 0x0F	; 15
    3ef8:	fc 01       	movw	r30, r24
    3efa:	20 83       	st	Z, r18
    3efc:	8b e3       	ldi	r24, 0x3B	; 59
    3efe:	90 e0       	ldi	r25, 0x00	; 0
    3f00:	2b e3       	ldi	r18, 0x3B	; 59
    3f02:	30 e0       	ldi	r19, 0x00	; 0
    3f04:	f9 01       	movw	r30, r18
    3f06:	20 81       	ld	r18, Z
    3f08:	20 6f       	ori	r18, 0xF0	; 240
    3f0a:	fc 01       	movw	r30, r24
    3f0c:	20 83       	st	Z, r18
    3f0e:	00 00       	nop
    3f10:	df 91       	pop	r29
    3f12:	cf 91       	pop	r28
    3f14:	08 95       	ret

00003f16 <lcdBusyWait>:
    3f16:	cf 93       	push	r28
    3f18:	df 93       	push	r29
    3f1a:	cd b7       	in	r28, 0x3d	; 61
    3f1c:	de b7       	in	r29, 0x3e	; 62
    3f1e:	82 e3       	ldi	r24, 0x32	; 50
    3f20:	90 e0       	ldi	r25, 0x00	; 0
    3f22:	22 e3       	ldi	r18, 0x32	; 50
    3f24:	30 e0       	ldi	r19, 0x00	; 0
    3f26:	f9 01       	movw	r30, r18
    3f28:	20 81       	ld	r18, Z
    3f2a:	2b 7f       	andi	r18, 0xFB	; 251
    3f2c:	fc 01       	movw	r30, r24
    3f2e:	20 83       	st	Z, r18
    3f30:	8a e3       	ldi	r24, 0x3A	; 58
    3f32:	90 e0       	ldi	r25, 0x00	; 0
    3f34:	2a e3       	ldi	r18, 0x3A	; 58
    3f36:	30 e0       	ldi	r19, 0x00	; 0
    3f38:	f9 01       	movw	r30, r18
    3f3a:	20 81       	ld	r18, Z
    3f3c:	2f 70       	andi	r18, 0x0F	; 15
    3f3e:	fc 01       	movw	r30, r24
    3f40:	20 83       	st	Z, r18
    3f42:	8b e3       	ldi	r24, 0x3B	; 59
    3f44:	90 e0       	ldi	r25, 0x00	; 0
    3f46:	2b e3       	ldi	r18, 0x3B	; 59
    3f48:	30 e0       	ldi	r19, 0x00	; 0
    3f4a:	f9 01       	movw	r30, r18
    3f4c:	20 81       	ld	r18, Z
    3f4e:	20 6f       	ori	r18, 0xF0	; 240
    3f50:	fc 01       	movw	r30, r24
    3f52:	20 83       	st	Z, r18
    3f54:	82 e3       	ldi	r24, 0x32	; 50
    3f56:	90 e0       	ldi	r25, 0x00	; 0
    3f58:	22 e3       	ldi	r18, 0x32	; 50
    3f5a:	30 e0       	ldi	r19, 0x00	; 0
    3f5c:	f9 01       	movw	r30, r18
    3f5e:	20 81       	ld	r18, Z
    3f60:	28 60       	ori	r18, 0x08	; 8
    3f62:	fc 01       	movw	r30, r24
    3f64:	20 83       	st	Z, r18
    3f66:	82 e3       	ldi	r24, 0x32	; 50
    3f68:	90 e0       	ldi	r25, 0x00	; 0
    3f6a:	22 e3       	ldi	r18, 0x32	; 50
    3f6c:	30 e0       	ldi	r19, 0x00	; 0
    3f6e:	f9 01       	movw	r30, r18
    3f70:	20 81       	ld	r18, Z
    3f72:	20 61       	ori	r18, 0x10	; 16
    3f74:	fc 01       	movw	r30, r24
    3f76:	20 83       	st	Z, r18
	...
    3f94:	94 c0       	rjmp	.+296    	; 0x40be <lcdBusyWait+0x1a8>
    3f96:	82 e3       	ldi	r24, 0x32	; 50
    3f98:	90 e0       	ldi	r25, 0x00	; 0
    3f9a:	22 e3       	ldi	r18, 0x32	; 50
    3f9c:	30 e0       	ldi	r19, 0x00	; 0
    3f9e:	f9 01       	movw	r30, r18
    3fa0:	20 81       	ld	r18, Z
    3fa2:	2f 7e       	andi	r18, 0xEF	; 239
    3fa4:	fc 01       	movw	r30, r24
    3fa6:	20 83       	st	Z, r18
	...
    3fe0:	82 e3       	ldi	r24, 0x32	; 50
    3fe2:	90 e0       	ldi	r25, 0x00	; 0
    3fe4:	22 e3       	ldi	r18, 0x32	; 50
    3fe6:	30 e0       	ldi	r19, 0x00	; 0
    3fe8:	f9 01       	movw	r30, r18
    3fea:	20 81       	ld	r18, Z
    3fec:	20 61       	ori	r18, 0x10	; 16
    3fee:	fc 01       	movw	r30, r24
    3ff0:	20 83       	st	Z, r18
	...
    402a:	82 e3       	ldi	r24, 0x32	; 50
    402c:	90 e0       	ldi	r25, 0x00	; 0
    402e:	22 e3       	ldi	r18, 0x32	; 50
    4030:	30 e0       	ldi	r19, 0x00	; 0
    4032:	f9 01       	movw	r30, r18
    4034:	20 81       	ld	r18, Z
    4036:	2f 7e       	andi	r18, 0xEF	; 239
    4038:	fc 01       	movw	r30, r24
    403a:	20 83       	st	Z, r18
	...
    4074:	82 e3       	ldi	r24, 0x32	; 50
    4076:	90 e0       	ldi	r25, 0x00	; 0
    4078:	22 e3       	ldi	r18, 0x32	; 50
    407a:	30 e0       	ldi	r19, 0x00	; 0
    407c:	f9 01       	movw	r30, r18
    407e:	20 81       	ld	r18, Z
    4080:	20 61       	ori	r18, 0x10	; 16
    4082:	fc 01       	movw	r30, r24
    4084:	20 83       	st	Z, r18
	...
    40be:	89 e3       	ldi	r24, 0x39	; 57
    40c0:	90 e0       	ldi	r25, 0x00	; 0
    40c2:	fc 01       	movw	r30, r24
    40c4:	80 81       	ld	r24, Z
    40c6:	88 23       	and	r24, r24
    40c8:	0c f4       	brge	.+2      	; 0x40cc <lcdBusyWait+0x1b6>
    40ca:	65 cf       	rjmp	.-310    	; 0x3f96 <lcdBusyWait+0x80>
    40cc:	82 e3       	ldi	r24, 0x32	; 50
    40ce:	90 e0       	ldi	r25, 0x00	; 0
    40d0:	22 e3       	ldi	r18, 0x32	; 50
    40d2:	30 e0       	ldi	r19, 0x00	; 0
    40d4:	f9 01       	movw	r30, r18
    40d6:	20 81       	ld	r18, Z
    40d8:	2f 7e       	andi	r18, 0xEF	; 239
    40da:	fc 01       	movw	r30, r24
    40dc:	20 83       	st	Z, r18
    40de:	00 00       	nop
    40e0:	df 91       	pop	r29
    40e2:	cf 91       	pop	r28
    40e4:	08 95       	ret

000040e6 <lcdControlWrite>:
    40e6:	cf 93       	push	r28
    40e8:	df 93       	push	r29
    40ea:	1f 92       	push	r1
    40ec:	cd b7       	in	r28, 0x3d	; 61
    40ee:	de b7       	in	r29, 0x3e	; 62
    40f0:	89 83       	std	Y+1, r24	; 0x01
    40f2:	0e 94 8b 1f 	call	0x3f16	; 0x3f16 <lcdBusyWait>
    40f6:	82 e3       	ldi	r24, 0x32	; 50
    40f8:	90 e0       	ldi	r25, 0x00	; 0
    40fa:	22 e3       	ldi	r18, 0x32	; 50
    40fc:	30 e0       	ldi	r19, 0x00	; 0
    40fe:	f9 01       	movw	r30, r18
    4100:	20 81       	ld	r18, Z
    4102:	2b 7f       	andi	r18, 0xFB	; 251
    4104:	fc 01       	movw	r30, r24
    4106:	20 83       	st	Z, r18
    4108:	82 e3       	ldi	r24, 0x32	; 50
    410a:	90 e0       	ldi	r25, 0x00	; 0
    410c:	22 e3       	ldi	r18, 0x32	; 50
    410e:	30 e0       	ldi	r19, 0x00	; 0
    4110:	f9 01       	movw	r30, r18
    4112:	20 81       	ld	r18, Z
    4114:	27 7f       	andi	r18, 0xF7	; 247
    4116:	fc 01       	movw	r30, r24
    4118:	20 83       	st	Z, r18
    411a:	82 e3       	ldi	r24, 0x32	; 50
    411c:	90 e0       	ldi	r25, 0x00	; 0
    411e:	22 e3       	ldi	r18, 0x32	; 50
    4120:	30 e0       	ldi	r19, 0x00	; 0
    4122:	f9 01       	movw	r30, r18
    4124:	20 81       	ld	r18, Z
    4126:	20 61       	ori	r18, 0x10	; 16
    4128:	fc 01       	movw	r30, r24
    412a:	20 83       	st	Z, r18
    412c:	8a e3       	ldi	r24, 0x3A	; 58
    412e:	90 e0       	ldi	r25, 0x00	; 0
    4130:	2a e3       	ldi	r18, 0x3A	; 58
    4132:	30 e0       	ldi	r19, 0x00	; 0
    4134:	f9 01       	movw	r30, r18
    4136:	20 81       	ld	r18, Z
    4138:	20 6f       	ori	r18, 0xF0	; 240
    413a:	fc 01       	movw	r30, r24
    413c:	20 83       	st	Z, r18
    413e:	8b e3       	ldi	r24, 0x3B	; 59
    4140:	90 e0       	ldi	r25, 0x00	; 0
    4142:	2b e3       	ldi	r18, 0x3B	; 59
    4144:	30 e0       	ldi	r19, 0x00	; 0
    4146:	f9 01       	movw	r30, r18
    4148:	20 81       	ld	r18, Z
    414a:	32 2f       	mov	r19, r18
    414c:	3f 70       	andi	r19, 0x0F	; 15
    414e:	29 81       	ldd	r18, Y+1	; 0x01
    4150:	20 7f       	andi	r18, 0xF0	; 240
    4152:	23 2b       	or	r18, r19
    4154:	fc 01       	movw	r30, r24
    4156:	20 83       	st	Z, r18
	...
    4190:	82 e3       	ldi	r24, 0x32	; 50
    4192:	90 e0       	ldi	r25, 0x00	; 0
    4194:	22 e3       	ldi	r18, 0x32	; 50
    4196:	30 e0       	ldi	r19, 0x00	; 0
    4198:	f9 01       	movw	r30, r18
    419a:	20 81       	ld	r18, Z
    419c:	2f 7e       	andi	r18, 0xEF	; 239
    419e:	fc 01       	movw	r30, r24
    41a0:	20 83       	st	Z, r18
	...
    41da:	82 e3       	ldi	r24, 0x32	; 50
    41dc:	90 e0       	ldi	r25, 0x00	; 0
    41de:	22 e3       	ldi	r18, 0x32	; 50
    41e0:	30 e0       	ldi	r19, 0x00	; 0
    41e2:	f9 01       	movw	r30, r18
    41e4:	20 81       	ld	r18, Z
    41e6:	20 61       	ori	r18, 0x10	; 16
    41e8:	fc 01       	movw	r30, r24
    41ea:	20 83       	st	Z, r18
    41ec:	8b e3       	ldi	r24, 0x3B	; 59
    41ee:	90 e0       	ldi	r25, 0x00	; 0
    41f0:	2b e3       	ldi	r18, 0x3B	; 59
    41f2:	30 e0       	ldi	r19, 0x00	; 0
    41f4:	f9 01       	movw	r30, r18
    41f6:	20 81       	ld	r18, Z
    41f8:	42 2f       	mov	r20, r18
    41fa:	4f 70       	andi	r20, 0x0F	; 15
    41fc:	29 81       	ldd	r18, Y+1	; 0x01
    41fe:	22 2f       	mov	r18, r18
    4200:	30 e0       	ldi	r19, 0x00	; 0
    4202:	22 95       	swap	r18
    4204:	32 95       	swap	r19
    4206:	30 7f       	andi	r19, 0xF0	; 240
    4208:	32 27       	eor	r19, r18
    420a:	20 7f       	andi	r18, 0xF0	; 240
    420c:	32 27       	eor	r19, r18
    420e:	24 2b       	or	r18, r20
    4210:	fc 01       	movw	r30, r24
    4212:	20 83       	st	Z, r18
	...
    424c:	82 e3       	ldi	r24, 0x32	; 50
    424e:	90 e0       	ldi	r25, 0x00	; 0
    4250:	22 e3       	ldi	r18, 0x32	; 50
    4252:	30 e0       	ldi	r19, 0x00	; 0
    4254:	f9 01       	movw	r30, r18
    4256:	20 81       	ld	r18, Z
    4258:	2f 7e       	andi	r18, 0xEF	; 239
    425a:	fc 01       	movw	r30, r24
    425c:	20 83       	st	Z, r18
    425e:	8a e3       	ldi	r24, 0x3A	; 58
    4260:	90 e0       	ldi	r25, 0x00	; 0
    4262:	2a e3       	ldi	r18, 0x3A	; 58
    4264:	30 e0       	ldi	r19, 0x00	; 0
    4266:	f9 01       	movw	r30, r18
    4268:	20 81       	ld	r18, Z
    426a:	2f 70       	andi	r18, 0x0F	; 15
    426c:	fc 01       	movw	r30, r24
    426e:	20 83       	st	Z, r18
    4270:	8b e3       	ldi	r24, 0x3B	; 59
    4272:	90 e0       	ldi	r25, 0x00	; 0
    4274:	2b e3       	ldi	r18, 0x3B	; 59
    4276:	30 e0       	ldi	r19, 0x00	; 0
    4278:	f9 01       	movw	r30, r18
    427a:	20 81       	ld	r18, Z
    427c:	20 6f       	ori	r18, 0xF0	; 240
    427e:	fc 01       	movw	r30, r24
    4280:	20 83       	st	Z, r18
    4282:	00 00       	nop
    4284:	0f 90       	pop	r0
    4286:	df 91       	pop	r29
    4288:	cf 91       	pop	r28
    428a:	08 95       	ret

0000428c <lcdControlRead>:
    428c:	1f 93       	push	r17
    428e:	cf 93       	push	r28
    4290:	df 93       	push	r29
    4292:	cd b7       	in	r28, 0x3d	; 61
    4294:	de b7       	in	r29, 0x3e	; 62
    4296:	0e 94 8b 1f 	call	0x3f16	; 0x3f16 <lcdBusyWait>
    429a:	8a e3       	ldi	r24, 0x3A	; 58
    429c:	90 e0       	ldi	r25, 0x00	; 0
    429e:	2a e3       	ldi	r18, 0x3A	; 58
    42a0:	30 e0       	ldi	r19, 0x00	; 0
    42a2:	f9 01       	movw	r30, r18
    42a4:	20 81       	ld	r18, Z
    42a6:	2f 70       	andi	r18, 0x0F	; 15
    42a8:	fc 01       	movw	r30, r24
    42aa:	20 83       	st	Z, r18
    42ac:	8b e3       	ldi	r24, 0x3B	; 59
    42ae:	90 e0       	ldi	r25, 0x00	; 0
    42b0:	2b e3       	ldi	r18, 0x3B	; 59
    42b2:	30 e0       	ldi	r19, 0x00	; 0
    42b4:	f9 01       	movw	r30, r18
    42b6:	20 81       	ld	r18, Z
    42b8:	20 6f       	ori	r18, 0xF0	; 240
    42ba:	fc 01       	movw	r30, r24
    42bc:	20 83       	st	Z, r18
    42be:	82 e3       	ldi	r24, 0x32	; 50
    42c0:	90 e0       	ldi	r25, 0x00	; 0
    42c2:	22 e3       	ldi	r18, 0x32	; 50
    42c4:	30 e0       	ldi	r19, 0x00	; 0
    42c6:	f9 01       	movw	r30, r18
    42c8:	20 81       	ld	r18, Z
    42ca:	2b 7f       	andi	r18, 0xFB	; 251
    42cc:	fc 01       	movw	r30, r24
    42ce:	20 83       	st	Z, r18
    42d0:	82 e3       	ldi	r24, 0x32	; 50
    42d2:	90 e0       	ldi	r25, 0x00	; 0
    42d4:	22 e3       	ldi	r18, 0x32	; 50
    42d6:	30 e0       	ldi	r19, 0x00	; 0
    42d8:	f9 01       	movw	r30, r18
    42da:	20 81       	ld	r18, Z
    42dc:	28 60       	ori	r18, 0x08	; 8
    42de:	fc 01       	movw	r30, r24
    42e0:	20 83       	st	Z, r18
    42e2:	82 e3       	ldi	r24, 0x32	; 50
    42e4:	90 e0       	ldi	r25, 0x00	; 0
    42e6:	22 e3       	ldi	r18, 0x32	; 50
    42e8:	30 e0       	ldi	r19, 0x00	; 0
    42ea:	f9 01       	movw	r30, r18
    42ec:	20 81       	ld	r18, Z
    42ee:	20 61       	ori	r18, 0x10	; 16
    42f0:	fc 01       	movw	r30, r24
    42f2:	20 83       	st	Z, r18
	...
    432c:	89 e3       	ldi	r24, 0x39	; 57
    432e:	90 e0       	ldi	r25, 0x00	; 0
    4330:	fc 01       	movw	r30, r24
    4332:	80 81       	ld	r24, Z
    4334:	18 2f       	mov	r17, r24
    4336:	10 7f       	andi	r17, 0xF0	; 240
    4338:	82 e3       	ldi	r24, 0x32	; 50
    433a:	90 e0       	ldi	r25, 0x00	; 0
    433c:	22 e3       	ldi	r18, 0x32	; 50
    433e:	30 e0       	ldi	r19, 0x00	; 0
    4340:	f9 01       	movw	r30, r18
    4342:	20 81       	ld	r18, Z
    4344:	2f 7e       	andi	r18, 0xEF	; 239
    4346:	fc 01       	movw	r30, r24
    4348:	20 83       	st	Z, r18
	...
    4382:	82 e3       	ldi	r24, 0x32	; 50
    4384:	90 e0       	ldi	r25, 0x00	; 0
    4386:	22 e3       	ldi	r18, 0x32	; 50
    4388:	30 e0       	ldi	r19, 0x00	; 0
    438a:	f9 01       	movw	r30, r18
    438c:	20 81       	ld	r18, Z
    438e:	20 61       	ori	r18, 0x10	; 16
    4390:	fc 01       	movw	r30, r24
    4392:	20 83       	st	Z, r18
	...
    43cc:	89 e3       	ldi	r24, 0x39	; 57
    43ce:	90 e0       	ldi	r25, 0x00	; 0
    43d0:	fc 01       	movw	r30, r24
    43d2:	80 81       	ld	r24, Z
    43d4:	82 95       	swap	r24
    43d6:	8f 70       	andi	r24, 0x0F	; 15
    43d8:	88 2f       	mov	r24, r24
    43da:	90 e0       	ldi	r25, 0x00	; 0
    43dc:	98 2f       	mov	r25, r24
    43de:	81 2f       	mov	r24, r17
    43e0:	89 2b       	or	r24, r25
    43e2:	18 2f       	mov	r17, r24
    43e4:	82 e3       	ldi	r24, 0x32	; 50
    43e6:	90 e0       	ldi	r25, 0x00	; 0
    43e8:	22 e3       	ldi	r18, 0x32	; 50
    43ea:	30 e0       	ldi	r19, 0x00	; 0
    43ec:	f9 01       	movw	r30, r18
    43ee:	20 81       	ld	r18, Z
    43f0:	2f 7e       	andi	r18, 0xEF	; 239
    43f2:	fc 01       	movw	r30, r24
    43f4:	20 83       	st	Z, r18
    43f6:	81 2f       	mov	r24, r17
    43f8:	df 91       	pop	r29
    43fa:	cf 91       	pop	r28
    43fc:	1f 91       	pop	r17
    43fe:	08 95       	ret

00004400 <lcdDataWrite>:
    4400:	cf 93       	push	r28
    4402:	df 93       	push	r29
    4404:	1f 92       	push	r1
    4406:	cd b7       	in	r28, 0x3d	; 61
    4408:	de b7       	in	r29, 0x3e	; 62
    440a:	89 83       	std	Y+1, r24	; 0x01
    440c:	0e 94 8b 1f 	call	0x3f16	; 0x3f16 <lcdBusyWait>
    4410:	82 e3       	ldi	r24, 0x32	; 50
    4412:	90 e0       	ldi	r25, 0x00	; 0
    4414:	22 e3       	ldi	r18, 0x32	; 50
    4416:	30 e0       	ldi	r19, 0x00	; 0
    4418:	f9 01       	movw	r30, r18
    441a:	20 81       	ld	r18, Z
    441c:	24 60       	ori	r18, 0x04	; 4
    441e:	fc 01       	movw	r30, r24
    4420:	20 83       	st	Z, r18
    4422:	82 e3       	ldi	r24, 0x32	; 50
    4424:	90 e0       	ldi	r25, 0x00	; 0
    4426:	22 e3       	ldi	r18, 0x32	; 50
    4428:	30 e0       	ldi	r19, 0x00	; 0
    442a:	f9 01       	movw	r30, r18
    442c:	20 81       	ld	r18, Z
    442e:	27 7f       	andi	r18, 0xF7	; 247
    4430:	fc 01       	movw	r30, r24
    4432:	20 83       	st	Z, r18
    4434:	82 e3       	ldi	r24, 0x32	; 50
    4436:	90 e0       	ldi	r25, 0x00	; 0
    4438:	22 e3       	ldi	r18, 0x32	; 50
    443a:	30 e0       	ldi	r19, 0x00	; 0
    443c:	f9 01       	movw	r30, r18
    443e:	20 81       	ld	r18, Z
    4440:	20 61       	ori	r18, 0x10	; 16
    4442:	fc 01       	movw	r30, r24
    4444:	20 83       	st	Z, r18
    4446:	8a e3       	ldi	r24, 0x3A	; 58
    4448:	90 e0       	ldi	r25, 0x00	; 0
    444a:	2a e3       	ldi	r18, 0x3A	; 58
    444c:	30 e0       	ldi	r19, 0x00	; 0
    444e:	f9 01       	movw	r30, r18
    4450:	20 81       	ld	r18, Z
    4452:	20 6f       	ori	r18, 0xF0	; 240
    4454:	fc 01       	movw	r30, r24
    4456:	20 83       	st	Z, r18
    4458:	8b e3       	ldi	r24, 0x3B	; 59
    445a:	90 e0       	ldi	r25, 0x00	; 0
    445c:	2b e3       	ldi	r18, 0x3B	; 59
    445e:	30 e0       	ldi	r19, 0x00	; 0
    4460:	f9 01       	movw	r30, r18
    4462:	20 81       	ld	r18, Z
    4464:	32 2f       	mov	r19, r18
    4466:	3f 70       	andi	r19, 0x0F	; 15
    4468:	29 81       	ldd	r18, Y+1	; 0x01
    446a:	20 7f       	andi	r18, 0xF0	; 240
    446c:	23 2b       	or	r18, r19
    446e:	fc 01       	movw	r30, r24
    4470:	20 83       	st	Z, r18
	...
    44aa:	82 e3       	ldi	r24, 0x32	; 50
    44ac:	90 e0       	ldi	r25, 0x00	; 0
    44ae:	22 e3       	ldi	r18, 0x32	; 50
    44b0:	30 e0       	ldi	r19, 0x00	; 0
    44b2:	f9 01       	movw	r30, r18
    44b4:	20 81       	ld	r18, Z
    44b6:	2f 7e       	andi	r18, 0xEF	; 239
    44b8:	fc 01       	movw	r30, r24
    44ba:	20 83       	st	Z, r18
	...
    44f4:	82 e3       	ldi	r24, 0x32	; 50
    44f6:	90 e0       	ldi	r25, 0x00	; 0
    44f8:	22 e3       	ldi	r18, 0x32	; 50
    44fa:	30 e0       	ldi	r19, 0x00	; 0
    44fc:	f9 01       	movw	r30, r18
    44fe:	20 81       	ld	r18, Z
    4500:	20 61       	ori	r18, 0x10	; 16
    4502:	fc 01       	movw	r30, r24
    4504:	20 83       	st	Z, r18
    4506:	8b e3       	ldi	r24, 0x3B	; 59
    4508:	90 e0       	ldi	r25, 0x00	; 0
    450a:	2b e3       	ldi	r18, 0x3B	; 59
    450c:	30 e0       	ldi	r19, 0x00	; 0
    450e:	f9 01       	movw	r30, r18
    4510:	20 81       	ld	r18, Z
    4512:	42 2f       	mov	r20, r18
    4514:	4f 70       	andi	r20, 0x0F	; 15
    4516:	29 81       	ldd	r18, Y+1	; 0x01
    4518:	22 2f       	mov	r18, r18
    451a:	30 e0       	ldi	r19, 0x00	; 0
    451c:	22 95       	swap	r18
    451e:	32 95       	swap	r19
    4520:	30 7f       	andi	r19, 0xF0	; 240
    4522:	32 27       	eor	r19, r18
    4524:	20 7f       	andi	r18, 0xF0	; 240
    4526:	32 27       	eor	r19, r18
    4528:	24 2b       	or	r18, r20
    452a:	fc 01       	movw	r30, r24
    452c:	20 83       	st	Z, r18
	...
    4566:	82 e3       	ldi	r24, 0x32	; 50
    4568:	90 e0       	ldi	r25, 0x00	; 0
    456a:	22 e3       	ldi	r18, 0x32	; 50
    456c:	30 e0       	ldi	r19, 0x00	; 0
    456e:	f9 01       	movw	r30, r18
    4570:	20 81       	ld	r18, Z
    4572:	2f 7e       	andi	r18, 0xEF	; 239
    4574:	fc 01       	movw	r30, r24
    4576:	20 83       	st	Z, r18
    4578:	8a e3       	ldi	r24, 0x3A	; 58
    457a:	90 e0       	ldi	r25, 0x00	; 0
    457c:	2a e3       	ldi	r18, 0x3A	; 58
    457e:	30 e0       	ldi	r19, 0x00	; 0
    4580:	f9 01       	movw	r30, r18
    4582:	20 81       	ld	r18, Z
    4584:	2f 70       	andi	r18, 0x0F	; 15
    4586:	fc 01       	movw	r30, r24
    4588:	20 83       	st	Z, r18
    458a:	8b e3       	ldi	r24, 0x3B	; 59
    458c:	90 e0       	ldi	r25, 0x00	; 0
    458e:	2b e3       	ldi	r18, 0x3B	; 59
    4590:	30 e0       	ldi	r19, 0x00	; 0
    4592:	f9 01       	movw	r30, r18
    4594:	20 81       	ld	r18, Z
    4596:	20 6f       	ori	r18, 0xF0	; 240
    4598:	fc 01       	movw	r30, r24
    459a:	20 83       	st	Z, r18
    459c:	00 00       	nop
    459e:	0f 90       	pop	r0
    45a0:	df 91       	pop	r29
    45a2:	cf 91       	pop	r28
    45a4:	08 95       	ret

000045a6 <lcdInit>:
    45a6:	cf 93       	push	r28
    45a8:	df 93       	push	r29
    45aa:	cd b7       	in	r28, 0x3d	; 61
    45ac:	de b7       	in	r29, 0x3e	; 62
    45ae:	0e 94 3b 1f 	call	0x3e76	; 0x3e76 <lcdInitHW>
    45b2:	88 e2       	ldi	r24, 0x28	; 40
    45b4:	0e 94 73 20 	call	0x40e6	; 0x40e6 <lcdControlWrite>
    45b8:	81 e0       	ldi	r24, 0x01	; 1
    45ba:	0e 94 73 20 	call	0x40e6	; 0x40e6 <lcdControlWrite>
    45be:	80 e6       	ldi	r24, 0x60	; 96
    45c0:	9a ee       	ldi	r25, 0xEA	; 234
    45c2:	0e 94 3b 3a 	call	0x7476	; 0x7476 <delay_us>
    45c6:	86 e0       	ldi	r24, 0x06	; 6
    45c8:	0e 94 73 20 	call	0x40e6	; 0x40e6 <lcdControlWrite>
    45cc:	8c e0       	ldi	r24, 0x0C	; 12
    45ce:	0e 94 73 20 	call	0x40e6	; 0x40e6 <lcdControlWrite>
    45d2:	82 e0       	ldi	r24, 0x02	; 2
    45d4:	0e 94 73 20 	call	0x40e6	; 0x40e6 <lcdControlWrite>
    45d8:	80 e8       	ldi	r24, 0x80	; 128
    45da:	0e 94 73 20 	call	0x40e6	; 0x40e6 <lcdControlWrite>
    45de:	40 e0       	ldi	r20, 0x00	; 0
    45e0:	60 e0       	ldi	r22, 0x00	; 0
    45e2:	82 e7       	ldi	r24, 0x72	; 114
    45e4:	91 e0       	ldi	r25, 0x01	; 1
    45e6:	0e 94 57 23 	call	0x46ae	; 0x46ae <lcdLoadCustomChar>
    45ea:	41 e0       	ldi	r20, 0x01	; 1
    45ec:	61 e0       	ldi	r22, 0x01	; 1
    45ee:	82 e7       	ldi	r24, 0x72	; 114
    45f0:	91 e0       	ldi	r25, 0x01	; 1
    45f2:	0e 94 57 23 	call	0x46ae	; 0x46ae <lcdLoadCustomChar>
    45f6:	42 e0       	ldi	r20, 0x02	; 2
    45f8:	62 e0       	ldi	r22, 0x02	; 2
    45fa:	82 e7       	ldi	r24, 0x72	; 114
    45fc:	91 e0       	ldi	r25, 0x01	; 1
    45fe:	0e 94 57 23 	call	0x46ae	; 0x46ae <lcdLoadCustomChar>
    4602:	43 e0       	ldi	r20, 0x03	; 3
    4604:	63 e0       	ldi	r22, 0x03	; 3
    4606:	82 e7       	ldi	r24, 0x72	; 114
    4608:	91 e0       	ldi	r25, 0x01	; 1
    460a:	0e 94 57 23 	call	0x46ae	; 0x46ae <lcdLoadCustomChar>
    460e:	44 e0       	ldi	r20, 0x04	; 4
    4610:	64 e0       	ldi	r22, 0x04	; 4
    4612:	82 e7       	ldi	r24, 0x72	; 114
    4614:	91 e0       	ldi	r25, 0x01	; 1
    4616:	0e 94 57 23 	call	0x46ae	; 0x46ae <lcdLoadCustomChar>
    461a:	45 e0       	ldi	r20, 0x05	; 5
    461c:	65 e0       	ldi	r22, 0x05	; 5
    461e:	82 e7       	ldi	r24, 0x72	; 114
    4620:	91 e0       	ldi	r25, 0x01	; 1
    4622:	0e 94 57 23 	call	0x46ae	; 0x46ae <lcdLoadCustomChar>
    4626:	46 e0       	ldi	r20, 0x06	; 6
    4628:	66 e0       	ldi	r22, 0x06	; 6
    462a:	82 e7       	ldi	r24, 0x72	; 114
    462c:	91 e0       	ldi	r25, 0x01	; 1
    462e:	0e 94 57 23 	call	0x46ae	; 0x46ae <lcdLoadCustomChar>
    4632:	47 e0       	ldi	r20, 0x07	; 7
    4634:	67 e0       	ldi	r22, 0x07	; 7
    4636:	82 e7       	ldi	r24, 0x72	; 114
    4638:	91 e0       	ldi	r25, 0x01	; 1
    463a:	0e 94 57 23 	call	0x46ae	; 0x46ae <lcdLoadCustomChar>
    463e:	00 00       	nop
    4640:	df 91       	pop	r29
    4642:	cf 91       	pop	r28
    4644:	08 95       	ret

00004646 <lcdGotoXY>:

void lcdGotoXY(u08 x, u08 y)
{
    4646:	1f 93       	push	r17
    4648:	cf 93       	push	r28
    464a:	df 93       	push	r29
    464c:	00 d0       	rcall	.+0      	; 0x464e <lcdGotoXY+0x8>
    464e:	cd b7       	in	r28, 0x3d	; 61
    4650:	de b7       	in	r29, 0x3e	; 62
    4652:	89 83       	std	Y+1, r24	; 0x01
    4654:	6a 83       	std	Y+2, r22	; 0x02
	register u08 DDRAMAddr;

	// remap lines into proper order
	switch(y)
    4656:	8a 81       	ldd	r24, Y+2	; 0x02
    4658:	88 2f       	mov	r24, r24
    465a:	90 e0       	ldi	r25, 0x00	; 0
    465c:	81 30       	cpi	r24, 0x01	; 1
    465e:	91 05       	cpc	r25, r1
    4660:	71 f0       	breq	.+28     	; 0x467e <lcdGotoXY+0x38>
    4662:	82 30       	cpi	r24, 0x02	; 2
    4664:	91 05       	cpc	r25, r1
    4666:	1c f4       	brge	.+6      	; 0x466e <lcdGotoXY+0x28>
    4668:	89 2b       	or	r24, r25
    466a:	39 f0       	breq	.+14     	; 0x467a <lcdGotoXY+0x34>
    466c:	14 c0       	rjmp	.+40     	; 0x4696 <lcdGotoXY+0x50>
    466e:	82 30       	cpi	r24, 0x02	; 2
    4670:	91 05       	cpc	r25, r1
    4672:	49 f0       	breq	.+18     	; 0x4686 <lcdGotoXY+0x40>
    4674:	03 97       	sbiw	r24, 0x03	; 3
    4676:	59 f0       	breq	.+22     	; 0x468e <lcdGotoXY+0x48>
    4678:	0e c0       	rjmp	.+28     	; 0x4696 <lcdGotoXY+0x50>
	{
	case 0: DDRAMAddr = LCD_LINE0_DDRAMADDR+x; break;
    467a:	19 81       	ldd	r17, Y+1	; 0x01
    467c:	0d c0       	rjmp	.+26     	; 0x4698 <lcdGotoXY+0x52>
	case 1: DDRAMAddr = LCD_LINE1_DDRAMADDR+x; break;
    467e:	89 81       	ldd	r24, Y+1	; 0x01
    4680:	10 e4       	ldi	r17, 0x40	; 64
    4682:	18 0f       	add	r17, r24
    4684:	09 c0       	rjmp	.+18     	; 0x4698 <lcdGotoXY+0x52>
	case 2: DDRAMAddr = LCD_LINE2_DDRAMADDR+x; break;
    4686:	89 81       	ldd	r24, Y+1	; 0x01
    4688:	14 e1       	ldi	r17, 0x14	; 20
    468a:	18 0f       	add	r17, r24
    468c:	05 c0       	rjmp	.+10     	; 0x4698 <lcdGotoXY+0x52>
	case 3: DDRAMAddr = LCD_LINE3_DDRAMADDR+x; break;
    468e:	89 81       	ldd	r24, Y+1	; 0x01
    4690:	14 e5       	ldi	r17, 0x54	; 84
    4692:	18 0f       	add	r17, r24
    4694:	01 c0       	rjmp	.+2      	; 0x4698 <lcdGotoXY+0x52>
	default: DDRAMAddr = LCD_LINE0_DDRAMADDR+x;
    4696:	19 81       	ldd	r17, Y+1	; 0x01
	}

	// set data address
	lcdControlWrite(1<<LCD_DDRAM | DDRAMAddr);
    4698:	81 2f       	mov	r24, r17
    469a:	80 68       	ori	r24, 0x80	; 128
    469c:	0e 94 73 20 	call	0x40e6	; 0x40e6 <lcdControlWrite>
}
    46a0:	00 00       	nop
    46a2:	0f 90       	pop	r0
    46a4:	0f 90       	pop	r0
    46a6:	df 91       	pop	r29
    46a8:	cf 91       	pop	r28
    46aa:	1f 91       	pop	r17
    46ac:	08 95       	ret

000046ae <lcdLoadCustomChar>:

void lcdLoadCustomChar(u08* lcdCustomCharArray, u08 romCharNum, u08 lcdCharNum)
{
    46ae:	1f 93       	push	r17
    46b0:	cf 93       	push	r28
    46b2:	df 93       	push	r29
    46b4:	cd b7       	in	r28, 0x3d	; 61
    46b6:	de b7       	in	r29, 0x3e	; 62
    46b8:	28 97       	sbiw	r28, 0x08	; 8
    46ba:	0f b6       	in	r0, 0x3f	; 63
    46bc:	f8 94       	cli
    46be:	de bf       	out	0x3e, r29	; 62
    46c0:	0f be       	out	0x3f, r0	; 63
    46c2:	cd bf       	out	0x3d, r28	; 61
    46c4:	9e 83       	std	Y+6, r25	; 0x06
    46c6:	8d 83       	std	Y+5, r24	; 0x05
    46c8:	6f 83       	std	Y+7, r22	; 0x07
    46ca:	48 87       	std	Y+8, r20	; 0x08
	register u08 i;
	u08 saveDDRAMAddr;

	// backup the current cursor position
	saveDDRAMAddr = lcdControlRead() & 0x7F;
    46cc:	0e 94 46 21 	call	0x428c	; 0x428c <lcdControlRead>
    46d0:	8f 77       	andi	r24, 0x7F	; 127
    46d2:	89 83       	std	Y+1, r24	; 0x01

	// multiply the character index by 8
	lcdCharNum = (lcdCharNum<<3);	// each character occupies 8 bytes
    46d4:	88 85       	ldd	r24, Y+8	; 0x08
    46d6:	88 0f       	add	r24, r24
    46d8:	88 0f       	add	r24, r24
    46da:	88 0f       	add	r24, r24
    46dc:	88 87       	std	Y+8, r24	; 0x08
	romCharNum = (romCharNum<<3);	// each character occupies 8 bytes
    46de:	8f 81       	ldd	r24, Y+7	; 0x07
    46e0:	88 0f       	add	r24, r24
    46e2:	88 0f       	add	r24, r24
    46e4:	88 0f       	add	r24, r24
    46e6:	8f 83       	std	Y+7, r24	; 0x07

	// copy the 8 bytes into CG (character generator) RAM
	for(i=0; i<8; i++)
    46e8:	10 e0       	ldi	r17, 0x00	; 0
    46ea:	1d c0       	rjmp	.+58     	; 0x4726 <lcdLoadCustomChar+0x78>
	{
		// set CG RAM address
		lcdControlWrite((1<<LCD_CGRAM) | (lcdCharNum+i));
    46ec:	88 85       	ldd	r24, Y+8	; 0x08
    46ee:	81 0f       	add	r24, r17
    46f0:	80 64       	ori	r24, 0x40	; 64
    46f2:	0e 94 73 20 	call	0x40e6	; 0x40e6 <lcdControlWrite>
		// write character data
		lcdDataWrite( pgm_read_byte(lcdCustomCharArray+romCharNum+i) );
    46f6:	8f 81       	ldd	r24, Y+7	; 0x07
    46f8:	28 2f       	mov	r18, r24
    46fa:	30 e0       	ldi	r19, 0x00	; 0
    46fc:	81 2f       	mov	r24, r17
    46fe:	90 e0       	ldi	r25, 0x00	; 0
    4700:	82 0f       	add	r24, r18
    4702:	93 1f       	adc	r25, r19
    4704:	2d 81       	ldd	r18, Y+5	; 0x05
    4706:	3e 81       	ldd	r19, Y+6	; 0x06
    4708:	82 0f       	add	r24, r18
    470a:	93 1f       	adc	r25, r19
    470c:	9b 83       	std	Y+3, r25	; 0x03
    470e:	8a 83       	std	Y+2, r24	; 0x02
    4710:	8a 81       	ldd	r24, Y+2	; 0x02
    4712:	9b 81       	ldd	r25, Y+3	; 0x03
    4714:	fc 01       	movw	r30, r24
    4716:	84 91       	lpm	r24, Z
    4718:	8c 83       	std	Y+4, r24	; 0x04
    471a:	8c 81       	ldd	r24, Y+4	; 0x04
    471c:	0e 94 00 22 	call	0x4400	; 0x4400 <lcdDataWrite>
	// multiply the character index by 8
	lcdCharNum = (lcdCharNum<<3);	// each character occupies 8 bytes
	romCharNum = (romCharNum<<3);	// each character occupies 8 bytes

	// copy the 8 bytes into CG (character generator) RAM
	for(i=0; i<8; i++)
    4720:	81 2f       	mov	r24, r17
    4722:	11 e0       	ldi	r17, 0x01	; 1
    4724:	18 0f       	add	r17, r24
    4726:	18 30       	cpi	r17, 0x08	; 8
    4728:	08 f3       	brcs	.-62     	; 0x46ec <lcdLoadCustomChar+0x3e>
		// write character data
		lcdDataWrite( pgm_read_byte(lcdCustomCharArray+romCharNum+i) );
	}

	// restore the previous cursor position
	lcdControlWrite(1<<LCD_DDRAM | saveDDRAMAddr);
    472a:	89 81       	ldd	r24, Y+1	; 0x01
    472c:	80 68       	ori	r24, 0x80	; 128
    472e:	0e 94 73 20 	call	0x40e6	; 0x40e6 <lcdControlWrite>

}
    4732:	00 00       	nop
    4734:	28 96       	adiw	r28, 0x08	; 8
    4736:	0f b6       	in	r0, 0x3f	; 63
    4738:	f8 94       	cli
    473a:	de bf       	out	0x3e, r29	; 62
    473c:	0f be       	out	0x3f, r0	; 63
    473e:	cd bf       	out	0x3d, r28	; 61
    4740:	df 91       	pop	r29
    4742:	cf 91       	pop	r28
    4744:	1f 91       	pop	r17
    4746:	08 95       	ret

00004748 <lcdPrintData>:

void lcdPrintData(char* data, u08 nBytes)
{
    4748:	1f 93       	push	r17
    474a:	cf 93       	push	r28
    474c:	df 93       	push	r29
    474e:	00 d0       	rcall	.+0      	; 0x4750 <lcdPrintData+0x8>
    4750:	1f 92       	push	r1
    4752:	cd b7       	in	r28, 0x3d	; 61
    4754:	de b7       	in	r29, 0x3e	; 62
    4756:	9a 83       	std	Y+2, r25	; 0x02
    4758:	89 83       	std	Y+1, r24	; 0x01
    475a:	6b 83       	std	Y+3, r22	; 0x03
	register u08 i;

	// check to make sure we have a good pointer
	if (!data) return;
    475c:	89 81       	ldd	r24, Y+1	; 0x01
    475e:	9a 81       	ldd	r25, Y+2	; 0x02
    4760:	89 2b       	or	r24, r25
    4762:	99 f0       	breq	.+38     	; 0x478a <lcdPrintData+0x42>

	// print data
	for(i=0; i<nBytes; i++)
    4764:	10 e0       	ldi	r17, 0x00	; 0
    4766:	0d c0       	rjmp	.+26     	; 0x4782 <lcdPrintData+0x3a>
	{
		lcdDataWrite(data[i]);
    4768:	81 2f       	mov	r24, r17
    476a:	90 e0       	ldi	r25, 0x00	; 0
    476c:	29 81       	ldd	r18, Y+1	; 0x01
    476e:	3a 81       	ldd	r19, Y+2	; 0x02
    4770:	82 0f       	add	r24, r18
    4772:	93 1f       	adc	r25, r19
    4774:	fc 01       	movw	r30, r24
    4776:	80 81       	ld	r24, Z
    4778:	0e 94 00 22 	call	0x4400	; 0x4400 <lcdDataWrite>

	// check to make sure we have a good pointer
	if (!data) return;

	// print data
	for(i=0; i<nBytes; i++)
    477c:	81 2f       	mov	r24, r17
    477e:	11 e0       	ldi	r17, 0x01	; 1
    4780:	18 0f       	add	r17, r24
    4782:	8b 81       	ldd	r24, Y+3	; 0x03
    4784:	18 17       	cp	r17, r24
    4786:	80 f3       	brcs	.-32     	; 0x4768 <lcdPrintData+0x20>
    4788:	01 c0       	rjmp	.+2      	; 0x478c <lcdPrintData+0x44>
void lcdPrintData(char* data, u08 nBytes)
{
	register u08 i;

	// check to make sure we have a good pointer
	if (!data) return;
    478a:	00 00       	nop
	// print data
	for(i=0; i<nBytes; i++)
	{
		lcdDataWrite(data[i]);
	}
}
    478c:	0f 90       	pop	r0
    478e:	0f 90       	pop	r0
    4790:	0f 90       	pop	r0
    4792:	df 91       	pop	r29
    4794:	cf 91       	pop	r28
    4796:	1f 91       	pop	r17
    4798:	08 95       	ret

0000479a <main>:
#include "MD_MIDIFile.h"

FATFS Fatfs;

int main(void)
{
    479a:	cf 93       	push	r28
    479c:	df 93       	push	r29
    479e:	cd b7       	in	r28, 0x3d	; 61
    47a0:	de b7       	in	r29, 0x3e	; 62
    47a2:	c7 57       	subi	r28, 0x77	; 119
    47a4:	d2 40       	sbci	r29, 0x02	; 2
    47a6:	0f b6       	in	r0, 0x3f	; 63
    47a8:	f8 94       	cli
    47aa:	de bf       	out	0x3e, r29	; 62
    47ac:	0f be       	out	0x3f, r0	; 63
    47ae:	cd bf       	out	0x3d, r28	; 61
    unsigned char byteValue = 0;
    47b0:	19 82       	std	Y+1, r1	; 0x01
	struct MD_MIDIFile mf;
	char indstr[17];
    unsigned int ind = 0;
    47b2:	1b 82       	std	Y+3, r1	; 0x03
    47b4:	1a 82       	std	Y+2, r1	; 0x02
    unsigned char numOfBytes = 0;
    47b6:	ce 01       	movw	r24, r28
    47b8:	8e 50       	subi	r24, 0x0E	; 14
    47ba:	9e 4f       	sbci	r25, 0xFE	; 254
    47bc:	fc 01       	movw	r30, r24
    47be:	10 82       	st	Z, r1
    unsigned char pot = 0;
    47c0:	ce 01       	movw	r24, r28
    47c2:	8d 50       	subi	r24, 0x0D	; 13
    47c4:	9e 4f       	sbci	r25, 0xFE	; 254
    47c6:	fc 01       	movw	r30, r24
    47c8:	10 82       	st	Z, r1
    unsigned char buttons[4];
    INPUT input = NONE;
    47ca:	8f ef       	ldi	r24, 0xFF	; 255
    47cc:	8c 83       	std	Y+4, r24	; 0x04
    FIL file;
    FILINFO finfo;
    DIR directory;
    FRESULT res;    
	
	DDRA |= (1 << PA1);		// remove
    47ce:	8a e3       	ldi	r24, 0x3A	; 58
    47d0:	90 e0       	ldi	r25, 0x00	; 0
    47d2:	2a e3       	ldi	r18, 0x3A	; 58
    47d4:	30 e0       	ldi	r19, 0x00	; 0
    47d6:	f9 01       	movw	r30, r18
    47d8:	20 81       	ld	r18, Z
    47da:	22 60       	ori	r18, 0x02	; 2
    47dc:	fc 01       	movw	r30, r24
    47de:	20 83       	st	Z, r18
			
	configTimers();	
    47e0:	0e 94 39 1e 	call	0x3c72	; 0x3c72 <configTimers>
	lcdInit();	
    47e4:	0e 94 d3 22 	call	0x45a6	; 0x45a6 <lcdInit>
	uartInit();
    47e8:	0e 94 7f 3c 	call	0x78fe	; 0x78fe <uartInit>
	midiInit();	
    47ec:	0e 94 bb 31 	call	0x6376	; 0x6376 <midiInit>
	spiInit();	
    47f0:	0e 94 c0 39 	call	0x7380	; 0x7380 <spiInit>
	
	// >> ADC
	a2dInit();
    47f4:	0e 94 1c 01 	call	0x238	; 0x238 <a2dInit>
	a2dSetPrescaler(ADC_PRESCALE_DIV32);
    47f8:	85 e0       	ldi	r24, 0x05	; 5
    47fa:	0e 94 51 01 	call	0x2a2	; 0x2a2 <a2dSetPrescaler>
	a2dSetReference(ADC_REFERENCE_AVCC);
    47fe:	81 e0       	ldi	r24, 0x01	; 1
    4800:	0e 94 68 01 	call	0x2d0	; 0x2d0 <a2dSetReference>
	a2dSetChannel(ADC_CH_ADC0);
    4804:	80 e0       	ldi	r24, 0x00	; 0
    4806:	0e 94 8a 01 	call	0x314	; 0x314 <a2dSetChannel>
	a2dStartConvert();		
    480a:	0e 94 a2 01 	call	0x344	; 0x344 <a2dStartConvert>
	// << ADC
	 
	timerAttach(TIMER2OUTCOMPARE_INT,disk_timerproc);
    480e:	61 e9       	ldi	r22, 0x91	; 145
    4810:	79 e3       	ldi	r23, 0x39	; 57
    4812:	86 e0       	ldi	r24, 0x06	; 6
    4814:	0e 94 6f 3a 	call	0x74de	; 0x74de <timerAttach>
	//timerAttach(TIMER1OUTCOMPAREA_INT,addMillis);
	timerAttach(TIMER0OVERFLOW_INT,addMillis);
    4818:	6c e7       	ldi	r22, 0x7C	; 124
    481a:	7e e1       	ldi	r23, 0x1E	; 30
    481c:	80 e0       	ldi	r24, 0x00	; 0
    481e:	0e 94 6f 3a 	call	0x74de	; 0x74de <timerAttach>
	
	uartSetBaudRate(MIDI_BAUD_RATE);
    4822:	62 e1       	ldi	r22, 0x12	; 18
    4824:	7a e7       	ldi	r23, 0x7A	; 122
    4826:	80 e0       	ldi	r24, 0x00	; 0
    4828:	90 e0       	ldi	r25, 0x00	; 0
    482a:	0e 94 d2 3c 	call	0x79a4	; 0x79a4 <uartSetBaudRate>
	uartSetRxHandler(rx_handler);
    482e:	85 e1       	ldi	r24, 0x15	; 21
    4830:	9e e1       	ldi	r25, 0x1E	; 30
    4832:	0e 94 bf 3c 	call	0x797e	; 0x797e <uartSetRxHandler>
	uartFlushReceiveBuffer();
    4836:	0e 94 83 3d 	call	0x7b06	; 0x7b06 <uartFlushReceiveBuffer>
	
	lcdGotoXY(0,0);	
    483a:	60 e0       	ldi	r22, 0x00	; 0
    483c:	80 e0       	ldi	r24, 0x00	; 0
    483e:	0e 94 23 23 	call	0x4646	; 0x4646 <lcdGotoXY>
		
	if(f_mount(0,&Fatfs) != FR_OK)
    4842:	6f e2       	ldi	r22, 0x2F	; 47
    4844:	72 e0       	ldi	r23, 0x02	; 2
    4846:	80 e0       	ldi	r24, 0x00	; 0
    4848:	0e 94 b3 15 	call	0x2b66	; 0x2b66 <f_mount>
    484c:	88 23       	and	r24, r24
    484e:	31 f0       	breq	.+12     	; 0x485c <main+0xc2>
		lcdPrintData("Mount failed",12);
    4850:	6c e0       	ldi	r22, 0x0C	; 12
    4852:	80 e7       	ldi	r24, 0x70	; 112
    4854:	90 e0       	ldi	r25, 0x00	; 0
    4856:	0e 94 a4 23 	call	0x4748	; 0x4748 <lcdPrintData>
    485a:	05 c0       	rjmp	.+10     	; 0x4866 <main+0xcc>
	else
		lcdPrintData("Mount OK",8);
    485c:	68 e0       	ldi	r22, 0x08	; 8
    485e:	8d e7       	ldi	r24, 0x7D	; 125
    4860:	90 e0       	ldi	r25, 0x00	; 0
    4862:	0e 94 a4 23 	call	0x4748	; 0x4748 <lcdPrintData>
	lcdGotoXY(0,1);		
    4866:	61 e0       	ldi	r22, 0x01	; 1
    4868:	80 e0       	ldi	r24, 0x00	; 0
    486a:	0e 94 23 23 	call	0x4646	; 0x4646 <lcdGotoXY>
	
	if((res = f_open(&file,"Plik.mid",FA_READ)) != FR_OK)
    486e:	ce 01       	movw	r24, r28
    4870:	84 5d       	subi	r24, 0xD4	; 212
    4872:	9d 4f       	sbci	r25, 0xFD	; 253
    4874:	41 e0       	ldi	r20, 0x01	; 1
    4876:	66 e8       	ldi	r22, 0x86	; 134
    4878:	70 e0       	ldi	r23, 0x00	; 0
    487a:	0e 94 f3 15 	call	0x2be6	; 0x2be6 <f_open>
    487e:	8d 83       	std	Y+5, r24	; 0x05
    4880:	8d 81       	ldd	r24, Y+5	; 0x05
    4882:	88 23       	and	r24, r24
    4884:	31 f0       	breq	.+12     	; 0x4892 <main+0xf8>
		lcdPrintData("Open failed",11);
    4886:	6b e0       	ldi	r22, 0x0B	; 11
    4888:	8f e8       	ldi	r24, 0x8F	; 143
    488a:	90 e0       	ldi	r25, 0x00	; 0
    488c:	0e 94 a4 23 	call	0x4748	; 0x4748 <lcdPrintData>
    4890:	05 c0       	rjmp	.+10     	; 0x489c <main+0x102>
	else
		lcdPrintData("Open OK",7);		
    4892:	67 e0       	ldi	r22, 0x07	; 7
    4894:	8b e9       	ldi	r24, 0x9B	; 155
    4896:	90 e0       	ldi	r25, 0x00	; 0
    4898:	0e 94 a4 23 	call	0x4748	; 0x4748 <lcdPrintData>
	f_close(&file);
    489c:	ce 01       	movw	r24, r28
    489e:	84 5d       	subi	r24, 0xD4	; 212
    48a0:	9d 4f       	sbci	r25, 0xFD	; 253
    48a2:	0e 94 00 1b 	call	0x3600	; 0x3600 <f_close>
	
	// >> MIDI
	memset(&mf,0,sizeof(struct MD_MIDIFile));
    48a6:	ce 01       	movw	r24, r28
    48a8:	06 96       	adiw	r24, 0x06	; 6
    48aa:	4b ed       	ldi	r20, 0xDB	; 219
    48ac:	51 e0       	ldi	r21, 0x01	; 1
    48ae:	60 e0       	ldi	r22, 0x00	; 0
    48b0:	70 e0       	ldi	r23, 0x00	; 0
    48b2:	0e 94 bf 3e 	call	0x7d7e	; 0x7d7e <memset>
	initialise(&mf);
    48b6:	ce 01       	movw	r24, r28
    48b8:	06 96       	adiw	r24, 0x06	; 6
    48ba:	0e 94 b9 24 	call	0x4972	; 0x4972 <initialise>
	setFilename(&mf,"Plik.mid");
    48be:	ce 01       	movw	r24, r28
    48c0:	06 96       	adiw	r24, 0x06	; 6
    48c2:	66 e8       	ldi	r22, 0x86	; 134
    48c4:	70 e0       	ldi	r23, 0x00	; 0
    48c6:	0e 94 50 2a 	call	0x54a0	; 0x54a0 <setFilename>
	
	if(loadMIDIFile(&mf) != -1){
    48ca:	ce 01       	movw	r24, r28
    48cc:	06 96       	adiw	r24, 0x06	; 6
    48ce:	0e 94 f9 28 	call	0x51f2	; 0x51f2 <loadMIDIFile>
    48d2:	01 96       	adiw	r24, 0x01	; 1
    48d4:	31 f0       	breq	.+12     	; 0x48e2 <main+0x148>
		lcdPrintData("Open failed",11);
    48d6:	6b e0       	ldi	r22, 0x0B	; 11
    48d8:	8f e8       	ldi	r24, 0x8F	; 143
    48da:	90 e0       	ldi	r25, 0x00	; 0
    48dc:	0e 94 a4 23 	call	0x4748	; 0x4748 <lcdPrintData>
		while(1){}
    48e0:	ff cf       	rjmp	.-2      	; 0x48e0 <main+0x146>
	}
	setMidiHandler(&mf,midiFun);
    48e2:	ce 01       	movw	r24, r28
    48e4:	06 96       	adiw	r24, 0x06	; 6
    48e6:	67 ee       	ldi	r22, 0xE7	; 231
    48e8:	72 e3       	ldi	r23, 0x32	; 50
    48ea:	0e 94 2a 25 	call	0x4a54	; 0x4a54 <setMidiHandler>
	setSysexHandler(&mf,sysexFun);
    48ee:	ce 01       	movw	r24, r28
    48f0:	06 96       	adiw	r24, 0x06	; 6
    48f2:	6a ed       	ldi	r22, 0xDA	; 218
    48f4:	72 e3       	ldi	r23, 0x32	; 50
    48f6:	0e 94 5c 25 	call	0x4ab8	; 0x4ab8 <setSysexHandler>
	setMetaHandler(&mf,metaFun);
    48fa:	ce 01       	movw	r24, r28
    48fc:	06 96       	adiw	r24, 0x06	; 6
    48fe:	6d ec       	ldi	r22, 0xCD	; 205
    4900:	72 e3       	ldi	r23, 0x32	; 50
    4902:	0e 94 43 25 	call	0x4a86	; 0x4a86 <setMetaHandler>
	
	mf._paused = FALSE;
    4906:	ce 01       	movw	r24, r28
    4908:	88 5b       	subi	r24, 0xB8	; 184
    490a:	9f 4f       	sbci	r25, 0xFF	; 255
    490c:	fc 01       	movw	r30, r24
    490e:	10 82       	st	Z, r1
	mf._looping = FALSE;
    4910:	ce 01       	movw	r24, r28
    4912:	87 5b       	subi	r24, 0xB7	; 183
    4914:	9f 4f       	sbci	r25, 0xFF	; 255
    4916:	fc 01       	movw	r30, r24
    4918:	10 82       	st	Z, r1
	//mf._tickTime = 2083;
	//synchTracks(&mf);
	
	while(!isEOF(&mf)){
    491a:	1b c0       	rjmp	.+54     	; 0x4952 <main+0x1b8>
		getNextEvent(&mf);
    491c:	ce 01       	movw	r24, r28
    491e:	06 96       	adiw	r24, 0x06	; 6
    4920:	0e 94 5a 28 	call	0x50b4	; 0x50b4 <getNextEvent>
		if(!uartReceiveBufferIsEmpty()){
    4924:	0e 94 8f 3d 	call	0x7b1e	; 0x7b1e <uartReceiveBufferIsEmpty>
    4928:	88 23       	and	r24, r24
    492a:	99 f4       	brne	.+38     	; 0x4952 <main+0x1b8>
				byteValue = (unsigned char)uartGetByte();
    492c:	0e 94 48 3d 	call	0x7a90	; 0x7a90 <uartGetByte>
    4930:	89 83       	std	Y+1, r24	; 0x01
				if(readMidiMessage(byteValue,&numOfBytes) == TRUE)
    4932:	ce 01       	movw	r24, r28
    4934:	8e 50       	subi	r24, 0x0E	; 14
    4936:	9e 4f       	sbci	r25, 0xFE	; 254
    4938:	bc 01       	movw	r22, r24
    493a:	89 81       	ldd	r24, Y+1	; 0x01
    493c:	0e 94 c6 31 	call	0x638c	; 0x638c <readMidiMessage>
    4940:	81 30       	cpi	r24, 0x01	; 1
    4942:	39 f4       	brne	.+14     	; 0x4952 <main+0x1b8>
					sendMidiMessage(numOfBytes);
    4944:	ce 01       	movw	r24, r28
    4946:	8e 50       	subi	r24, 0x0E	; 14
    4948:	9e 4f       	sbci	r25, 0xFE	; 254
    494a:	fc 01       	movw	r30, r24
    494c:	80 81       	ld	r24, Z
    494e:	0e 94 59 32 	call	0x64b2	; 0x64b2 <sendMidiMessage>
	mf._paused = FALSE;
	mf._looping = FALSE;
	//mf._tickTime = 2083;
	//synchTracks(&mf);
	
	while(!isEOF(&mf)){
    4952:	ce 01       	movw	r24, r28
    4954:	06 96       	adiw	r24, 0x06	; 6
    4956:	0e 94 31 27 	call	0x4e62	; 0x4e62 <isEOF>
    495a:	88 23       	and	r24, r24
    495c:	f9 f2       	breq	.-66     	; 0x491c <main+0x182>
					sendMidiMessage(numOfBytes);
			
			}	
	}
	
	closeMIDIFile(&mf);
    495e:	ce 01       	movw	r24, r28
    4960:	06 96       	adiw	r24, 0x06	; 6
    4962:	0e 94 ae 25 	call	0x4b5c	; 0x4b5c <closeMIDIFile>
	lcdPrintData("Finished",8);
    4966:	68 e0       	ldi	r22, 0x08	; 8
    4968:	83 ea       	ldi	r24, 0xA3	; 163
    496a:	90 e0       	ldi	r25, 0x00	; 0
    496c:	0e 94 a4 23 	call	0x4748	; 0x4748 <lcdPrintData>
	while(1){}
    4970:	ff cf       	rjmp	.-2      	; 0x4970 <main+0x1d6>

00004972 <initialise>:


const char * getFilename(struct MD_MIDIFile *m) 
{ 
	return(m->_fileName); 
}
    4972:	cf 93       	push	r28
    4974:	df 93       	push	r29
    4976:	00 d0       	rcall	.+0      	; 0x4978 <initialise+0x6>
    4978:	cd b7       	in	r28, 0x3d	; 61
    497a:	de b7       	in	r29, 0x3e	; 62
    497c:	9a 83       	std	Y+2, r25	; 0x02
    497e:	89 83       	std	Y+1, r24	; 0x01
    4980:	89 81       	ldd	r24, Y+1	; 0x01
    4982:	9a 81       	ldd	r25, Y+2	; 0x02
    4984:	fc 01       	movw	r30, r24
    4986:	14 aa       	std	Z+52, r1	; 0x34
    4988:	89 81       	ldd	r24, Y+1	; 0x01
    498a:	9a 81       	ldd	r25, Y+2	; 0x02
    498c:	fc 01       	movw	r30, r24
    498e:	13 aa       	std	Z+51, r1	; 0x33
    4990:	89 81       	ldd	r24, Y+1	; 0x01
    4992:	9a 81       	ldd	r25, Y+2	; 0x02
    4994:	fc 01       	movw	r30, r24
    4996:	17 aa       	std	Z+55, r1	; 0x37
    4998:	10 ae       	std	Z+56, r1	; 0x38
    499a:	11 ae       	std	Z+57, r1	; 0x39
    499c:	12 ae       	std	Z+58, r1	; 0x3a
    499e:	89 81       	ldd	r24, Y+1	; 0x01
    49a0:	9a 81       	ldd	r25, Y+2	; 0x02
    49a2:	fc 01       	movw	r30, r24
    49a4:	14 ae       	std	Z+60, r1	; 0x3c
    49a6:	13 ae       	std	Z+59, r1	; 0x3b
    49a8:	89 81       	ldd	r24, Y+1	; 0x01
    49aa:	9a 81       	ldd	r25, Y+2	; 0x02
    49ac:	8f 5b       	subi	r24, 0xBF	; 191
    49ae:	9f 4f       	sbci	r25, 0xFF	; 255
    49b0:	fc 01       	movw	r30, r24
    49b2:	10 82       	st	Z, r1
    49b4:	89 81       	ldd	r24, Y+1	; 0x01
    49b6:	9a 81       	ldd	r25, Y+2	; 0x02
    49b8:	8d 5b       	subi	r24, 0xBD	; 189
    49ba:	9f 4f       	sbci	r25, 0xFF	; 255
    49bc:	fc 01       	movw	r30, r24
    49be:	10 82       	st	Z, r1
    49c0:	89 81       	ldd	r24, Y+1	; 0x01
    49c2:	9a 81       	ldd	r25, Y+2	; 0x02
    49c4:	8d 5b       	subi	r24, 0xBD	; 189
    49c6:	9f 4f       	sbci	r25, 0xFF	; 255
    49c8:	fc 01       	movw	r30, r24
    49ca:	20 81       	ld	r18, Z
    49cc:	89 81       	ldd	r24, Y+1	; 0x01
    49ce:	9a 81       	ldd	r25, Y+2	; 0x02
    49d0:	8e 5b       	subi	r24, 0xBE	; 190
    49d2:	9f 4f       	sbci	r25, 0xFF	; 255
    49d4:	fc 01       	movw	r30, r24
    49d6:	20 83       	st	Z, r18
    49d8:	89 81       	ldd	r24, Y+1	; 0x01
    49da:	9a 81       	ldd	r25, Y+2	; 0x02
    49dc:	60 e0       	ldi	r22, 0x00	; 0
    49de:	70 e0       	ldi	r23, 0x00	; 0
    49e0:	0e 94 2a 25 	call	0x4a54	; 0x4a54 <setMidiHandler>
    49e4:	89 81       	ldd	r24, Y+1	; 0x01
    49e6:	9a 81       	ldd	r25, Y+2	; 0x02
    49e8:	60 e0       	ldi	r22, 0x00	; 0
    49ea:	70 e0       	ldi	r23, 0x00	; 0
    49ec:	0e 94 5c 25 	call	0x4ab8	; 0x4ab8 <setSysexHandler>
    49f0:	89 81       	ldd	r24, Y+1	; 0x01
    49f2:	9a 81       	ldd	r25, Y+2	; 0x02
    49f4:	60 e0       	ldi	r22, 0x00	; 0
    49f6:	70 e0       	ldi	r23, 0x00	; 0
    49f8:	0e 94 43 25 	call	0x4a86	; 0x4a86 <setMetaHandler>
    49fc:	89 81       	ldd	r24, Y+1	; 0x01
    49fe:	9a 81       	ldd	r25, Y+2	; 0x02
    4a00:	6c ea       	ldi	r22, 0xAC	; 172
    4a02:	70 e0       	ldi	r23, 0x00	; 0
    4a04:	0e 94 50 2a 	call	0x54a0	; 0x54a0 <setFilename>
    4a08:	89 81       	ldd	r24, Y+1	; 0x01
    4a0a:	9a 81       	ldd	r25, Y+2	; 0x02
    4a0c:	60 e3       	ldi	r22, 0x30	; 48
    4a0e:	70 e0       	ldi	r23, 0x00	; 0
    4a10:	0e 94 72 26 	call	0x4ce4	; 0x4ce4 <setTicksPerQuarterNote>
    4a14:	89 81       	ldd	r24, Y+1	; 0x01
    4a16:	9a 81       	ldd	r25, Y+2	; 0x02
    4a18:	68 e7       	ldi	r22, 0x78	; 120
    4a1a:	70 e0       	ldi	r23, 0x00	; 0
    4a1c:	0e 94 21 26 	call	0x4c42	; 0x4c42 <setTempo>
    4a20:	89 81       	ldd	r24, Y+1	; 0x01
    4a22:	9a 81       	ldd	r25, Y+2	; 0x02
    4a24:	60 e0       	ldi	r22, 0x00	; 0
    4a26:	70 e0       	ldi	r23, 0x00	; 0
    4a28:	0e 94 f5 25 	call	0x4bea	; 0x4bea <setTempoAdjust>
    4a2c:	89 81       	ldd	r24, Y+1	; 0x01
    4a2e:	9a 81       	ldd	r25, Y+2	; 0x02
    4a30:	40 e2       	ldi	r20, 0x20	; 32
    4a32:	51 ea       	ldi	r21, 0xA1	; 161
    4a34:	67 e0       	ldi	r22, 0x07	; 7
    4a36:	70 e0       	ldi	r23, 0x00	; 0
    4a38:	0e 94 8f 26 	call	0x4d1e	; 0x4d1e <setMicrosecondPerQuarterNote>
    4a3c:	89 81       	ldd	r24, Y+1	; 0x01
    4a3e:	9a 81       	ldd	r25, Y+2	; 0x02
    4a40:	44 e0       	ldi	r20, 0x04	; 4
    4a42:	64 e0       	ldi	r22, 0x04	; 4
    4a44:	0e 94 4e 26 	call	0x4c9c	; 0x4c9c <setTimeSignature>
    4a48:	00 00       	nop
    4a4a:	0f 90       	pop	r0
    4a4c:	0f 90       	pop	r0
    4a4e:	df 91       	pop	r29
    4a50:	cf 91       	pop	r28
    4a52:	08 95       	ret

00004a54 <setMidiHandler>:
    4a54:	cf 93       	push	r28
    4a56:	df 93       	push	r29
    4a58:	00 d0       	rcall	.+0      	; 0x4a5a <setMidiHandler+0x6>
    4a5a:	00 d0       	rcall	.+0      	; 0x4a5c <setMidiHandler+0x8>
    4a5c:	cd b7       	in	r28, 0x3d	; 61
    4a5e:	de b7       	in	r29, 0x3e	; 62
    4a60:	9a 83       	std	Y+2, r25	; 0x02
    4a62:	89 83       	std	Y+1, r24	; 0x01
    4a64:	7c 83       	std	Y+4, r23	; 0x04
    4a66:	6b 83       	std	Y+3, r22	; 0x03
    4a68:	89 81       	ldd	r24, Y+1	; 0x01
    4a6a:	9a 81       	ldd	r25, Y+2	; 0x02
    4a6c:	2b 81       	ldd	r18, Y+3	; 0x03
    4a6e:	3c 81       	ldd	r19, Y+4	; 0x04
    4a70:	fc 01       	movw	r30, r24
    4a72:	31 83       	std	Z+1, r19	; 0x01
    4a74:	20 83       	st	Z, r18
    4a76:	00 00       	nop
    4a78:	0f 90       	pop	r0
    4a7a:	0f 90       	pop	r0
    4a7c:	0f 90       	pop	r0
    4a7e:	0f 90       	pop	r0
    4a80:	df 91       	pop	r29
    4a82:	cf 91       	pop	r28
    4a84:	08 95       	ret

00004a86 <setMetaHandler>:
    4a86:	cf 93       	push	r28
    4a88:	df 93       	push	r29
    4a8a:	00 d0       	rcall	.+0      	; 0x4a8c <setMetaHandler+0x6>
    4a8c:	00 d0       	rcall	.+0      	; 0x4a8e <setMetaHandler+0x8>
    4a8e:	cd b7       	in	r28, 0x3d	; 61
    4a90:	de b7       	in	r29, 0x3e	; 62
    4a92:	9a 83       	std	Y+2, r25	; 0x02
    4a94:	89 83       	std	Y+1, r24	; 0x01
    4a96:	7c 83       	std	Y+4, r23	; 0x04
    4a98:	6b 83       	std	Y+3, r22	; 0x03
    4a9a:	89 81       	ldd	r24, Y+1	; 0x01
    4a9c:	9a 81       	ldd	r25, Y+2	; 0x02
    4a9e:	2b 81       	ldd	r18, Y+3	; 0x03
    4aa0:	3c 81       	ldd	r19, Y+4	; 0x04
    4aa2:	fc 01       	movw	r30, r24
    4aa4:	35 83       	std	Z+5, r19	; 0x05
    4aa6:	24 83       	std	Z+4, r18	; 0x04
    4aa8:	00 00       	nop
    4aaa:	0f 90       	pop	r0
    4aac:	0f 90       	pop	r0
    4aae:	0f 90       	pop	r0
    4ab0:	0f 90       	pop	r0
    4ab2:	df 91       	pop	r29
    4ab4:	cf 91       	pop	r28
    4ab6:	08 95       	ret

00004ab8 <setSysexHandler>:
    4ab8:	cf 93       	push	r28
    4aba:	df 93       	push	r29
    4abc:	00 d0       	rcall	.+0      	; 0x4abe <setSysexHandler+0x6>
    4abe:	00 d0       	rcall	.+0      	; 0x4ac0 <setSysexHandler+0x8>
    4ac0:	cd b7       	in	r28, 0x3d	; 61
    4ac2:	de b7       	in	r29, 0x3e	; 62
    4ac4:	9a 83       	std	Y+2, r25	; 0x02
    4ac6:	89 83       	std	Y+1, r24	; 0x01
    4ac8:	7c 83       	std	Y+4, r23	; 0x04
    4aca:	6b 83       	std	Y+3, r22	; 0x03
    4acc:	89 81       	ldd	r24, Y+1	; 0x01
    4ace:	9a 81       	ldd	r25, Y+2	; 0x02
    4ad0:	2b 81       	ldd	r18, Y+3	; 0x03
    4ad2:	3c 81       	ldd	r19, Y+4	; 0x04
    4ad4:	fc 01       	movw	r30, r24
    4ad6:	33 83       	std	Z+3, r19	; 0x03
    4ad8:	22 83       	std	Z+2, r18	; 0x02
    4ada:	00 00       	nop
    4adc:	0f 90       	pop	r0
    4ade:	0f 90       	pop	r0
    4ae0:	0f 90       	pop	r0
    4ae2:	0f 90       	pop	r0
    4ae4:	df 91       	pop	r29
    4ae6:	cf 91       	pop	r28
    4ae8:	08 95       	ret

00004aea <synchTracks>:
    4aea:	cf 93       	push	r28
    4aec:	df 93       	push	r29
    4aee:	00 d0       	rcall	.+0      	; 0x4af0 <synchTracks+0x6>
    4af0:	1f 92       	push	r1
    4af2:	cd b7       	in	r28, 0x3d	; 61
    4af4:	de b7       	in	r29, 0x3e	; 62
    4af6:	9b 83       	std	Y+3, r25	; 0x03
    4af8:	8a 83       	std	Y+2, r24	; 0x02
    4afa:	19 82       	std	Y+1, r1	; 0x01
    4afc:	14 c0       	rjmp	.+40     	; 0x4b26 <synchTracks+0x3c>
    4afe:	89 81       	ldd	r24, Y+1	; 0x01
    4b00:	28 2f       	mov	r18, r24
    4b02:	30 e0       	ldi	r19, 0x00	; 0
    4b04:	49 e1       	ldi	r20, 0x19	; 25
    4b06:	42 9f       	mul	r20, r18
    4b08:	c0 01       	movw	r24, r0
    4b0a:	43 9f       	mul	r20, r19
    4b0c:	90 0d       	add	r25, r0
    4b0e:	11 24       	eor	r1, r1
    4b10:	85 5b       	subi	r24, 0xB5	; 181
    4b12:	9f 4f       	sbci	r25, 0xFF	; 255
    4b14:	2a 81       	ldd	r18, Y+2	; 0x02
    4b16:	3b 81       	ldd	r19, Y+3	; 0x03
    4b18:	82 0f       	add	r24, r18
    4b1a:	93 1f       	adc	r25, r19
    4b1c:	0e 94 60 2b 	call	0x56c0	; 0x56c0 <syncTime>
    4b20:	89 81       	ldd	r24, Y+1	; 0x01
    4b22:	8f 5f       	subi	r24, 0xFF	; 255
    4b24:	89 83       	std	Y+1, r24	; 0x01
    4b26:	8a 81       	ldd	r24, Y+2	; 0x02
    4b28:	9b 81       	ldd	r25, Y+3	; 0x03
    4b2a:	fc 01       	movw	r30, r24
    4b2c:	94 a9       	ldd	r25, Z+52	; 0x34
    4b2e:	89 81       	ldd	r24, Y+1	; 0x01
    4b30:	89 17       	cp	r24, r25
    4b32:	28 f3       	brcs	.-54     	; 0x4afe <synchTracks+0x14>
    4b34:	0e 94 dc 1e 	call	0x3db8	; 0x3db8 <getMicros>
    4b38:	dc 01       	movw	r26, r24
    4b3a:	cb 01       	movw	r24, r22
    4b3c:	2a 81       	ldd	r18, Y+2	; 0x02
    4b3e:	3b 81       	ldd	r19, Y+3	; 0x03
    4b40:	23 5c       	subi	r18, 0xC3	; 195
    4b42:	3f 4f       	sbci	r19, 0xFF	; 255
    4b44:	f9 01       	movw	r30, r18
    4b46:	80 83       	st	Z, r24
    4b48:	91 83       	std	Z+1, r25	; 0x01
    4b4a:	a2 83       	std	Z+2, r26	; 0x02
    4b4c:	b3 83       	std	Z+3, r27	; 0x03
    4b4e:	00 00       	nop
    4b50:	0f 90       	pop	r0
    4b52:	0f 90       	pop	r0
    4b54:	0f 90       	pop	r0
    4b56:	df 91       	pop	r29
    4b58:	cf 91       	pop	r28
    4b5a:	08 95       	ret

00004b5c <closeMIDIFile>:
    4b5c:	cf 93       	push	r28
    4b5e:	df 93       	push	r29
    4b60:	00 d0       	rcall	.+0      	; 0x4b62 <closeMIDIFile+0x6>
    4b62:	1f 92       	push	r1
    4b64:	cd b7       	in	r28, 0x3d	; 61
    4b66:	de b7       	in	r29, 0x3e	; 62
    4b68:	9b 83       	std	Y+3, r25	; 0x03
    4b6a:	8a 83       	std	Y+2, r24	; 0x02
    4b6c:	19 82       	std	Y+1, r1	; 0x01
    4b6e:	14 c0       	rjmp	.+40     	; 0x4b98 <closeMIDIFile+0x3c>
    4b70:	89 81       	ldd	r24, Y+1	; 0x01
    4b72:	28 2f       	mov	r18, r24
    4b74:	30 e0       	ldi	r19, 0x00	; 0
    4b76:	49 e1       	ldi	r20, 0x19	; 25
    4b78:	42 9f       	mul	r20, r18
    4b7a:	c0 01       	movw	r24, r0
    4b7c:	43 9f       	mul	r20, r19
    4b7e:	90 0d       	add	r25, r0
    4b80:	11 24       	eor	r1, r1
    4b82:	85 5b       	subi	r24, 0xB5	; 181
    4b84:	9f 4f       	sbci	r25, 0xFF	; 255
    4b86:	2a 81       	ldd	r18, Y+2	; 0x02
    4b88:	3b 81       	ldd	r19, Y+3	; 0x03
    4b8a:	82 0f       	add	r24, r18
    4b8c:	93 1f       	adc	r25, r19
    4b8e:	0e 94 3f 2b 	call	0x567e	; 0x567e <closeTrack>
    4b92:	89 81       	ldd	r24, Y+1	; 0x01
    4b94:	8f 5f       	subi	r24, 0xFF	; 255
    4b96:	89 83       	std	Y+1, r24	; 0x01
    4b98:	8a 81       	ldd	r24, Y+2	; 0x02
    4b9a:	9b 81       	ldd	r25, Y+3	; 0x03
    4b9c:	fc 01       	movw	r30, r24
    4b9e:	94 a9       	ldd	r25, Z+52	; 0x34
    4ba0:	89 81       	ldd	r24, Y+1	; 0x01
    4ba2:	89 17       	cp	r24, r25
    4ba4:	28 f3       	brcs	.-54     	; 0x4b70 <closeMIDIFile+0x14>
    4ba6:	8a 81       	ldd	r24, Y+2	; 0x02
    4ba8:	9b 81       	ldd	r25, Y+3	; 0x03
    4baa:	fc 01       	movw	r30, r24
    4bac:	14 aa       	std	Z+52, r1	; 0x34
    4bae:	8a 81       	ldd	r24, Y+2	; 0x02
    4bb0:	9b 81       	ldd	r25, Y+3	; 0x03
    4bb2:	8f 5b       	subi	r24, 0xBF	; 191
    4bb4:	9f 4f       	sbci	r25, 0xFF	; 255
    4bb6:	fc 01       	movw	r30, r24
    4bb8:	10 82       	st	Z, r1
    4bba:	8a 81       	ldd	r24, Y+2	; 0x02
    4bbc:	9b 81       	ldd	r25, Y+3	; 0x03
    4bbe:	8e 5b       	subi	r24, 0xBE	; 190
    4bc0:	9f 4f       	sbci	r25, 0xFF	; 255
    4bc2:	fc 01       	movw	r30, r24
    4bc4:	10 82       	st	Z, r1
    4bc6:	8a 81       	ldd	r24, Y+2	; 0x02
    4bc8:	9b 81       	ldd	r25, Y+3	; 0x03
    4bca:	6c ea       	ldi	r22, 0xAC	; 172
    4bcc:	70 e0       	ldi	r23, 0x00	; 0
    4bce:	0e 94 50 2a 	call	0x54a0	; 0x54a0 <setFilename>
    4bd2:	8a 81       	ldd	r24, Y+2	; 0x02
    4bd4:	9b 81       	ldd	r25, Y+3	; 0x03
    4bd6:	06 96       	adiw	r24, 0x06	; 6
    4bd8:	0e 94 00 1b 	call	0x3600	; 0x3600 <f_close>
    4bdc:	00 00       	nop
    4bde:	0f 90       	pop	r0
    4be0:	0f 90       	pop	r0
    4be2:	0f 90       	pop	r0
    4be4:	df 91       	pop	r29
    4be6:	cf 91       	pop	r28
    4be8:	08 95       	ret

00004bea <setTempoAdjust>:
    4bea:	cf 93       	push	r28
    4bec:	df 93       	push	r29
    4bee:	00 d0       	rcall	.+0      	; 0x4bf0 <setTempoAdjust+0x6>
    4bf0:	00 d0       	rcall	.+0      	; 0x4bf2 <setTempoAdjust+0x8>
    4bf2:	cd b7       	in	r28, 0x3d	; 61
    4bf4:	de b7       	in	r29, 0x3e	; 62
    4bf6:	9a 83       	std	Y+2, r25	; 0x02
    4bf8:	89 83       	std	Y+1, r24	; 0x01
    4bfa:	7c 83       	std	Y+4, r23	; 0x04
    4bfc:	6b 83       	std	Y+3, r22	; 0x03
    4bfe:	89 81       	ldd	r24, Y+1	; 0x01
    4c00:	9a 81       	ldd	r25, Y+2	; 0x02
    4c02:	8c 5b       	subi	r24, 0xBC	; 188
    4c04:	9f 4f       	sbci	r25, 0xFF	; 255
    4c06:	fc 01       	movw	r30, r24
    4c08:	20 81       	ld	r18, Z
    4c0a:	31 81       	ldd	r19, Z+1	; 0x01
    4c0c:	8b 81       	ldd	r24, Y+3	; 0x03
    4c0e:	9c 81       	ldd	r25, Y+4	; 0x04
    4c10:	82 0f       	add	r24, r18
    4c12:	93 1f       	adc	r25, r19
    4c14:	89 2b       	or	r24, r25
    4c16:	49 f0       	breq	.+18     	; 0x4c2a <setTempoAdjust+0x40>
    4c18:	89 81       	ldd	r24, Y+1	; 0x01
    4c1a:	9a 81       	ldd	r25, Y+2	; 0x02
    4c1c:	8a 5b       	subi	r24, 0xBA	; 186
    4c1e:	9f 4f       	sbci	r25, 0xFF	; 255
    4c20:	2b 81       	ldd	r18, Y+3	; 0x03
    4c22:	3c 81       	ldd	r19, Y+4	; 0x04
    4c24:	fc 01       	movw	r30, r24
    4c26:	31 83       	std	Z+1, r19	; 0x01
    4c28:	20 83       	st	Z, r18
    4c2a:	89 81       	ldd	r24, Y+1	; 0x01
    4c2c:	9a 81       	ldd	r25, Y+2	; 0x02
    4c2e:	0e 94 c0 26 	call	0x4d80	; 0x4d80 <calcTickTime>
    4c32:	00 00       	nop
    4c34:	0f 90       	pop	r0
    4c36:	0f 90       	pop	r0
    4c38:	0f 90       	pop	r0
    4c3a:	0f 90       	pop	r0
    4c3c:	df 91       	pop	r29
    4c3e:	cf 91       	pop	r28
    4c40:	08 95       	ret

00004c42 <setTempo>:
    4c42:	cf 93       	push	r28
    4c44:	df 93       	push	r29
    4c46:	00 d0       	rcall	.+0      	; 0x4c48 <setTempo+0x6>
    4c48:	00 d0       	rcall	.+0      	; 0x4c4a <setTempo+0x8>
    4c4a:	cd b7       	in	r28, 0x3d	; 61
    4c4c:	de b7       	in	r29, 0x3e	; 62
    4c4e:	9a 83       	std	Y+2, r25	; 0x02
    4c50:	89 83       	std	Y+1, r24	; 0x01
    4c52:	7c 83       	std	Y+4, r23	; 0x04
    4c54:	6b 83       	std	Y+3, r22	; 0x03
    4c56:	89 81       	ldd	r24, Y+1	; 0x01
    4c58:	9a 81       	ldd	r25, Y+2	; 0x02
    4c5a:	8a 5b       	subi	r24, 0xBA	; 186
    4c5c:	9f 4f       	sbci	r25, 0xFF	; 255
    4c5e:	fc 01       	movw	r30, r24
    4c60:	80 81       	ld	r24, Z
    4c62:	91 81       	ldd	r25, Z+1	; 0x01
    4c64:	9c 01       	movw	r18, r24
    4c66:	8b 81       	ldd	r24, Y+3	; 0x03
    4c68:	9c 81       	ldd	r25, Y+4	; 0x04
    4c6a:	82 0f       	add	r24, r18
    4c6c:	93 1f       	adc	r25, r19
    4c6e:	89 2b       	or	r24, r25
    4c70:	49 f0       	breq	.+18     	; 0x4c84 <setTempo+0x42>
    4c72:	89 81       	ldd	r24, Y+1	; 0x01
    4c74:	9a 81       	ldd	r25, Y+2	; 0x02
    4c76:	8c 5b       	subi	r24, 0xBC	; 188
    4c78:	9f 4f       	sbci	r25, 0xFF	; 255
    4c7a:	2b 81       	ldd	r18, Y+3	; 0x03
    4c7c:	3c 81       	ldd	r19, Y+4	; 0x04
    4c7e:	fc 01       	movw	r30, r24
    4c80:	31 83       	std	Z+1, r19	; 0x01
    4c82:	20 83       	st	Z, r18
    4c84:	89 81       	ldd	r24, Y+1	; 0x01
    4c86:	9a 81       	ldd	r25, Y+2	; 0x02
    4c88:	0e 94 c0 26 	call	0x4d80	; 0x4d80 <calcTickTime>
    4c8c:	00 00       	nop
    4c8e:	0f 90       	pop	r0
    4c90:	0f 90       	pop	r0
    4c92:	0f 90       	pop	r0
    4c94:	0f 90       	pop	r0
    4c96:	df 91       	pop	r29
    4c98:	cf 91       	pop	r28
    4c9a:	08 95       	ret

00004c9c <setTimeSignature>:
    4c9c:	cf 93       	push	r28
    4c9e:	df 93       	push	r29
    4ca0:	00 d0       	rcall	.+0      	; 0x4ca2 <setTimeSignature+0x6>
    4ca2:	00 d0       	rcall	.+0      	; 0x4ca4 <setTimeSignature+0x8>
    4ca4:	cd b7       	in	r28, 0x3d	; 61
    4ca6:	de b7       	in	r29, 0x3e	; 62
    4ca8:	9a 83       	std	Y+2, r25	; 0x02
    4caa:	89 83       	std	Y+1, r24	; 0x01
    4cac:	6b 83       	std	Y+3, r22	; 0x03
    4cae:	4c 83       	std	Y+4, r20	; 0x04
    4cb0:	89 81       	ldd	r24, Y+1	; 0x01
    4cb2:	9a 81       	ldd	r25, Y+2	; 0x02
    4cb4:	88 5b       	subi	r24, 0xB8	; 184
    4cb6:	9f 4f       	sbci	r25, 0xFF	; 255
    4cb8:	2b 81       	ldd	r18, Y+3	; 0x03
    4cba:	fc 01       	movw	r30, r24
    4cbc:	20 83       	st	Z, r18
    4cbe:	89 81       	ldd	r24, Y+1	; 0x01
    4cc0:	9a 81       	ldd	r25, Y+2	; 0x02
    4cc2:	87 5b       	subi	r24, 0xB7	; 183
    4cc4:	9f 4f       	sbci	r25, 0xFF	; 255
    4cc6:	2c 81       	ldd	r18, Y+4	; 0x04
    4cc8:	fc 01       	movw	r30, r24
    4cca:	20 83       	st	Z, r18
    4ccc:	89 81       	ldd	r24, Y+1	; 0x01
    4cce:	9a 81       	ldd	r25, Y+2	; 0x02
    4cd0:	0e 94 c0 26 	call	0x4d80	; 0x4d80 <calcTickTime>
    4cd4:	00 00       	nop
    4cd6:	0f 90       	pop	r0
    4cd8:	0f 90       	pop	r0
    4cda:	0f 90       	pop	r0
    4cdc:	0f 90       	pop	r0
    4cde:	df 91       	pop	r29
    4ce0:	cf 91       	pop	r28
    4ce2:	08 95       	ret

00004ce4 <setTicksPerQuarterNote>:
    4ce4:	cf 93       	push	r28
    4ce6:	df 93       	push	r29
    4ce8:	00 d0       	rcall	.+0      	; 0x4cea <setTicksPerQuarterNote+0x6>
    4cea:	00 d0       	rcall	.+0      	; 0x4cec <setTicksPerQuarterNote+0x8>
    4cec:	cd b7       	in	r28, 0x3d	; 61
    4cee:	de b7       	in	r29, 0x3e	; 62
    4cf0:	9a 83       	std	Y+2, r25	; 0x02
    4cf2:	89 83       	std	Y+1, r24	; 0x01
    4cf4:	7c 83       	std	Y+4, r23	; 0x04
    4cf6:	6b 83       	std	Y+3, r22	; 0x03
    4cf8:	89 81       	ldd	r24, Y+1	; 0x01
    4cfa:	9a 81       	ldd	r25, Y+2	; 0x02
    4cfc:	2b 81       	ldd	r18, Y+3	; 0x03
    4cfe:	3c 81       	ldd	r19, Y+4	; 0x04
    4d00:	fc 01       	movw	r30, r24
    4d02:	36 ab       	std	Z+54, r19	; 0x36
    4d04:	25 ab       	std	Z+53, r18	; 0x35
    4d06:	89 81       	ldd	r24, Y+1	; 0x01
    4d08:	9a 81       	ldd	r25, Y+2	; 0x02
    4d0a:	0e 94 c0 26 	call	0x4d80	; 0x4d80 <calcTickTime>
    4d0e:	00 00       	nop
    4d10:	0f 90       	pop	r0
    4d12:	0f 90       	pop	r0
    4d14:	0f 90       	pop	r0
    4d16:	0f 90       	pop	r0
    4d18:	df 91       	pop	r29
    4d1a:	cf 91       	pop	r28
    4d1c:	08 95       	ret

00004d1e <setMicrosecondPerQuarterNote>:
    4d1e:	cf 93       	push	r28
    4d20:	df 93       	push	r29
    4d22:	00 d0       	rcall	.+0      	; 0x4d24 <setMicrosecondPerQuarterNote+0x6>
    4d24:	00 d0       	rcall	.+0      	; 0x4d26 <setMicrosecondPerQuarterNote+0x8>
    4d26:	00 d0       	rcall	.+0      	; 0x4d28 <setMicrosecondPerQuarterNote+0xa>
    4d28:	cd b7       	in	r28, 0x3d	; 61
    4d2a:	de b7       	in	r29, 0x3e	; 62
    4d2c:	9a 83       	std	Y+2, r25	; 0x02
    4d2e:	89 83       	std	Y+1, r24	; 0x01
    4d30:	4b 83       	std	Y+3, r20	; 0x03
    4d32:	5c 83       	std	Y+4, r21	; 0x04
    4d34:	6d 83       	std	Y+5, r22	; 0x05
    4d36:	7e 83       	std	Y+6, r23	; 0x06
    4d38:	80 e0       	ldi	r24, 0x00	; 0
    4d3a:	97 e8       	ldi	r25, 0x87	; 135
    4d3c:	a3 e9       	ldi	r26, 0x93	; 147
    4d3e:	b3 e0       	ldi	r27, 0x03	; 3
    4d40:	2b 81       	ldd	r18, Y+3	; 0x03
    4d42:	3c 81       	ldd	r19, Y+4	; 0x04
    4d44:	4d 81       	ldd	r20, Y+5	; 0x05
    4d46:	5e 81       	ldd	r21, Y+6	; 0x06
    4d48:	bc 01       	movw	r22, r24
    4d4a:	cd 01       	movw	r24, r26
    4d4c:	0e 94 5e 3e 	call	0x7cbc	; 0x7cbc <__udivmodsi4>
    4d50:	da 01       	movw	r26, r20
    4d52:	c9 01       	movw	r24, r18
    4d54:	9c 01       	movw	r18, r24
    4d56:	89 81       	ldd	r24, Y+1	; 0x01
    4d58:	9a 81       	ldd	r25, Y+2	; 0x02
    4d5a:	8c 5b       	subi	r24, 0xBC	; 188
    4d5c:	9f 4f       	sbci	r25, 0xFF	; 255
    4d5e:	fc 01       	movw	r30, r24
    4d60:	31 83       	std	Z+1, r19	; 0x01
    4d62:	20 83       	st	Z, r18
    4d64:	89 81       	ldd	r24, Y+1	; 0x01
    4d66:	9a 81       	ldd	r25, Y+2	; 0x02
    4d68:	0e 94 c0 26 	call	0x4d80	; 0x4d80 <calcTickTime>
    4d6c:	00 00       	nop
    4d6e:	26 96       	adiw	r28, 0x06	; 6
    4d70:	0f b6       	in	r0, 0x3f	; 63
    4d72:	f8 94       	cli
    4d74:	de bf       	out	0x3e, r29	; 62
    4d76:	0f be       	out	0x3f, r0	; 63
    4d78:	cd bf       	out	0x3d, r28	; 61
    4d7a:	df 91       	pop	r29
    4d7c:	cf 91       	pop	r28
    4d7e:	08 95       	ret

00004d80 <calcTickTime>:
    4d80:	cf 93       	push	r28
    4d82:	df 93       	push	r29
    4d84:	00 d0       	rcall	.+0      	; 0x4d86 <calcTickTime+0x6>
    4d86:	cd b7       	in	r28, 0x3d	; 61
    4d88:	de b7       	in	r29, 0x3e	; 62
    4d8a:	9a 83       	std	Y+2, r25	; 0x02
    4d8c:	89 83       	std	Y+1, r24	; 0x01
    4d8e:	89 81       	ldd	r24, Y+1	; 0x01
    4d90:	9a 81       	ldd	r25, Y+2	; 0x02
    4d92:	8c 5b       	subi	r24, 0xBC	; 188
    4d94:	9f 4f       	sbci	r25, 0xFF	; 255
    4d96:	fc 01       	movw	r30, r24
    4d98:	80 81       	ld	r24, Z
    4d9a:	91 81       	ldd	r25, Z+1	; 0x01
    4d9c:	29 81       	ldd	r18, Y+1	; 0x01
    4d9e:	3a 81       	ldd	r19, Y+2	; 0x02
    4da0:	2a 5b       	subi	r18, 0xBA	; 186
    4da2:	3f 4f       	sbci	r19, 0xFF	; 255
    4da4:	f9 01       	movw	r30, r18
    4da6:	20 81       	ld	r18, Z
    4da8:	31 81       	ldd	r19, Z+1	; 0x01
    4daa:	82 0f       	add	r24, r18
    4dac:	93 1f       	adc	r25, r19
    4dae:	89 2b       	or	r24, r25
    4db0:	09 f4       	brne	.+2      	; 0x4db4 <calcTickTime+0x34>
    4db2:	51 c0       	rjmp	.+162    	; 0x4e56 <calcTickTime+0xd6>
    4db4:	89 81       	ldd	r24, Y+1	; 0x01
    4db6:	9a 81       	ldd	r25, Y+2	; 0x02
    4db8:	fc 01       	movw	r30, r24
    4dba:	85 a9       	ldd	r24, Z+53	; 0x35
    4dbc:	96 a9       	ldd	r25, Z+54	; 0x36
    4dbe:	89 2b       	or	r24, r25
    4dc0:	09 f4       	brne	.+2      	; 0x4dc4 <calcTickTime+0x44>
    4dc2:	49 c0       	rjmp	.+146    	; 0x4e56 <calcTickTime+0xd6>
    4dc4:	89 81       	ldd	r24, Y+1	; 0x01
    4dc6:	9a 81       	ldd	r25, Y+2	; 0x02
    4dc8:	87 5b       	subi	r24, 0xB7	; 183
    4dca:	9f 4f       	sbci	r25, 0xFF	; 255
    4dcc:	fc 01       	movw	r30, r24
    4dce:	80 81       	ld	r24, Z
    4dd0:	88 23       	and	r24, r24
    4dd2:	09 f4       	brne	.+2      	; 0x4dd6 <calcTickTime+0x56>
    4dd4:	40 c0       	rjmp	.+128    	; 0x4e56 <calcTickTime+0xd6>
    4dd6:	89 81       	ldd	r24, Y+1	; 0x01
    4dd8:	9a 81       	ldd	r25, Y+2	; 0x02
    4dda:	8c 5b       	subi	r24, 0xBC	; 188
    4ddc:	9f 4f       	sbci	r25, 0xFF	; 255
    4dde:	fc 01       	movw	r30, r24
    4de0:	80 81       	ld	r24, Z
    4de2:	91 81       	ldd	r25, Z+1	; 0x01
    4de4:	29 81       	ldd	r18, Y+1	; 0x01
    4de6:	3a 81       	ldd	r19, Y+2	; 0x02
    4de8:	2a 5b       	subi	r18, 0xBA	; 186
    4dea:	3f 4f       	sbci	r19, 0xFF	; 255
    4dec:	f9 01       	movw	r30, r18
    4dee:	20 81       	ld	r18, Z
    4df0:	31 81       	ldd	r19, Z+1	; 0x01
    4df2:	82 0f       	add	r24, r18
    4df4:	93 1f       	adc	r25, r19
    4df6:	9c 01       	movw	r18, r24
    4df8:	40 e0       	ldi	r20, 0x00	; 0
    4dfa:	50 e0       	ldi	r21, 0x00	; 0
    4dfc:	80 e0       	ldi	r24, 0x00	; 0
    4dfe:	97 e8       	ldi	r25, 0x87	; 135
    4e00:	a3 e9       	ldi	r26, 0x93	; 147
    4e02:	b3 e0       	ldi	r27, 0x03	; 3
    4e04:	bc 01       	movw	r22, r24
    4e06:	cd 01       	movw	r24, r26
    4e08:	0e 94 80 3e 	call	0x7d00	; 0x7d00 <__divmodsi4>
    4e0c:	da 01       	movw	r26, r20
    4e0e:	c9 01       	movw	r24, r18
    4e10:	29 81       	ldd	r18, Y+1	; 0x01
    4e12:	3a 81       	ldd	r19, Y+2	; 0x02
    4e14:	f9 01       	movw	r30, r18
    4e16:	87 ab       	std	Z+55, r24	; 0x37
    4e18:	90 af       	std	Z+56, r25	; 0x38
    4e1a:	a1 af       	std	Z+57, r26	; 0x39
    4e1c:	b2 af       	std	Z+58, r27	; 0x3a
    4e1e:	89 81       	ldd	r24, Y+1	; 0x01
    4e20:	9a 81       	ldd	r25, Y+2	; 0x02
    4e22:	fc 01       	movw	r30, r24
    4e24:	87 a9       	ldd	r24, Z+55	; 0x37
    4e26:	90 ad       	ldd	r25, Z+56	; 0x38
    4e28:	a1 ad       	ldd	r26, Z+57	; 0x39
    4e2a:	b2 ad       	ldd	r27, Z+58	; 0x3a
    4e2c:	29 81       	ldd	r18, Y+1	; 0x01
    4e2e:	3a 81       	ldd	r19, Y+2	; 0x02
    4e30:	f9 01       	movw	r30, r18
    4e32:	25 a9       	ldd	r18, Z+53	; 0x35
    4e34:	36 a9       	ldd	r19, Z+54	; 0x36
    4e36:	99 01       	movw	r18, r18
    4e38:	40 e0       	ldi	r20, 0x00	; 0
    4e3a:	50 e0       	ldi	r21, 0x00	; 0
    4e3c:	bc 01       	movw	r22, r24
    4e3e:	cd 01       	movw	r24, r26
    4e40:	0e 94 5e 3e 	call	0x7cbc	; 0x7cbc <__udivmodsi4>
    4e44:	da 01       	movw	r26, r20
    4e46:	c9 01       	movw	r24, r18
    4e48:	29 81       	ldd	r18, Y+1	; 0x01
    4e4a:	3a 81       	ldd	r19, Y+2	; 0x02
    4e4c:	f9 01       	movw	r30, r18
    4e4e:	87 ab       	std	Z+55, r24	; 0x37
    4e50:	90 af       	std	Z+56, r25	; 0x38
    4e52:	a1 af       	std	Z+57, r26	; 0x39
    4e54:	b2 af       	std	Z+58, r27	; 0x3a
    4e56:	00 00       	nop
    4e58:	0f 90       	pop	r0
    4e5a:	0f 90       	pop	r0
    4e5c:	df 91       	pop	r29
    4e5e:	cf 91       	pop	r28
    4e60:	08 95       	ret

00004e62 <isEOF>:
    4e62:	cf 93       	push	r28
    4e64:	df 93       	push	r29
    4e66:	00 d0       	rcall	.+0      	; 0x4e68 <isEOF+0x6>
    4e68:	00 d0       	rcall	.+0      	; 0x4e6a <isEOF+0x8>
    4e6a:	cd b7       	in	r28, 0x3d	; 61
    4e6c:	de b7       	in	r29, 0x3e	; 62
    4e6e:	9c 83       	std	Y+4, r25	; 0x04
    4e70:	8b 83       	std	Y+3, r24	; 0x03
    4e72:	81 e0       	ldi	r24, 0x01	; 1
    4e74:	89 83       	std	Y+1, r24	; 0x01
    4e76:	1a 82       	std	Y+2, r1	; 0x02
    4e78:	1f c0       	rjmp	.+62     	; 0x4eb8 <isEOF+0x56>
    4e7a:	8a 81       	ldd	r24, Y+2	; 0x02
    4e7c:	28 2f       	mov	r18, r24
    4e7e:	30 e0       	ldi	r19, 0x00	; 0
    4e80:	49 e1       	ldi	r20, 0x19	; 25
    4e82:	42 9f       	mul	r20, r18
    4e84:	c0 01       	movw	r24, r0
    4e86:	43 9f       	mul	r20, r19
    4e88:	90 0d       	add	r25, r0
    4e8a:	11 24       	eor	r1, r1
    4e8c:	85 5b       	subi	r24, 0xB5	; 181
    4e8e:	9f 4f       	sbci	r25, 0xFF	; 255
    4e90:	2b 81       	ldd	r18, Y+3	; 0x03
    4e92:	3c 81       	ldd	r19, Y+4	; 0x04
    4e94:	82 0f       	add	r24, r18
    4e96:	93 1f       	adc	r25, r19
    4e98:	0e 94 50 2b 	call	0x56a0	; 0x56a0 <getEndOfTrack>
    4e9c:	88 23       	and	r24, r24
    4e9e:	31 f0       	breq	.+12     	; 0x4eac <isEOF+0x4a>
    4ea0:	89 81       	ldd	r24, Y+1	; 0x01
    4ea2:	88 23       	and	r24, r24
    4ea4:	19 f0       	breq	.+6      	; 0x4eac <isEOF+0x4a>
    4ea6:	81 e0       	ldi	r24, 0x01	; 1
    4ea8:	90 e0       	ldi	r25, 0x00	; 0
    4eaa:	02 c0       	rjmp	.+4      	; 0x4eb0 <isEOF+0x4e>
    4eac:	80 e0       	ldi	r24, 0x00	; 0
    4eae:	90 e0       	ldi	r25, 0x00	; 0
    4eb0:	89 83       	std	Y+1, r24	; 0x01
    4eb2:	8a 81       	ldd	r24, Y+2	; 0x02
    4eb4:	8f 5f       	subi	r24, 0xFF	; 255
    4eb6:	8a 83       	std	Y+2, r24	; 0x02
    4eb8:	8b 81       	ldd	r24, Y+3	; 0x03
    4eba:	9c 81       	ldd	r25, Y+4	; 0x04
    4ebc:	fc 01       	movw	r30, r24
    4ebe:	94 a9       	ldd	r25, Z+52	; 0x34
    4ec0:	8a 81       	ldd	r24, Y+2	; 0x02
    4ec2:	89 17       	cp	r24, r25
    4ec4:	18 f4       	brcc	.+6      	; 0x4ecc <isEOF+0x6a>
    4ec6:	89 81       	ldd	r24, Y+1	; 0x01
    4ec8:	88 23       	and	r24, r24
    4eca:	b9 f6       	brne	.-82     	; 0x4e7a <isEOF+0x18>
    4ecc:	89 81       	ldd	r24, Y+1	; 0x01
    4ece:	88 23       	and	r24, r24
    4ed0:	69 f0       	breq	.+26     	; 0x4eec <isEOF+0x8a>
    4ed2:	8b 81       	ldd	r24, Y+3	; 0x03
    4ed4:	9c 81       	ldd	r25, Y+4	; 0x04
    4ed6:	8d 5b       	subi	r24, 0xBD	; 189
    4ed8:	9f 4f       	sbci	r25, 0xFF	; 255
    4eda:	fc 01       	movw	r30, r24
    4edc:	80 81       	ld	r24, Z
    4ede:	88 23       	and	r24, r24
    4ee0:	29 f0       	breq	.+10     	; 0x4eec <isEOF+0x8a>
    4ee2:	8b 81       	ldd	r24, Y+3	; 0x03
    4ee4:	9c 81       	ldd	r25, Y+4	; 0x04
    4ee6:	0e 94 7e 27 	call	0x4efc	; 0x4efc <restart>
    4eea:	19 82       	std	Y+1, r1	; 0x01
    4eec:	89 81       	ldd	r24, Y+1	; 0x01
    4eee:	0f 90       	pop	r0
    4ef0:	0f 90       	pop	r0
    4ef2:	0f 90       	pop	r0
    4ef4:	0f 90       	pop	r0
    4ef6:	df 91       	pop	r29
    4ef8:	cf 91       	pop	r28
    4efa:	08 95       	ret

00004efc <restart>:
    4efc:	cf 93       	push	r28
    4efe:	df 93       	push	r29
    4f00:	00 d0       	rcall	.+0      	; 0x4f02 <restart+0x6>
    4f02:	1f 92       	push	r1
    4f04:	cd b7       	in	r28, 0x3d	; 61
    4f06:	de b7       	in	r29, 0x3e	; 62
    4f08:	9b 83       	std	Y+3, r25	; 0x03
    4f0a:	8a 83       	std	Y+2, r24	; 0x02
    4f0c:	8a 81       	ldd	r24, Y+2	; 0x02
    4f0e:	9b 81       	ldd	r25, Y+3	; 0x03
    4f10:	8d 5b       	subi	r24, 0xBD	; 189
    4f12:	9f 4f       	sbci	r25, 0xFF	; 255
    4f14:	fc 01       	movw	r30, r24
    4f16:	80 81       	ld	r24, Z
    4f18:	88 23       	and	r24, r24
    4f1a:	49 f0       	breq	.+18     	; 0x4f2e <restart+0x32>
    4f1c:	8a 81       	ldd	r24, Y+2	; 0x02
    4f1e:	9b 81       	ldd	r25, Y+3	; 0x03
    4f20:	fc 01       	movw	r30, r24
    4f22:	84 a9       	ldd	r24, Z+52	; 0x34
    4f24:	82 30       	cpi	r24, 0x02	; 2
    4f26:	18 f0       	brcs	.+6      	; 0x4f2e <restart+0x32>
    4f28:	81 e0       	ldi	r24, 0x01	; 1
    4f2a:	90 e0       	ldi	r25, 0x00	; 0
    4f2c:	02 c0       	rjmp	.+4      	; 0x4f32 <restart+0x36>
    4f2e:	80 e0       	ldi	r24, 0x00	; 0
    4f30:	90 e0       	ldi	r25, 0x00	; 0
    4f32:	89 83       	std	Y+1, r24	; 0x01
    4f34:	14 c0       	rjmp	.+40     	; 0x4f5e <restart+0x62>
    4f36:	89 81       	ldd	r24, Y+1	; 0x01
    4f38:	28 2f       	mov	r18, r24
    4f3a:	30 e0       	ldi	r19, 0x00	; 0
    4f3c:	49 e1       	ldi	r20, 0x19	; 25
    4f3e:	42 9f       	mul	r20, r18
    4f40:	c0 01       	movw	r24, r0
    4f42:	43 9f       	mul	r20, r19
    4f44:	90 0d       	add	r25, r0
    4f46:	11 24       	eor	r1, r1
    4f48:	85 5b       	subi	r24, 0xB5	; 181
    4f4a:	9f 4f       	sbci	r25, 0xFF	; 255
    4f4c:	2a 81       	ldd	r18, Y+2	; 0x02
    4f4e:	3b 81       	ldd	r19, Y+3	; 0x03
    4f50:	82 0f       	add	r24, r18
    4f52:	93 1f       	adc	r25, r19
    4f54:	0e 94 74 2b 	call	0x56e8	; 0x56e8 <restartTrack>
    4f58:	89 81       	ldd	r24, Y+1	; 0x01
    4f5a:	8f 5f       	subi	r24, 0xFF	; 255
    4f5c:	89 83       	std	Y+1, r24	; 0x01
    4f5e:	8a 81       	ldd	r24, Y+2	; 0x02
    4f60:	9b 81       	ldd	r25, Y+3	; 0x03
    4f62:	fc 01       	movw	r30, r24
    4f64:	94 a9       	ldd	r25, Z+52	; 0x34
    4f66:	89 81       	ldd	r24, Y+1	; 0x01
    4f68:	89 17       	cp	r24, r25
    4f6a:	28 f3       	brcs	.-54     	; 0x4f36 <restart+0x3a>
    4f6c:	8a 81       	ldd	r24, Y+2	; 0x02
    4f6e:	9b 81       	ldd	r25, Y+3	; 0x03
    4f70:	8f 5b       	subi	r24, 0xBF	; 191
    4f72:	9f 4f       	sbci	r25, 0xFF	; 255
    4f74:	fc 01       	movw	r30, r24
    4f76:	10 82       	st	Z, r1
    4f78:	00 00       	nop
    4f7a:	0f 90       	pop	r0
    4f7c:	0f 90       	pop	r0
    4f7e:	0f 90       	pop	r0
    4f80:	df 91       	pop	r29
    4f82:	cf 91       	pop	r28
    4f84:	08 95       	ret

00004f86 <tickClock>:
    4f86:	ef 92       	push	r14
    4f88:	ff 92       	push	r15
    4f8a:	0f 93       	push	r16
    4f8c:	1f 93       	push	r17
    4f8e:	cf 93       	push	r28
    4f90:	df 93       	push	r29
    4f92:	cd b7       	in	r28, 0x3d	; 61
    4f94:	de b7       	in	r29, 0x3e	; 62
    4f96:	2c 97       	sbiw	r28, 0x0c	; 12
    4f98:	0f b6       	in	r0, 0x3f	; 63
    4f9a:	f8 94       	cli
    4f9c:	de bf       	out	0x3e, r29	; 62
    4f9e:	0f be       	out	0x3f, r0	; 63
    4fa0:	cd bf       	out	0x3d, r28	; 61
    4fa2:	9c 87       	std	Y+12, r25	; 0x0c
    4fa4:	8b 87       	std	Y+11, r24	; 0x0b
    4fa6:	1a 82       	std	Y+2, r1	; 0x02
    4fa8:	19 82       	std	Y+1, r1	; 0x01
    4faa:	0e 94 dc 1e 	call	0x3db8	; 0x3db8 <getMicros>
    4fae:	dc 01       	movw	r26, r24
    4fb0:	cb 01       	movw	r24, r22
    4fb2:	8b 83       	std	Y+3, r24	; 0x03
    4fb4:	9c 83       	std	Y+4, r25	; 0x04
    4fb6:	ad 83       	std	Y+5, r26	; 0x05
    4fb8:	be 83       	std	Y+6, r27	; 0x06
    4fba:	8b 85       	ldd	r24, Y+11	; 0x0b
    4fbc:	9c 85       	ldd	r25, Y+12	; 0x0c
    4fbe:	fc 01       	movw	r30, r24
    4fc0:	83 ad       	ldd	r24, Z+59	; 0x3b
    4fc2:	94 ad       	ldd	r25, Z+60	; 0x3c
    4fc4:	9c 01       	movw	r18, r24
    4fc6:	40 e0       	ldi	r20, 0x00	; 0
    4fc8:	50 e0       	ldi	r21, 0x00	; 0
    4fca:	8b 81       	ldd	r24, Y+3	; 0x03
    4fcc:	9c 81       	ldd	r25, Y+4	; 0x04
    4fce:	ad 81       	ldd	r26, Y+5	; 0x05
    4fd0:	be 81       	ldd	r27, Y+6	; 0x06
    4fd2:	28 0f       	add	r18, r24
    4fd4:	39 1f       	adc	r19, r25
    4fd6:	4a 1f       	adc	r20, r26
    4fd8:	5b 1f       	adc	r21, r27
    4fda:	8b 85       	ldd	r24, Y+11	; 0x0b
    4fdc:	9c 85       	ldd	r25, Y+12	; 0x0c
    4fde:	cd 96       	adiw	r24, 0x3d	; 61
    4fe0:	fc 01       	movw	r30, r24
    4fe2:	80 81       	ld	r24, Z
    4fe4:	91 81       	ldd	r25, Z+1	; 0x01
    4fe6:	a2 81       	ldd	r26, Z+2	; 0x02
    4fe8:	b3 81       	ldd	r27, Z+3	; 0x03
    4fea:	79 01       	movw	r14, r18
    4fec:	8a 01       	movw	r16, r20
    4fee:	e8 1a       	sub	r14, r24
    4ff0:	f9 0a       	sbc	r15, r25
    4ff2:	0a 0b       	sbc	r16, r26
    4ff4:	1b 0b       	sbc	r17, r27
    4ff6:	d8 01       	movw	r26, r16
    4ff8:	c7 01       	movw	r24, r14
    4ffa:	8f 83       	std	Y+7, r24	; 0x07
    4ffc:	98 87       	std	Y+8, r25	; 0x08
    4ffe:	a9 87       	std	Y+9, r26	; 0x09
    5000:	ba 87       	std	Y+10, r27	; 0x0a
    5002:	8b 85       	ldd	r24, Y+11	; 0x0b
    5004:	9c 85       	ldd	r25, Y+12	; 0x0c
    5006:	fc 01       	movw	r30, r24
    5008:	27 a9       	ldd	r18, Z+55	; 0x37
    500a:	30 ad       	ldd	r19, Z+56	; 0x38
    500c:	41 ad       	ldd	r20, Z+57	; 0x39
    500e:	52 ad       	ldd	r21, Z+58	; 0x3a
    5010:	8f 81       	ldd	r24, Y+7	; 0x07
    5012:	98 85       	ldd	r25, Y+8	; 0x08
    5014:	a9 85       	ldd	r26, Y+9	; 0x09
    5016:	ba 85       	ldd	r27, Y+10	; 0x0a
    5018:	82 17       	cp	r24, r18
    501a:	93 07       	cpc	r25, r19
    501c:	a4 07       	cpc	r26, r20
    501e:	b5 07       	cpc	r27, r21
    5020:	d0 f1       	brcs	.+116    	; 0x5096 <tickClock+0x110>
    5022:	8b 85       	ldd	r24, Y+11	; 0x0b
    5024:	9c 85       	ldd	r25, Y+12	; 0x0c
    5026:	fc 01       	movw	r30, r24
    5028:	27 a9       	ldd	r18, Z+55	; 0x37
    502a:	30 ad       	ldd	r19, Z+56	; 0x38
    502c:	41 ad       	ldd	r20, Z+57	; 0x39
    502e:	52 ad       	ldd	r21, Z+58	; 0x3a
    5030:	8f 81       	ldd	r24, Y+7	; 0x07
    5032:	98 85       	ldd	r25, Y+8	; 0x08
    5034:	a9 85       	ldd	r26, Y+9	; 0x09
    5036:	ba 85       	ldd	r27, Y+10	; 0x0a
    5038:	bc 01       	movw	r22, r24
    503a:	cd 01       	movw	r24, r26
    503c:	0e 94 5e 3e 	call	0x7cbc	; 0x7cbc <__udivmodsi4>
    5040:	da 01       	movw	r26, r20
    5042:	c9 01       	movw	r24, r18
    5044:	9a 83       	std	Y+2, r25	; 0x02
    5046:	89 83       	std	Y+1, r24	; 0x01
    5048:	2f 81       	ldd	r18, Y+7	; 0x07
    504a:	38 85       	ldd	r19, Y+8	; 0x08
    504c:	8b 85       	ldd	r24, Y+11	; 0x0b
    504e:	9c 85       	ldd	r25, Y+12	; 0x0c
    5050:	fc 01       	movw	r30, r24
    5052:	87 a9       	ldd	r24, Z+55	; 0x37
    5054:	90 ad       	ldd	r25, Z+56	; 0x38
    5056:	a1 ad       	ldd	r26, Z+57	; 0x39
    5058:	b2 ad       	ldd	r27, Z+58	; 0x3a
    505a:	bc 01       	movw	r22, r24
    505c:	49 81       	ldd	r20, Y+1	; 0x01
    505e:	5a 81       	ldd	r21, Y+2	; 0x02
    5060:	64 9f       	mul	r22, r20
    5062:	c0 01       	movw	r24, r0
    5064:	65 9f       	mul	r22, r21
    5066:	90 0d       	add	r25, r0
    5068:	74 9f       	mul	r23, r20
    506a:	90 0d       	add	r25, r0
    506c:	11 24       	eor	r1, r1
    506e:	28 1b       	sub	r18, r24
    5070:	39 0b       	sbc	r19, r25
    5072:	8b 85       	ldd	r24, Y+11	; 0x0b
    5074:	9c 85       	ldd	r25, Y+12	; 0x0c
    5076:	fc 01       	movw	r30, r24
    5078:	34 af       	std	Z+60, r19	; 0x3c
    507a:	23 af       	std	Z+59, r18	; 0x3b
    507c:	0e 94 dc 1e 	call	0x3db8	; 0x3db8 <getMicros>
    5080:	dc 01       	movw	r26, r24
    5082:	cb 01       	movw	r24, r22
    5084:	2b 85       	ldd	r18, Y+11	; 0x0b
    5086:	3c 85       	ldd	r19, Y+12	; 0x0c
    5088:	23 5c       	subi	r18, 0xC3	; 195
    508a:	3f 4f       	sbci	r19, 0xFF	; 255
    508c:	f9 01       	movw	r30, r18
    508e:	80 83       	st	Z, r24
    5090:	91 83       	std	Z+1, r25	; 0x01
    5092:	a2 83       	std	Z+2, r26	; 0x02
    5094:	b3 83       	std	Z+3, r27	; 0x03
    5096:	89 81       	ldd	r24, Y+1	; 0x01
    5098:	9a 81       	ldd	r25, Y+2	; 0x02
    509a:	2c 96       	adiw	r28, 0x0c	; 12
    509c:	0f b6       	in	r0, 0x3f	; 63
    509e:	f8 94       	cli
    50a0:	de bf       	out	0x3e, r29	; 62
    50a2:	0f be       	out	0x3f, r0	; 63
    50a4:	cd bf       	out	0x3d, r28	; 61
    50a6:	df 91       	pop	r29
    50a8:	cf 91       	pop	r28
    50aa:	1f 91       	pop	r17
    50ac:	0f 91       	pop	r16
    50ae:	ff 90       	pop	r15
    50b0:	ef 90       	pop	r14
    50b2:	08 95       	ret

000050b4 <getNextEvent>:
    50b4:	cf 93       	push	r28
    50b6:	df 93       	push	r29
    50b8:	00 d0       	rcall	.+0      	; 0x50ba <getNextEvent+0x6>
    50ba:	00 d0       	rcall	.+0      	; 0x50bc <getNextEvent+0x8>
    50bc:	cd b7       	in	r28, 0x3d	; 61
    50be:	de b7       	in	r29, 0x3e	; 62
    50c0:	9c 83       	std	Y+4, r25	; 0x04
    50c2:	8b 83       	std	Y+3, r24	; 0x03
    50c4:	8b 81       	ldd	r24, Y+3	; 0x03
    50c6:	9c 81       	ldd	r25, Y+4	; 0x04
    50c8:	8e 5b       	subi	r24, 0xBE	; 190
    50ca:	9f 4f       	sbci	r25, 0xFF	; 255
    50cc:	fc 01       	movw	r30, r24
    50ce:	80 81       	ld	r24, Z
    50d0:	88 23       	and	r24, r24
    50d2:	11 f0       	breq	.+4      	; 0x50d8 <getNextEvent+0x24>
    50d4:	80 e0       	ldi	r24, 0x00	; 0
    50d6:	27 c0       	rjmp	.+78     	; 0x5126 <getNextEvent+0x72>
    50d8:	8b 81       	ldd	r24, Y+3	; 0x03
    50da:	9c 81       	ldd	r25, Y+4	; 0x04
    50dc:	8f 5b       	subi	r24, 0xBF	; 191
    50de:	9f 4f       	sbci	r25, 0xFF	; 255
    50e0:	fc 01       	movw	r30, r24
    50e2:	80 81       	ld	r24, Z
    50e4:	88 23       	and	r24, r24
    50e6:	59 f4       	brne	.+22     	; 0x50fe <getNextEvent+0x4a>
    50e8:	8b 81       	ldd	r24, Y+3	; 0x03
    50ea:	9c 81       	ldd	r25, Y+4	; 0x04
    50ec:	0e 94 75 25 	call	0x4aea	; 0x4aea <synchTracks>
    50f0:	8b 81       	ldd	r24, Y+3	; 0x03
    50f2:	9c 81       	ldd	r25, Y+4	; 0x04
    50f4:	8f 5b       	subi	r24, 0xBF	; 191
    50f6:	9f 4f       	sbci	r25, 0xFF	; 255
    50f8:	21 e0       	ldi	r18, 0x01	; 1
    50fa:	fc 01       	movw	r30, r24
    50fc:	20 83       	st	Z, r18
    50fe:	8b 81       	ldd	r24, Y+3	; 0x03
    5100:	9c 81       	ldd	r25, Y+4	; 0x04
    5102:	0e 94 c3 27 	call	0x4f86	; 0x4f86 <tickClock>
    5106:	9a 83       	std	Y+2, r25	; 0x02
    5108:	89 83       	std	Y+1, r24	; 0x01
    510a:	89 81       	ldd	r24, Y+1	; 0x01
    510c:	9a 81       	ldd	r25, Y+2	; 0x02
    510e:	89 2b       	or	r24, r25
    5110:	11 f4       	brne	.+4      	; 0x5116 <getNextEvent+0x62>
    5112:	80 e0       	ldi	r24, 0x00	; 0
    5114:	08 c0       	rjmp	.+16     	; 0x5126 <getNextEvent+0x72>
    5116:	29 81       	ldd	r18, Y+1	; 0x01
    5118:	3a 81       	ldd	r19, Y+2	; 0x02
    511a:	8b 81       	ldd	r24, Y+3	; 0x03
    511c:	9c 81       	ldd	r25, Y+4	; 0x04
    511e:	b9 01       	movw	r22, r18
    5120:	0e 94 9a 28 	call	0x5134	; 0x5134 <processEvents>
    5124:	81 e0       	ldi	r24, 0x01	; 1
    5126:	0f 90       	pop	r0
    5128:	0f 90       	pop	r0
    512a:	0f 90       	pop	r0
    512c:	0f 90       	pop	r0
    512e:	df 91       	pop	r29
    5130:	cf 91       	pop	r28
    5132:	08 95       	ret

00005134 <processEvents>:
    5134:	cf 93       	push	r28
    5136:	df 93       	push	r29
    5138:	cd b7       	in	r28, 0x3d	; 61
    513a:	de b7       	in	r29, 0x3e	; 62
    513c:	28 97       	sbiw	r28, 0x08	; 8
    513e:	0f b6       	in	r0, 0x3f	; 63
    5140:	f8 94       	cli
    5142:	de bf       	out	0x3e, r29	; 62
    5144:	0f be       	out	0x3f, r0	; 63
    5146:	cd bf       	out	0x3d, r28	; 61
    5148:	9e 83       	std	Y+6, r25	; 0x06
    514a:	8d 83       	std	Y+5, r24	; 0x05
    514c:	78 87       	std	Y+8, r23	; 0x08
    514e:	6f 83       	std	Y+7, r22	; 0x07
    5150:	19 82       	std	Y+1, r1	; 0x01
    5152:	3c c0       	rjmp	.+120    	; 0x51cc <processEvents+0x98>
    5154:	1a 82       	std	Y+2, r1	; 0x02
    5156:	1b 82       	std	Y+3, r1	; 0x03
    5158:	2c c0       	rjmp	.+88     	; 0x51b2 <processEvents+0x7e>
    515a:	89 81       	ldd	r24, Y+1	; 0x01
    515c:	88 23       	and	r24, r24
    515e:	19 f4       	brne	.+6      	; 0x5166 <processEvents+0x32>
    5160:	4f 81       	ldd	r20, Y+7	; 0x07
    5162:	58 85       	ldd	r21, Y+8	; 0x08
    5164:	02 c0       	rjmp	.+4      	; 0x516a <processEvents+0x36>
    5166:	40 e0       	ldi	r20, 0x00	; 0
    5168:	50 e0       	ldi	r21, 0x00	; 0
    516a:	8b 81       	ldd	r24, Y+3	; 0x03
    516c:	28 2f       	mov	r18, r24
    516e:	30 e0       	ldi	r19, 0x00	; 0
    5170:	69 e1       	ldi	r22, 0x19	; 25
    5172:	62 9f       	mul	r22, r18
    5174:	c0 01       	movw	r24, r0
    5176:	63 9f       	mul	r22, r19
    5178:	90 0d       	add	r25, r0
    517a:	11 24       	eor	r1, r1
    517c:	85 5b       	subi	r24, 0xB5	; 181
    517e:	9f 4f       	sbci	r25, 0xFF	; 255
    5180:	2d 81       	ldd	r18, Y+5	; 0x05
    5182:	3e 81       	ldd	r19, Y+6	; 0x06
    5184:	28 0f       	add	r18, r24
    5186:	39 1f       	adc	r19, r25
    5188:	8d 81       	ldd	r24, Y+5	; 0x05
    518a:	9e 81       	ldd	r25, Y+6	; 0x06
    518c:	b9 01       	movw	r22, r18
    518e:	0e 94 93 2b 	call	0x5726	; 0x5726 <getNextTrackEvent>
    5192:	8c 83       	std	Y+4, r24	; 0x04
    5194:	8a 81       	ldd	r24, Y+2	; 0x02
    5196:	88 23       	and	r24, r24
    5198:	19 f4       	brne	.+6      	; 0x51a0 <processEvents+0x6c>
    519a:	8c 81       	ldd	r24, Y+4	; 0x04
    519c:	88 23       	and	r24, r24
    519e:	19 f0       	breq	.+6      	; 0x51a6 <processEvents+0x72>
    51a0:	81 e0       	ldi	r24, 0x01	; 1
    51a2:	90 e0       	ldi	r25, 0x00	; 0
    51a4:	02 c0       	rjmp	.+4      	; 0x51aa <processEvents+0x76>
    51a6:	80 e0       	ldi	r24, 0x00	; 0
    51a8:	90 e0       	ldi	r25, 0x00	; 0
    51aa:	8a 83       	std	Y+2, r24	; 0x02
    51ac:	8b 81       	ldd	r24, Y+3	; 0x03
    51ae:	8f 5f       	subi	r24, 0xFF	; 255
    51b0:	8b 83       	std	Y+3, r24	; 0x03
    51b2:	8d 81       	ldd	r24, Y+5	; 0x05
    51b4:	9e 81       	ldd	r25, Y+6	; 0x06
    51b6:	fc 01       	movw	r30, r24
    51b8:	94 a9       	ldd	r25, Z+52	; 0x34
    51ba:	8b 81       	ldd	r24, Y+3	; 0x03
    51bc:	89 17       	cp	r24, r25
    51be:	68 f2       	brcs	.-102    	; 0x515a <processEvents+0x26>
    51c0:	8a 81       	ldd	r24, Y+2	; 0x02
    51c2:	88 23       	and	r24, r24
    51c4:	59 f0       	breq	.+22     	; 0x51dc <processEvents+0xa8>
    51c6:	89 81       	ldd	r24, Y+1	; 0x01
    51c8:	8f 5f       	subi	r24, 0xFF	; 255
    51ca:	89 83       	std	Y+1, r24	; 0x01
    51cc:	89 81       	ldd	r24, Y+1	; 0x01
    51ce:	84 36       	cpi	r24, 0x64	; 100
    51d0:	30 f4       	brcc	.+12     	; 0x51de <processEvents+0xaa>
    51d2:	8a 81       	ldd	r24, Y+2	; 0x02
    51d4:	88 23       	and	r24, r24
    51d6:	09 f4       	brne	.+2      	; 0x51da <processEvents+0xa6>
    51d8:	bd cf       	rjmp	.-134    	; 0x5154 <processEvents+0x20>
    51da:	01 c0       	rjmp	.+2      	; 0x51de <processEvents+0xaa>
    51dc:	00 00       	nop
    51de:	00 00       	nop
    51e0:	28 96       	adiw	r28, 0x08	; 8
    51e2:	0f b6       	in	r0, 0x3f	; 63
    51e4:	f8 94       	cli
    51e6:	de bf       	out	0x3e, r29	; 62
    51e8:	0f be       	out	0x3f, r0	; 63
    51ea:	cd bf       	out	0x3d, r28	; 61
    51ec:	df 91       	pop	r29
    51ee:	cf 91       	pop	r28
    51f0:	08 95       	ret

000051f2 <loadMIDIFile>:
    51f2:	cf 93       	push	r28
    51f4:	df 93       	push	r29
    51f6:	cd b7       	in	r28, 0x3d	; 61
    51f8:	de b7       	in	r29, 0x3e	; 62
    51fa:	65 97       	sbiw	r28, 0x15	; 21
    51fc:	0f b6       	in	r0, 0x3f	; 63
    51fe:	f8 94       	cli
    5200:	de bf       	out	0x3e, r29	; 62
    5202:	0f be       	out	0x3f, r0	; 63
    5204:	cd bf       	out	0x3d, r28	; 61
    5206:	9d 8b       	std	Y+21, r25	; 0x15
    5208:	8c 8b       	std	Y+20, r24	; 0x14
    520a:	8c 89       	ldd	r24, Y+20	; 0x14
    520c:	9d 89       	ldd	r25, Y+21	; 0x15
    520e:	fc 01       	movw	r30, r24
    5210:	86 a1       	ldd	r24, Z+38	; 0x26
    5212:	88 23       	and	r24, r24
    5214:	19 f4       	brne	.+6      	; 0x521c <loadMIDIFile+0x2a>
    5216:	80 e0       	ldi	r24, 0x00	; 0
    5218:	90 e0       	ldi	r25, 0x00	; 0
    521a:	39 c1       	rjmp	.+626    	; 0x548e <loadMIDIFile+0x29c>
    521c:	8c 89       	ldd	r24, Y+20	; 0x14
    521e:	9d 89       	ldd	r25, Y+21	; 0x15
    5220:	9c 01       	movw	r18, r24
    5222:	2a 5d       	subi	r18, 0xDA	; 218
    5224:	3f 4f       	sbci	r19, 0xFF	; 255
    5226:	8c 89       	ldd	r24, Y+20	; 0x14
    5228:	9d 89       	ldd	r25, Y+21	; 0x15
    522a:	06 96       	adiw	r24, 0x06	; 6
    522c:	41 e0       	ldi	r20, 0x01	; 1
    522e:	b9 01       	movw	r22, r18
    5230:	0e 94 f3 15 	call	0x2be6	; 0x2be6 <f_open>
    5234:	8e 83       	std	Y+6, r24	; 0x06
    5236:	8e 81       	ldd	r24, Y+6	; 0x06
    5238:	88 23       	and	r24, r24
    523a:	19 f0       	breq	.+6      	; 0x5242 <loadMIDIFile+0x50>
    523c:	82 e0       	ldi	r24, 0x02	; 2
    523e:	90 e0       	ldi	r25, 0x00	; 0
    5240:	26 c1       	rjmp	.+588    	; 0x548e <loadMIDIFile+0x29c>
    5242:	8c 89       	ldd	r24, Y+20	; 0x14
    5244:	9d 89       	ldd	r25, Y+21	; 0x15
    5246:	06 96       	adiw	r24, 0x06	; 6
    5248:	9e 01       	movw	r18, r28
    524a:	25 5f       	subi	r18, 0xF5	; 245
    524c:	3f 4f       	sbci	r19, 0xFF	; 255
    524e:	be 01       	movw	r22, r28
    5250:	61 5f       	subi	r22, 0xF1	; 241
    5252:	7f 4f       	sbci	r23, 0xFF	; 255
    5254:	44 e0       	ldi	r20, 0x04	; 4
    5256:	50 e0       	ldi	r21, 0x00	; 0
    5258:	0e 94 a8 17 	call	0x2f50	; 0x2f50 <f_read>
    525c:	1b 8a       	std	Y+19, r1	; 0x13
    525e:	ce 01       	movw	r24, r28
    5260:	0f 96       	adiw	r24, 0x0f	; 15
    5262:	6d ea       	ldi	r22, 0xAD	; 173
    5264:	70 e0       	ldi	r23, 0x00	; 0
    5266:	0e 94 c6 3e 	call	0x7d8c	; 0x7d8c <strcmp>
    526a:	89 2b       	or	r24, r25
    526c:	41 f0       	breq	.+16     	; 0x527e <loadMIDIFile+0x8c>
    526e:	8c 89       	ldd	r24, Y+20	; 0x14
    5270:	9d 89       	ldd	r25, Y+21	; 0x15
    5272:	06 96       	adiw	r24, 0x06	; 6
    5274:	0e 94 00 1b 	call	0x3600	; 0x3600 <f_close>
    5278:	83 e0       	ldi	r24, 0x03	; 3
    527a:	90 e0       	ldi	r25, 0x00	; 0
    527c:	08 c1       	rjmp	.+528    	; 0x548e <loadMIDIFile+0x29c>
    527e:	8c 89       	ldd	r24, Y+20	; 0x14
    5280:	9d 89       	ldd	r25, Y+21	; 0x15
    5282:	06 96       	adiw	r24, 0x06	; 6
    5284:	64 e0       	ldi	r22, 0x04	; 4
    5286:	0e 94 6e 2a 	call	0x54dc	; 0x54dc <readMultiByte>
    528a:	dc 01       	movw	r26, r24
    528c:	cb 01       	movw	r24, r22
    528e:	8b 87       	std	Y+11, r24	; 0x0b
    5290:	9c 87       	std	Y+12, r25	; 0x0c
    5292:	ad 87       	std	Y+13, r26	; 0x0d
    5294:	be 87       	std	Y+14, r27	; 0x0e
    5296:	8b 85       	ldd	r24, Y+11	; 0x0b
    5298:	9c 85       	ldd	r25, Y+12	; 0x0c
    529a:	ad 85       	ldd	r26, Y+13	; 0x0d
    529c:	be 85       	ldd	r27, Y+14	; 0x0e
    529e:	06 97       	sbiw	r24, 0x06	; 6
    52a0:	a1 05       	cpc	r26, r1
    52a2:	b1 05       	cpc	r27, r1
    52a4:	41 f0       	breq	.+16     	; 0x52b6 <loadMIDIFile+0xc4>
    52a6:	8c 89       	ldd	r24, Y+20	; 0x14
    52a8:	9d 89       	ldd	r25, Y+21	; 0x15
    52aa:	06 96       	adiw	r24, 0x06	; 6
    52ac:	0e 94 00 1b 	call	0x3600	; 0x3600 <f_close>
    52b0:	84 e0       	ldi	r24, 0x04	; 4
    52b2:	90 e0       	ldi	r25, 0x00	; 0
    52b4:	ec c0       	rjmp	.+472    	; 0x548e <loadMIDIFile+0x29c>
    52b6:	8c 89       	ldd	r24, Y+20	; 0x14
    52b8:	9d 89       	ldd	r25, Y+21	; 0x15
    52ba:	06 96       	adiw	r24, 0x06	; 6
    52bc:	62 e0       	ldi	r22, 0x02	; 2
    52be:	0e 94 6e 2a 	call	0x54dc	; 0x54dc <readMultiByte>
    52c2:	dc 01       	movw	r26, r24
    52c4:	cb 01       	movw	r24, r22
    52c6:	9a 83       	std	Y+2, r25	; 0x02
    52c8:	89 83       	std	Y+1, r24	; 0x01
    52ca:	89 81       	ldd	r24, Y+1	; 0x01
    52cc:	9a 81       	ldd	r25, Y+2	; 0x02
    52ce:	89 2b       	or	r24, r25
    52d0:	61 f0       	breq	.+24     	; 0x52ea <loadMIDIFile+0xf8>
    52d2:	89 81       	ldd	r24, Y+1	; 0x01
    52d4:	9a 81       	ldd	r25, Y+2	; 0x02
    52d6:	01 97       	sbiw	r24, 0x01	; 1
    52d8:	41 f0       	breq	.+16     	; 0x52ea <loadMIDIFile+0xf8>
    52da:	8c 89       	ldd	r24, Y+20	; 0x14
    52dc:	9d 89       	ldd	r25, Y+21	; 0x15
    52de:	06 96       	adiw	r24, 0x06	; 6
    52e0:	0e 94 00 1b 	call	0x3600	; 0x3600 <f_close>
    52e4:	85 e0       	ldi	r24, 0x05	; 5
    52e6:	90 e0       	ldi	r25, 0x00	; 0
    52e8:	d2 c0       	rjmp	.+420    	; 0x548e <loadMIDIFile+0x29c>
    52ea:	29 81       	ldd	r18, Y+1	; 0x01
    52ec:	8c 89       	ldd	r24, Y+20	; 0x14
    52ee:	9d 89       	ldd	r25, Y+21	; 0x15
    52f0:	fc 01       	movw	r30, r24
    52f2:	23 ab       	std	Z+51, r18	; 0x33
    52f4:	8c 89       	ldd	r24, Y+20	; 0x14
    52f6:	9d 89       	ldd	r25, Y+21	; 0x15
    52f8:	06 96       	adiw	r24, 0x06	; 6
    52fa:	62 e0       	ldi	r22, 0x02	; 2
    52fc:	0e 94 6e 2a 	call	0x54dc	; 0x54dc <readMultiByte>
    5300:	dc 01       	movw	r26, r24
    5302:	cb 01       	movw	r24, r22
    5304:	9a 83       	std	Y+2, r25	; 0x02
    5306:	89 83       	std	Y+1, r24	; 0x01
    5308:	8c 89       	ldd	r24, Y+20	; 0x14
    530a:	9d 89       	ldd	r25, Y+21	; 0x15
    530c:	fc 01       	movw	r30, r24
    530e:	83 a9       	ldd	r24, Z+51	; 0x33
    5310:	88 23       	and	r24, r24
    5312:	61 f4       	brne	.+24     	; 0x532c <loadMIDIFile+0x13a>
    5314:	89 81       	ldd	r24, Y+1	; 0x01
    5316:	9a 81       	ldd	r25, Y+2	; 0x02
    5318:	01 97       	sbiw	r24, 0x01	; 1
    531a:	41 f0       	breq	.+16     	; 0x532c <loadMIDIFile+0x13a>
    531c:	8c 89       	ldd	r24, Y+20	; 0x14
    531e:	9d 89       	ldd	r25, Y+21	; 0x15
    5320:	06 96       	adiw	r24, 0x06	; 6
    5322:	0e 94 00 1b 	call	0x3600	; 0x3600 <f_close>
    5326:	86 e0       	ldi	r24, 0x06	; 6
    5328:	90 e0       	ldi	r25, 0x00	; 0
    532a:	b1 c0       	rjmp	.+354    	; 0x548e <loadMIDIFile+0x29c>
    532c:	89 81       	ldd	r24, Y+1	; 0x01
    532e:	9a 81       	ldd	r25, Y+2	; 0x02
    5330:	41 97       	sbiw	r24, 0x11	; 17
    5332:	40 f0       	brcs	.+16     	; 0x5344 <loadMIDIFile+0x152>
    5334:	8c 89       	ldd	r24, Y+20	; 0x14
    5336:	9d 89       	ldd	r25, Y+21	; 0x15
    5338:	06 96       	adiw	r24, 0x06	; 6
    533a:	0e 94 00 1b 	call	0x3600	; 0x3600 <f_close>
    533e:	87 e0       	ldi	r24, 0x07	; 7
    5340:	90 e0       	ldi	r25, 0x00	; 0
    5342:	a5 c0       	rjmp	.+330    	; 0x548e <loadMIDIFile+0x29c>
    5344:	29 81       	ldd	r18, Y+1	; 0x01
    5346:	8c 89       	ldd	r24, Y+20	; 0x14
    5348:	9d 89       	ldd	r25, Y+21	; 0x15
    534a:	fc 01       	movw	r30, r24
    534c:	24 ab       	std	Z+52, r18	; 0x34
    534e:	8c 89       	ldd	r24, Y+20	; 0x14
    5350:	9d 89       	ldd	r25, Y+21	; 0x15
    5352:	06 96       	adiw	r24, 0x06	; 6
    5354:	62 e0       	ldi	r22, 0x02	; 2
    5356:	0e 94 6e 2a 	call	0x54dc	; 0x54dc <readMultiByte>
    535a:	dc 01       	movw	r26, r24
    535c:	cb 01       	movw	r24, r22
    535e:	9a 83       	std	Y+2, r25	; 0x02
    5360:	89 83       	std	Y+1, r24	; 0x01
    5362:	89 81       	ldd	r24, Y+1	; 0x01
    5364:	9a 81       	ldd	r25, Y+2	; 0x02
    5366:	99 23       	and	r25, r25
    5368:	0c f0       	brlt	.+2      	; 0x536c <loadMIDIFile+0x17a>
    536a:	46 c0       	rjmp	.+140    	; 0x53f8 <loadMIDIFile+0x206>
    536c:	89 81       	ldd	r24, Y+1	; 0x01
    536e:	9a 81       	ldd	r25, Y+2	; 0x02
    5370:	89 2f       	mov	r24, r25
    5372:	99 27       	eor	r25, r25
    5374:	9c 83       	std	Y+4, r25	; 0x04
    5376:	8b 83       	std	Y+3, r24	; 0x03
    5378:	89 81       	ldd	r24, Y+1	; 0x01
    537a:	9a 81       	ldd	r25, Y+2	; 0x02
    537c:	99 27       	eor	r25, r25
    537e:	98 87       	std	Y+8, r25	; 0x08
    5380:	8f 83       	std	Y+7, r24	; 0x07
    5382:	8b 81       	ldd	r24, Y+3	; 0x03
    5384:	9c 81       	ldd	r25, Y+4	; 0x04
    5386:	83 3e       	cpi	r24, 0xE3	; 227
    5388:	91 05       	cpc	r25, r1
    538a:	b9 f0       	breq	.+46     	; 0x53ba <loadMIDIFile+0x1c8>
    538c:	84 3e       	cpi	r24, 0xE4	; 228
    538e:	91 05       	cpc	r25, r1
    5390:	24 f4       	brge	.+8      	; 0x539a <loadMIDIFile+0x1a8>
    5392:	82 3e       	cpi	r24, 0xE2	; 226
    5394:	91 05       	cpc	r25, r1
    5396:	b1 f0       	breq	.+44     	; 0x53c4 <loadMIDIFile+0x1d2>
    5398:	1a c0       	rjmp	.+52     	; 0x53ce <loadMIDIFile+0x1dc>
    539a:	87 3e       	cpi	r24, 0xE7	; 231
    539c:	91 05       	cpc	r25, r1
    539e:	41 f0       	breq	.+16     	; 0x53b0 <loadMIDIFile+0x1be>
    53a0:	88 3e       	cpi	r24, 0xE8	; 232
    53a2:	91 05       	cpc	r25, r1
    53a4:	a1 f4       	brne	.+40     	; 0x53ce <loadMIDIFile+0x1dc>
    53a6:	88 e1       	ldi	r24, 0x18	; 24
    53a8:	90 e0       	ldi	r25, 0x00	; 0
    53aa:	9c 83       	std	Y+4, r25	; 0x04
    53ac:	8b 83       	std	Y+3, r24	; 0x03
    53ae:	17 c0       	rjmp	.+46     	; 0x53de <loadMIDIFile+0x1ec>
    53b0:	89 e1       	ldi	r24, 0x19	; 25
    53b2:	90 e0       	ldi	r25, 0x00	; 0
    53b4:	9c 83       	std	Y+4, r25	; 0x04
    53b6:	8b 83       	std	Y+3, r24	; 0x03
    53b8:	12 c0       	rjmp	.+36     	; 0x53de <loadMIDIFile+0x1ec>
    53ba:	8d e1       	ldi	r24, 0x1D	; 29
    53bc:	90 e0       	ldi	r25, 0x00	; 0
    53be:	9c 83       	std	Y+4, r25	; 0x04
    53c0:	8b 83       	std	Y+3, r24	; 0x03
    53c2:	0d c0       	rjmp	.+26     	; 0x53de <loadMIDIFile+0x1ec>
    53c4:	8e e1       	ldi	r24, 0x1E	; 30
    53c6:	90 e0       	ldi	r25, 0x00	; 0
    53c8:	9c 83       	std	Y+4, r25	; 0x04
    53ca:	8b 83       	std	Y+3, r24	; 0x03
    53cc:	08 c0       	rjmp	.+16     	; 0x53de <loadMIDIFile+0x1ec>
    53ce:	8c 89       	ldd	r24, Y+20	; 0x14
    53d0:	9d 89       	ldd	r25, Y+21	; 0x15
    53d2:	06 96       	adiw	r24, 0x06	; 6
    53d4:	0e 94 00 1b 	call	0x3600	; 0x3600 <f_close>
    53d8:	87 e0       	ldi	r24, 0x07	; 7
    53da:	90 e0       	ldi	r25, 0x00	; 0
    53dc:	58 c0       	rjmp	.+176    	; 0x548e <loadMIDIFile+0x29c>
    53de:	4b 81       	ldd	r20, Y+3	; 0x03
    53e0:	5c 81       	ldd	r21, Y+4	; 0x04
    53e2:	2f 81       	ldd	r18, Y+7	; 0x07
    53e4:	38 85       	ldd	r19, Y+8	; 0x08
    53e6:	42 9f       	mul	r20, r18
    53e8:	c0 01       	movw	r24, r0
    53ea:	43 9f       	mul	r20, r19
    53ec:	90 0d       	add	r25, r0
    53ee:	52 9f       	mul	r21, r18
    53f0:	90 0d       	add	r25, r0
    53f2:	11 24       	eor	r1, r1
    53f4:	9a 83       	std	Y+2, r25	; 0x02
    53f6:	89 83       	std	Y+1, r24	; 0x01
    53f8:	8c 89       	ldd	r24, Y+20	; 0x14
    53fa:	9d 89       	ldd	r25, Y+21	; 0x15
    53fc:	29 81       	ldd	r18, Y+1	; 0x01
    53fe:	3a 81       	ldd	r19, Y+2	; 0x02
    5400:	fc 01       	movw	r30, r24
    5402:	36 ab       	std	Z+54, r19	; 0x36
    5404:	25 ab       	std	Z+53, r18	; 0x35
    5406:	8c 89       	ldd	r24, Y+20	; 0x14
    5408:	9d 89       	ldd	r25, Y+21	; 0x15
    540a:	0e 94 c0 26 	call	0x4d80	; 0x4d80 <calcTickTime>
    540e:	1d 82       	std	Y+5, r1	; 0x05
    5410:	35 c0       	rjmp	.+106    	; 0x547c <loadMIDIFile+0x28a>
    5412:	8d 81       	ldd	r24, Y+5	; 0x05
    5414:	28 2f       	mov	r18, r24
    5416:	30 e0       	ldi	r19, 0x00	; 0
    5418:	49 e1       	ldi	r20, 0x19	; 25
    541a:	42 9f       	mul	r20, r18
    541c:	c0 01       	movw	r24, r0
    541e:	43 9f       	mul	r20, r19
    5420:	90 0d       	add	r25, r0
    5422:	11 24       	eor	r1, r1
    5424:	85 5b       	subi	r24, 0xB5	; 181
    5426:	9f 4f       	sbci	r25, 0xFF	; 255
    5428:	2c 89       	ldd	r18, Y+20	; 0x14
    542a:	3d 89       	ldd	r19, Y+21	; 0x15
    542c:	82 0f       	add	r24, r18
    542e:	93 1f       	adc	r25, r19
    5430:	2c 89       	ldd	r18, Y+20	; 0x14
    5432:	3d 89       	ldd	r19, Y+21	; 0x15
    5434:	a9 01       	movw	r20, r18
    5436:	6d 81       	ldd	r22, Y+5	; 0x05
    5438:	0e 94 2f 31 	call	0x625e	; 0x625e <loadTrack>
    543c:	9a 87       	std	Y+10, r25	; 0x0a
    543e:	89 87       	std	Y+9, r24	; 0x09
    5440:	89 85       	ldd	r24, Y+9	; 0x09
    5442:	9a 85       	ldd	r25, Y+10	; 0x0a
    5444:	01 96       	adiw	r24, 0x01	; 1
    5446:	b9 f0       	breq	.+46     	; 0x5476 <loadMIDIFile+0x284>
    5448:	8c 89       	ldd	r24, Y+20	; 0x14
    544a:	9d 89       	ldd	r25, Y+21	; 0x15
    544c:	06 96       	adiw	r24, 0x06	; 6
    544e:	0e 94 00 1b 	call	0x3600	; 0x3600 <f_close>
    5452:	8d 81       	ldd	r24, Y+5	; 0x05
    5454:	88 2f       	mov	r24, r24
    5456:	90 e0       	ldi	r25, 0x00	; 0
    5458:	01 96       	adiw	r24, 0x01	; 1
    545a:	88 0f       	add	r24, r24
    545c:	99 1f       	adc	r25, r25
    545e:	9c 01       	movw	r18, r24
    5460:	22 0f       	add	r18, r18
    5462:	33 1f       	adc	r19, r19
    5464:	22 0f       	add	r18, r18
    5466:	33 1f       	adc	r19, r19
    5468:	28 0f       	add	r18, r24
    546a:	39 1f       	adc	r19, r25
    546c:	89 85       	ldd	r24, Y+9	; 0x09
    546e:	9a 85       	ldd	r25, Y+10	; 0x0a
    5470:	82 0f       	add	r24, r18
    5472:	93 1f       	adc	r25, r19
    5474:	0c c0       	rjmp	.+24     	; 0x548e <loadMIDIFile+0x29c>
    5476:	8d 81       	ldd	r24, Y+5	; 0x05
    5478:	8f 5f       	subi	r24, 0xFF	; 255
    547a:	8d 83       	std	Y+5, r24	; 0x05
    547c:	8c 89       	ldd	r24, Y+20	; 0x14
    547e:	9d 89       	ldd	r25, Y+21	; 0x15
    5480:	fc 01       	movw	r30, r24
    5482:	94 a9       	ldd	r25, Z+52	; 0x34
    5484:	8d 81       	ldd	r24, Y+5	; 0x05
    5486:	89 17       	cp	r24, r25
    5488:	20 f2       	brcs	.-120    	; 0x5412 <loadMIDIFile+0x220>
    548a:	8f ef       	ldi	r24, 0xFF	; 255
    548c:	9f ef       	ldi	r25, 0xFF	; 255
    548e:	65 96       	adiw	r28, 0x15	; 21
    5490:	0f b6       	in	r0, 0x3f	; 63
    5492:	f8 94       	cli
    5494:	de bf       	out	0x3e, r29	; 62
    5496:	0f be       	out	0x3f, r0	; 63
    5498:	cd bf       	out	0x3d, r28	; 61
    549a:	df 91       	pop	r29
    549c:	cf 91       	pop	r28
    549e:	08 95       	ret

000054a0 <setFilename>:

void setFilename(struct MD_MIDIFile *m,const char* aname) 
{ 
    54a0:	cf 93       	push	r28
    54a2:	df 93       	push	r29
    54a4:	00 d0       	rcall	.+0      	; 0x54a6 <setFilename+0x6>
    54a6:	00 d0       	rcall	.+0      	; 0x54a8 <setFilename+0x8>
    54a8:	cd b7       	in	r28, 0x3d	; 61
    54aa:	de b7       	in	r29, 0x3e	; 62
    54ac:	9a 83       	std	Y+2, r25	; 0x02
    54ae:	89 83       	std	Y+1, r24	; 0x01
    54b0:	7c 83       	std	Y+4, r23	; 0x04
    54b2:	6b 83       	std	Y+3, r22	; 0x03
	if (aname != NULL) strcpy(m->_fileName, aname); 
    54b4:	8b 81       	ldd	r24, Y+3	; 0x03
    54b6:	9c 81       	ldd	r25, Y+4	; 0x04
    54b8:	89 2b       	or	r24, r25
    54ba:	41 f0       	breq	.+16     	; 0x54cc <setFilename+0x2c>
    54bc:	89 81       	ldd	r24, Y+1	; 0x01
    54be:	9a 81       	ldd	r25, Y+2	; 0x02
    54c0:	86 96       	adiw	r24, 0x26	; 38
    54c2:	2b 81       	ldd	r18, Y+3	; 0x03
    54c4:	3c 81       	ldd	r19, Y+4	; 0x04
    54c6:	b9 01       	movw	r22, r18
    54c8:	0e 94 cf 3e 	call	0x7d9e	; 0x7d9e <strcpy>
}	
    54cc:	00 00       	nop
    54ce:	0f 90       	pop	r0
    54d0:	0f 90       	pop	r0
    54d2:	0f 90       	pop	r0
    54d4:	0f 90       	pop	r0
    54d6:	df 91       	pop	r29
    54d8:	cf 91       	pop	r28
    54da:	08 95       	ret

000054dc <readMultiByte>:
 * \brief Main file for helper functions implementation
 */

uint32_t readMultiByte(FIL *f, uint8_t nLen)
// read fixed length parameter from input
{
    54dc:	cf 93       	push	r28
    54de:	df 93       	push	r29
    54e0:	cd b7       	in	r28, 0x3d	; 61
    54e2:	de b7       	in	r29, 0x3e	; 62
    54e4:	2b 97       	sbiw	r28, 0x0b	; 11
    54e6:	0f b6       	in	r0, 0x3f	; 63
    54e8:	f8 94       	cli
    54ea:	de bf       	out	0x3e, r29	; 62
    54ec:	0f be       	out	0x3f, r0	; 63
    54ee:	cd bf       	out	0x3d, r28	; 61
    54f0:	9a 87       	std	Y+10, r25	; 0x0a
    54f2:	89 87       	std	Y+9, r24	; 0x09
    54f4:	6b 87       	std	Y+11, r22	; 0x0b
  uint32_t  value = 0L;
    54f6:	19 82       	std	Y+1, r1	; 0x01
    54f8:	1a 82       	std	Y+2, r1	; 0x02
    54fa:	1b 82       	std	Y+3, r1	; 0x03
    54fc:	1c 82       	std	Y+4, r1	; 0x04
  uint8_t c;
  UINT d;
  for (uint8_t i=0; i<nLen; i++)
    54fe:	1d 82       	std	Y+5, r1	; 0x05
    5500:	24 c0       	rjmp	.+72     	; 0x554a <readMultiByte+0x6e>
  {
    f_read(f,&c,1,&d);
    5502:	9e 01       	movw	r18, r28
    5504:	29 5f       	subi	r18, 0xF9	; 249
    5506:	3f 4f       	sbci	r19, 0xFF	; 255
    5508:	be 01       	movw	r22, r28
    550a:	6a 5f       	subi	r22, 0xFA	; 250
    550c:	7f 4f       	sbci	r23, 0xFF	; 255
    550e:	89 85       	ldd	r24, Y+9	; 0x09
    5510:	9a 85       	ldd	r25, Y+10	; 0x0a
    5512:	41 e0       	ldi	r20, 0x01	; 1
    5514:	50 e0       	ldi	r21, 0x00	; 0
    5516:	0e 94 a8 17 	call	0x2f50	; 0x2f50 <f_read>
	value = (value << 8) + c;
    551a:	89 81       	ldd	r24, Y+1	; 0x01
    551c:	9a 81       	ldd	r25, Y+2	; 0x02
    551e:	ab 81       	ldd	r26, Y+3	; 0x03
    5520:	bc 81       	ldd	r27, Y+4	; 0x04
    5522:	22 27       	eor	r18, r18
    5524:	38 2f       	mov	r19, r24
    5526:	49 2f       	mov	r20, r25
    5528:	5a 2f       	mov	r21, r26
    552a:	8e 81       	ldd	r24, Y+6	; 0x06
    552c:	88 2f       	mov	r24, r24
    552e:	90 e0       	ldi	r25, 0x00	; 0
    5530:	a0 e0       	ldi	r26, 0x00	; 0
    5532:	b0 e0       	ldi	r27, 0x00	; 0
    5534:	82 0f       	add	r24, r18
    5536:	93 1f       	adc	r25, r19
    5538:	a4 1f       	adc	r26, r20
    553a:	b5 1f       	adc	r27, r21
    553c:	89 83       	std	Y+1, r24	; 0x01
    553e:	9a 83       	std	Y+2, r25	; 0x02
    5540:	ab 83       	std	Y+3, r26	; 0x03
    5542:	bc 83       	std	Y+4, r27	; 0x04
// read fixed length parameter from input
{
  uint32_t  value = 0L;
  uint8_t c;
  UINT d;
  for (uint8_t i=0; i<nLen; i++)
    5544:	8d 81       	ldd	r24, Y+5	; 0x05
    5546:	8f 5f       	subi	r24, 0xFF	; 255
    5548:	8d 83       	std	Y+5, r24	; 0x05
    554a:	9d 81       	ldd	r25, Y+5	; 0x05
    554c:	8b 85       	ldd	r24, Y+11	; 0x0b
    554e:	98 17       	cp	r25, r24
    5550:	c0 f2       	brcs	.-80     	; 0x5502 <readMultiByte+0x26>
  {
    f_read(f,&c,1,&d);
	value = (value << 8) + c;
  }
  
  return(value);
    5552:	89 81       	ldd	r24, Y+1	; 0x01
    5554:	9a 81       	ldd	r25, Y+2	; 0x02
    5556:	ab 81       	ldd	r26, Y+3	; 0x03
    5558:	bc 81       	ldd	r27, Y+4	; 0x04
}
    555a:	bc 01       	movw	r22, r24
    555c:	cd 01       	movw	r24, r26
    555e:	2b 96       	adiw	r28, 0x0b	; 11
    5560:	0f b6       	in	r0, 0x3f	; 63
    5562:	f8 94       	cli
    5564:	de bf       	out	0x3e, r29	; 62
    5566:	0f be       	out	0x3f, r0	; 63
    5568:	cd bf       	out	0x3d, r28	; 61
    556a:	df 91       	pop	r29
    556c:	cf 91       	pop	r28
    556e:	08 95       	ret

00005570 <readVarLen>:

uint32_t readVarLen(FIL *f)
// read variable length parameter from input
{
    5570:	cf 93       	push	r28
    5572:	df 93       	push	r29
    5574:	cd b7       	in	r28, 0x3d	; 61
    5576:	de b7       	in	r29, 0x3e	; 62
    5578:	2a 97       	sbiw	r28, 0x0a	; 10
    557a:	0f b6       	in	r0, 0x3f	; 63
    557c:	f8 94       	cli
    557e:	de bf       	out	0x3e, r29	; 62
    5580:	0f be       	out	0x3f, r0	; 63
    5582:	cd bf       	out	0x3d, r28	; 61
    5584:	9a 87       	std	Y+10, r25	; 0x0a
    5586:	89 87       	std	Y+9, r24	; 0x09
  uint32_t  value = 0;
    5588:	19 82       	std	Y+1, r1	; 0x01
    558a:	1a 82       	std	Y+2, r1	; 0x02
    558c:	1b 82       	std	Y+3, r1	; 0x03
    558e:	1c 82       	std	Y+4, r1	; 0x04
  uint8_t      c;
  UINT d;
  FRESULT res;
  do
  {
    res = f_read(f,&c,1,&d);
    5590:	9e 01       	movw	r18, r28
    5592:	29 5f       	subi	r18, 0xF9	; 249
    5594:	3f 4f       	sbci	r19, 0xFF	; 255
    5596:	be 01       	movw	r22, r28
    5598:	6a 5f       	subi	r22, 0xFA	; 250
    559a:	7f 4f       	sbci	r23, 0xFF	; 255
    559c:	89 85       	ldd	r24, Y+9	; 0x09
    559e:	9a 85       	ldd	r25, Y+10	; 0x0a
    55a0:	41 e0       	ldi	r20, 0x01	; 1
    55a2:	50 e0       	ldi	r21, 0x00	; 0
    55a4:	0e 94 a8 17 	call	0x2f50	; 0x2f50 <f_read>
    55a8:	8d 83       	std	Y+5, r24	; 0x05
    value = (value << 7) + (c & 0x7f);
    55aa:	89 81       	ldd	r24, Y+1	; 0x01
    55ac:	9a 81       	ldd	r25, Y+2	; 0x02
    55ae:	ab 81       	ldd	r26, Y+3	; 0x03
    55b0:	bc 81       	ldd	r27, Y+4	; 0x04
    55b2:	88 0f       	add	r24, r24
    55b4:	99 1f       	adc	r25, r25
    55b6:	aa 1f       	adc	r26, r26
    55b8:	bb 1f       	adc	r27, r27
    55ba:	88 0f       	add	r24, r24
    55bc:	99 1f       	adc	r25, r25
    55be:	aa 1f       	adc	r26, r26
    55c0:	bb 1f       	adc	r27, r27
    55c2:	88 0f       	add	r24, r24
    55c4:	99 1f       	adc	r25, r25
    55c6:	aa 1f       	adc	r26, r26
    55c8:	bb 1f       	adc	r27, r27
    55ca:	88 0f       	add	r24, r24
    55cc:	99 1f       	adc	r25, r25
    55ce:	aa 1f       	adc	r26, r26
    55d0:	bb 1f       	adc	r27, r27
    55d2:	88 0f       	add	r24, r24
    55d4:	99 1f       	adc	r25, r25
    55d6:	aa 1f       	adc	r26, r26
    55d8:	bb 1f       	adc	r27, r27
    55da:	88 0f       	add	r24, r24
    55dc:	99 1f       	adc	r25, r25
    55de:	aa 1f       	adc	r26, r26
    55e0:	bb 1f       	adc	r27, r27
    55e2:	88 0f       	add	r24, r24
    55e4:	99 1f       	adc	r25, r25
    55e6:	aa 1f       	adc	r26, r26
    55e8:	bb 1f       	adc	r27, r27
    55ea:	9c 01       	movw	r18, r24
    55ec:	ad 01       	movw	r20, r26
    55ee:	8e 81       	ldd	r24, Y+6	; 0x06
    55f0:	88 2f       	mov	r24, r24
    55f2:	90 e0       	ldi	r25, 0x00	; 0
    55f4:	a0 e0       	ldi	r26, 0x00	; 0
    55f6:	b0 e0       	ldi	r27, 0x00	; 0
    55f8:	8f 77       	andi	r24, 0x7F	; 127
    55fa:	99 27       	eor	r25, r25
    55fc:	aa 27       	eor	r26, r26
    55fe:	bb 27       	eor	r27, r27
    5600:	82 0f       	add	r24, r18
    5602:	93 1f       	adc	r25, r19
    5604:	a4 1f       	adc	r26, r20
    5606:	b5 1f       	adc	r27, r21
    5608:	89 83       	std	Y+1, r24	; 0x01
    560a:	9a 83       	std	Y+2, r25	; 0x02
    560c:	ab 83       	std	Y+3, r26	; 0x03
    560e:	bc 83       	std	Y+4, r27	; 0x04
  }  while (c & 0x80);
    5610:	8e 81       	ldd	r24, Y+6	; 0x06
    5612:	88 23       	and	r24, r24
    5614:	0c f4       	brge	.+2      	; 0x5618 <readVarLen+0xa8>
    5616:	bc cf       	rjmp	.-136    	; 0x5590 <readVarLen+0x20>
  
  return(value);
    5618:	89 81       	ldd	r24, Y+1	; 0x01
    561a:	9a 81       	ldd	r25, Y+2	; 0x02
    561c:	ab 81       	ldd	r26, Y+3	; 0x03
    561e:	bc 81       	ldd	r27, Y+4	; 0x04
}
    5620:	bc 01       	movw	r22, r24
    5622:	cd 01       	movw	r24, r26
    5624:	2a 96       	adiw	r28, 0x0a	; 10
    5626:	0f b6       	in	r0, 0x3f	; 63
    5628:	f8 94       	cli
    562a:	de bf       	out	0x3e, r29	; 62
    562c:	0f be       	out	0x3f, r0	; 63
    562e:	cd bf       	out	0x3d, r28	; 61
    5630:	df 91       	pop	r29
    5632:	cf 91       	pop	r28
    5634:	08 95       	ret

00005636 <resetTrack>:

uint32_t getLength(struct MD_MFTrack *t)
// size of track in bytes
{
  return t->_length;
}
    5636:	cf 93       	push	r28
    5638:	df 93       	push	r29
    563a:	00 d0       	rcall	.+0      	; 0x563c <resetTrack+0x6>
    563c:	cd b7       	in	r28, 0x3d	; 61
    563e:	de b7       	in	r29, 0x3e	; 62
    5640:	9a 83       	std	Y+2, r25	; 0x02
    5642:	89 83       	std	Y+1, r24	; 0x01
    5644:	89 81       	ldd	r24, Y+1	; 0x01
    5646:	9a 81       	ldd	r25, Y+2	; 0x02
    5648:	fc 01       	movw	r30, r24
    564a:	11 82       	std	Z+1, r1	; 0x01
    564c:	12 82       	std	Z+2, r1	; 0x02
    564e:	13 82       	std	Z+3, r1	; 0x03
    5650:	14 82       	std	Z+4, r1	; 0x04
    5652:	89 81       	ldd	r24, Y+1	; 0x01
    5654:	9a 81       	ldd	r25, Y+2	; 0x02
    5656:	fc 01       	movw	r30, r24
    5658:	15 82       	std	Z+5, r1	; 0x05
    565a:	16 82       	std	Z+6, r1	; 0x06
    565c:	17 82       	std	Z+7, r1	; 0x07
    565e:	10 86       	std	Z+8, r1	; 0x08
    5660:	89 81       	ldd	r24, Y+1	; 0x01
    5662:	9a 81       	ldd	r25, Y+2	; 0x02
    5664:	0e 94 74 2b 	call	0x56e8	; 0x56e8 <restartTrack>
    5668:	89 81       	ldd	r24, Y+1	; 0x01
    566a:	9a 81       	ldd	r25, Y+2	; 0x02
    566c:	2f ef       	ldi	r18, 0xFF	; 255
    566e:	fc 01       	movw	r30, r24
    5670:	20 83       	st	Z, r18
    5672:	00 00       	nop
    5674:	0f 90       	pop	r0
    5676:	0f 90       	pop	r0
    5678:	df 91       	pop	r29
    567a:	cf 91       	pop	r28
    567c:	08 95       	ret

0000567e <closeTrack>:
    567e:	cf 93       	push	r28
    5680:	df 93       	push	r29
    5682:	00 d0       	rcall	.+0      	; 0x5684 <closeTrack+0x6>
    5684:	cd b7       	in	r28, 0x3d	; 61
    5686:	de b7       	in	r29, 0x3e	; 62
    5688:	9a 83       	std	Y+2, r25	; 0x02
    568a:	89 83       	std	Y+1, r24	; 0x01
    568c:	89 81       	ldd	r24, Y+1	; 0x01
    568e:	9a 81       	ldd	r25, Y+2	; 0x02
    5690:	0e 94 1b 2b 	call	0x5636	; 0x5636 <resetTrack>
    5694:	00 00       	nop
    5696:	0f 90       	pop	r0
    5698:	0f 90       	pop	r0
    569a:	df 91       	pop	r29
    569c:	cf 91       	pop	r28
    569e:	08 95       	ret

000056a0 <getEndOfTrack>:

BOOL getEndOfTrack(struct MD_MFTrack *t)
// true if end of track has been reached
{
    56a0:	cf 93       	push	r28
    56a2:	df 93       	push	r29
    56a4:	00 d0       	rcall	.+0      	; 0x56a6 <getEndOfTrack+0x6>
    56a6:	cd b7       	in	r28, 0x3d	; 61
    56a8:	de b7       	in	r29, 0x3e	; 62
    56aa:	9a 83       	std	Y+2, r25	; 0x02
    56ac:	89 83       	std	Y+1, r24	; 0x01
  return t->_endOfTrack;
    56ae:	89 81       	ldd	r24, Y+1	; 0x01
    56b0:	9a 81       	ldd	r25, Y+2	; 0x02
    56b2:	fc 01       	movw	r30, r24
    56b4:	85 85       	ldd	r24, Z+13	; 0x0d
}
    56b6:	0f 90       	pop	r0
    56b8:	0f 90       	pop	r0
    56ba:	df 91       	pop	r29
    56bc:	cf 91       	pop	r28
    56be:	08 95       	ret

000056c0 <syncTime>:

void syncTime(struct MD_MFTrack *t)
{
    56c0:	cf 93       	push	r28
    56c2:	df 93       	push	r29
    56c4:	00 d0       	rcall	.+0      	; 0x56c6 <syncTime+0x6>
    56c6:	cd b7       	in	r28, 0x3d	; 61
    56c8:	de b7       	in	r29, 0x3e	; 62
    56ca:	9a 83       	std	Y+2, r25	; 0x02
    56cc:	89 83       	std	Y+1, r24	; 0x01
  t->_elapsedTicks = 0;
    56ce:	89 81       	ldd	r24, Y+1	; 0x01
    56d0:	9a 81       	ldd	r25, Y+2	; 0x02
    56d2:	fc 01       	movw	r30, r24
    56d4:	16 86       	std	Z+14, r1	; 0x0e
    56d6:	17 86       	std	Z+15, r1	; 0x0f
    56d8:	10 8a       	std	Z+16, r1	; 0x10
    56da:	11 8a       	std	Z+17, r1	; 0x11
}
    56dc:	00 00       	nop
    56de:	0f 90       	pop	r0
    56e0:	0f 90       	pop	r0
    56e2:	df 91       	pop	r29
    56e4:	cf 91       	pop	r28
    56e6:	08 95       	ret

000056e8 <restartTrack>:

void restartTrack(struct MD_MFTrack *t)
// Start playing the track from the beginning again
{
    56e8:	cf 93       	push	r28
    56ea:	df 93       	push	r29
    56ec:	00 d0       	rcall	.+0      	; 0x56ee <restartTrack+0x6>
    56ee:	cd b7       	in	r28, 0x3d	; 61
    56f0:	de b7       	in	r29, 0x3e	; 62
    56f2:	9a 83       	std	Y+2, r25	; 0x02
    56f4:	89 83       	std	Y+1, r24	; 0x01
  t->_currOffset = 0;
    56f6:	89 81       	ldd	r24, Y+1	; 0x01
    56f8:	9a 81       	ldd	r25, Y+2	; 0x02
    56fa:	fc 01       	movw	r30, r24
    56fc:	11 86       	std	Z+9, r1	; 0x09
    56fe:	12 86       	std	Z+10, r1	; 0x0a
    5700:	13 86       	std	Z+11, r1	; 0x0b
    5702:	14 86       	std	Z+12, r1	; 0x0c
  t->_endOfTrack = FALSE;
    5704:	89 81       	ldd	r24, Y+1	; 0x01
    5706:	9a 81       	ldd	r25, Y+2	; 0x02
    5708:	fc 01       	movw	r30, r24
    570a:	15 86       	std	Z+13, r1	; 0x0d
  t->_elapsedTicks = 0;
    570c:	89 81       	ldd	r24, Y+1	; 0x01
    570e:	9a 81       	ldd	r25, Y+2	; 0x02
    5710:	fc 01       	movw	r30, r24
    5712:	16 86       	std	Z+14, r1	; 0x0e
    5714:	17 86       	std	Z+15, r1	; 0x0f
    5716:	10 8a       	std	Z+16, r1	; 0x10
    5718:	11 8a       	std	Z+17, r1	; 0x11
}
    571a:	00 00       	nop
    571c:	0f 90       	pop	r0
    571e:	0f 90       	pop	r0
    5720:	df 91       	pop	r29
    5722:	cf 91       	pop	r28
    5724:	08 95       	ret

00005726 <getNextTrackEvent>:

BOOL getNextTrackEvent(struct MD_MIDIFile *mf,struct MD_MFTrack *t, uint16_t tickCount)
// track_event = <time:v> + [<midi_event> | <meta_event> | <sysex_event>]
{
    5726:	ef 92       	push	r14
    5728:	ff 92       	push	r15
    572a:	0f 93       	push	r16
    572c:	1f 93       	push	r17
    572e:	cf 93       	push	r28
    5730:	df 93       	push	r29
    5732:	cd b7       	in	r28, 0x3d	; 61
    5734:	de b7       	in	r29, 0x3e	; 62
    5736:	2a 97       	sbiw	r28, 0x0a	; 10
    5738:	0f b6       	in	r0, 0x3f	; 63
    573a:	f8 94       	cli
    573c:	de bf       	out	0x3e, r29	; 62
    573e:	0f be       	out	0x3f, r0	; 63
    5740:	cd bf       	out	0x3d, r28	; 61
    5742:	9e 83       	std	Y+6, r25	; 0x06
    5744:	8d 83       	std	Y+5, r24	; 0x05
    5746:	78 87       	std	Y+8, r23	; 0x08
    5748:	6f 83       	std	Y+7, r22	; 0x07
    574a:	5a 87       	std	Y+10, r21	; 0x0a
    574c:	49 87       	std	Y+9, r20	; 0x09
  uint32_t deltaT;

  // is there anything to process?
  if (t->_endOfTrack)
    574e:	8f 81       	ldd	r24, Y+7	; 0x07
    5750:	98 85       	ldd	r25, Y+8	; 0x08
    5752:	fc 01       	movw	r30, r24
    5754:	85 85       	ldd	r24, Z+13	; 0x0d
    5756:	88 23       	and	r24, r24
    5758:	11 f0       	breq	.+4      	; 0x575e <getNextTrackEvent+0x38>
    return(FALSE);
    575a:	80 e0       	ldi	r24, 0x00	; 0
    575c:	b1 c0       	rjmp	.+354    	; 0x58c0 <getNextTrackEvent+0x19a>

  // move the file pointer to where we left off
  f_lseek(&mf->_fd,t->_startOffset+t->_currOffset);  
    575e:	8f 81       	ldd	r24, Y+7	; 0x07
    5760:	98 85       	ldd	r25, Y+8	; 0x08
    5762:	fc 01       	movw	r30, r24
    5764:	25 81       	ldd	r18, Z+5	; 0x05
    5766:	36 81       	ldd	r19, Z+6	; 0x06
    5768:	47 81       	ldd	r20, Z+7	; 0x07
    576a:	50 85       	ldd	r21, Z+8	; 0x08
    576c:	8f 81       	ldd	r24, Y+7	; 0x07
    576e:	98 85       	ldd	r25, Y+8	; 0x08
    5770:	fc 01       	movw	r30, r24
    5772:	81 85       	ldd	r24, Z+9	; 0x09
    5774:	92 85       	ldd	r25, Z+10	; 0x0a
    5776:	a3 85       	ldd	r26, Z+11	; 0x0b
    5778:	b4 85       	ldd	r27, Z+12	; 0x0c
    577a:	82 0f       	add	r24, r18
    577c:	93 1f       	adc	r25, r19
    577e:	a4 1f       	adc	r26, r20
    5780:	b5 1f       	adc	r27, r21
    5782:	2d 81       	ldd	r18, Y+5	; 0x05
    5784:	3e 81       	ldd	r19, Y+6	; 0x06
    5786:	2a 5f       	subi	r18, 0xFA	; 250
    5788:	3f 4f       	sbci	r19, 0xFF	; 255
    578a:	ac 01       	movw	r20, r24
    578c:	bd 01       	movw	r22, r26
    578e:	c9 01       	movw	r24, r18
    5790:	0e 94 1c 1b 	call	0x3638	; 0x3638 <f_lseek>

  // Work out new total elapsed ticks - include the overshoot from
  // last event.
  t->_elapsedTicks += tickCount;
    5794:	8f 81       	ldd	r24, Y+7	; 0x07
    5796:	98 85       	ldd	r25, Y+8	; 0x08
    5798:	fc 01       	movw	r30, r24
    579a:	26 85       	ldd	r18, Z+14	; 0x0e
    579c:	37 85       	ldd	r19, Z+15	; 0x0f
    579e:	40 89       	ldd	r20, Z+16	; 0x10
    57a0:	51 89       	ldd	r21, Z+17	; 0x11
    57a2:	89 85       	ldd	r24, Y+9	; 0x09
    57a4:	9a 85       	ldd	r25, Y+10	; 0x0a
    57a6:	cc 01       	movw	r24, r24
    57a8:	a0 e0       	ldi	r26, 0x00	; 0
    57aa:	b0 e0       	ldi	r27, 0x00	; 0
    57ac:	82 0f       	add	r24, r18
    57ae:	93 1f       	adc	r25, r19
    57b0:	a4 1f       	adc	r26, r20
    57b2:	b5 1f       	adc	r27, r21
    57b4:	2f 81       	ldd	r18, Y+7	; 0x07
    57b6:	38 85       	ldd	r19, Y+8	; 0x08
    57b8:	f9 01       	movw	r30, r18
    57ba:	86 87       	std	Z+14, r24	; 0x0e
    57bc:	97 87       	std	Z+15, r25	; 0x0f
    57be:	a0 8b       	std	Z+16, r26	; 0x10
    57c0:	b1 8b       	std	Z+17, r27	; 0x11

  // Get the DeltaT from the file in order to see if enough ticks have
  // passed for the event to be active.
  deltaT = readVarLen(&mf->_fd);
    57c2:	8d 81       	ldd	r24, Y+5	; 0x05
    57c4:	9e 81       	ldd	r25, Y+6	; 0x06
    57c6:	06 96       	adiw	r24, 0x06	; 6
    57c8:	0e 94 b8 2a 	call	0x5570	; 0x5570 <readVarLen>
    57cc:	dc 01       	movw	r26, r24
    57ce:	cb 01       	movw	r24, r22
    57d0:	89 83       	std	Y+1, r24	; 0x01
    57d2:	9a 83       	std	Y+2, r25	; 0x02
    57d4:	ab 83       	std	Y+3, r26	; 0x03
    57d6:	bc 83       	std	Y+4, r27	; 0x04

  // If not enough ticks, just return without saving the file pointer and 
  // we will go back to the same spot next time.
  if (t->_elapsedTicks < deltaT)
    57d8:	8f 81       	ldd	r24, Y+7	; 0x07
    57da:	98 85       	ldd	r25, Y+8	; 0x08
    57dc:	fc 01       	movw	r30, r24
    57de:	26 85       	ldd	r18, Z+14	; 0x0e
    57e0:	37 85       	ldd	r19, Z+15	; 0x0f
    57e2:	40 89       	ldd	r20, Z+16	; 0x10
    57e4:	51 89       	ldd	r21, Z+17	; 0x11
    57e6:	89 81       	ldd	r24, Y+1	; 0x01
    57e8:	9a 81       	ldd	r25, Y+2	; 0x02
    57ea:	ab 81       	ldd	r26, Y+3	; 0x03
    57ec:	bc 81       	ldd	r27, Y+4	; 0x04
    57ee:	28 17       	cp	r18, r24
    57f0:	39 07       	cpc	r19, r25
    57f2:	4a 07       	cpc	r20, r26
    57f4:	5b 07       	cpc	r21, r27
    57f6:	10 f4       	brcc	.+4      	; 0x57fc <getNextTrackEvent+0xd6>
    return(FALSE);
    57f8:	80 e0       	ldi	r24, 0x00	; 0
    57fa:	62 c0       	rjmp	.+196    	; 0x58c0 <getNextTrackEvent+0x19a>

  // Adjust the total elapsed time to the error against actual DeltaT to avoid 
  // accumulation of errors, as we only check for _elapsedTicks being >= ticks,
  // giving positive biased errors every time.
  t->_elapsedTicks -= deltaT;
    57fc:	8f 81       	ldd	r24, Y+7	; 0x07
    57fe:	98 85       	ldd	r25, Y+8	; 0x08
    5800:	fc 01       	movw	r30, r24
    5802:	26 85       	ldd	r18, Z+14	; 0x0e
    5804:	37 85       	ldd	r19, Z+15	; 0x0f
    5806:	40 89       	ldd	r20, Z+16	; 0x10
    5808:	51 89       	ldd	r21, Z+17	; 0x11
    580a:	89 81       	ldd	r24, Y+1	; 0x01
    580c:	9a 81       	ldd	r25, Y+2	; 0x02
    580e:	ab 81       	ldd	r26, Y+3	; 0x03
    5810:	bc 81       	ldd	r27, Y+4	; 0x04
    5812:	79 01       	movw	r14, r18
    5814:	8a 01       	movw	r16, r20
    5816:	e8 1a       	sub	r14, r24
    5818:	f9 0a       	sbc	r15, r25
    581a:	0a 0b       	sbc	r16, r26
    581c:	1b 0b       	sbc	r17, r27
    581e:	d8 01       	movw	r26, r16
    5820:	c7 01       	movw	r24, r14
    5822:	2f 81       	ldd	r18, Y+7	; 0x07
    5824:	38 85       	ldd	r19, Y+8	; 0x08
    5826:	f9 01       	movw	r30, r18
    5828:	86 87       	std	Z+14, r24	; 0x0e
    582a:	97 87       	std	Z+15, r25	; 0x0f
    582c:	a0 8b       	std	Z+16, r26	; 0x10
    582e:	b1 8b       	std	Z+17, r27	; 0x11

  DUMP("\ndT: ", deltaT);
  DUMP(" + ", _elapsedTicks);
  DUMPS("\t");

  parseEvent(mf,t);
    5830:	2f 81       	ldd	r18, Y+7	; 0x07
    5832:	38 85       	ldd	r19, Y+8	; 0x08
    5834:	8d 81       	ldd	r24, Y+5	; 0x05
    5836:	9e 81       	ldd	r25, Y+6	; 0x06
    5838:	b9 01       	movw	r22, r18
    583a:	0e 94 6d 2c 	call	0x58da	; 0x58da <parseEvent>

  // remember the offset for next time
  t->_currOffset = mf->_fd.fptr - t->_startOffset;
    583e:	8d 81       	ldd	r24, Y+5	; 0x05
    5840:	9e 81       	ldd	r25, Y+6	; 0x06
    5842:	fc 01       	movw	r30, r24
    5844:	24 85       	ldd	r18, Z+12	; 0x0c
    5846:	35 85       	ldd	r19, Z+13	; 0x0d
    5848:	46 85       	ldd	r20, Z+14	; 0x0e
    584a:	57 85       	ldd	r21, Z+15	; 0x0f
    584c:	8f 81       	ldd	r24, Y+7	; 0x07
    584e:	98 85       	ldd	r25, Y+8	; 0x08
    5850:	fc 01       	movw	r30, r24
    5852:	85 81       	ldd	r24, Z+5	; 0x05
    5854:	96 81       	ldd	r25, Z+6	; 0x06
    5856:	a7 81       	ldd	r26, Z+7	; 0x07
    5858:	b0 85       	ldd	r27, Z+8	; 0x08
    585a:	79 01       	movw	r14, r18
    585c:	8a 01       	movw	r16, r20
    585e:	e8 1a       	sub	r14, r24
    5860:	f9 0a       	sbc	r15, r25
    5862:	0a 0b       	sbc	r16, r26
    5864:	1b 0b       	sbc	r17, r27
    5866:	d8 01       	movw	r26, r16
    5868:	c7 01       	movw	r24, r14
    586a:	2f 81       	ldd	r18, Y+7	; 0x07
    586c:	38 85       	ldd	r19, Y+8	; 0x08
    586e:	f9 01       	movw	r30, r18
    5870:	81 87       	std	Z+9, r24	; 0x09
    5872:	92 87       	std	Z+10, r25	; 0x0a
    5874:	a3 87       	std	Z+11, r26	; 0x0b
    5876:	b4 87       	std	Z+12, r27	; 0x0c

  // catch end of track when there is no META event  
  t->_endOfTrack = t->_endOfTrack || (t->_currOffset >= t->_length);
    5878:	8f 81       	ldd	r24, Y+7	; 0x07
    587a:	98 85       	ldd	r25, Y+8	; 0x08
    587c:	fc 01       	movw	r30, r24
    587e:	85 85       	ldd	r24, Z+13	; 0x0d
    5880:	88 23       	and	r24, r24
    5882:	99 f4       	brne	.+38     	; 0x58aa <getNextTrackEvent+0x184>
    5884:	8f 81       	ldd	r24, Y+7	; 0x07
    5886:	98 85       	ldd	r25, Y+8	; 0x08
    5888:	fc 01       	movw	r30, r24
    588a:	21 85       	ldd	r18, Z+9	; 0x09
    588c:	32 85       	ldd	r19, Z+10	; 0x0a
    588e:	43 85       	ldd	r20, Z+11	; 0x0b
    5890:	54 85       	ldd	r21, Z+12	; 0x0c
    5892:	8f 81       	ldd	r24, Y+7	; 0x07
    5894:	98 85       	ldd	r25, Y+8	; 0x08
    5896:	fc 01       	movw	r30, r24
    5898:	81 81       	ldd	r24, Z+1	; 0x01
    589a:	92 81       	ldd	r25, Z+2	; 0x02
    589c:	a3 81       	ldd	r26, Z+3	; 0x03
    589e:	b4 81       	ldd	r27, Z+4	; 0x04
    58a0:	28 17       	cp	r18, r24
    58a2:	39 07       	cpc	r19, r25
    58a4:	4a 07       	cpc	r20, r26
    58a6:	5b 07       	cpc	r21, r27
    58a8:	18 f0       	brcs	.+6      	; 0x58b0 <getNextTrackEvent+0x18a>
    58aa:	81 e0       	ldi	r24, 0x01	; 1
    58ac:	90 e0       	ldi	r25, 0x00	; 0
    58ae:	02 c0       	rjmp	.+4      	; 0x58b4 <getNextTrackEvent+0x18e>
    58b0:	80 e0       	ldi	r24, 0x00	; 0
    58b2:	90 e0       	ldi	r25, 0x00	; 0
    58b4:	28 2f       	mov	r18, r24
    58b6:	8f 81       	ldd	r24, Y+7	; 0x07
    58b8:	98 85       	ldd	r25, Y+8	; 0x08
    58ba:	fc 01       	movw	r30, r24
    58bc:	25 87       	std	Z+13, r18	; 0x0d
  if (t->_endOfTrack) DUMPS(" - OUT OF TRACK");

  return(TRUE);
    58be:	81 e0       	ldi	r24, 0x01	; 1
}
    58c0:	2a 96       	adiw	r28, 0x0a	; 10
    58c2:	0f b6       	in	r0, 0x3f	; 63
    58c4:	f8 94       	cli
    58c6:	de bf       	out	0x3e, r29	; 62
    58c8:	0f be       	out	0x3f, r0	; 63
    58ca:	cd bf       	out	0x3d, r28	; 61
    58cc:	df 91       	pop	r29
    58ce:	cf 91       	pop	r28
    58d0:	1f 91       	pop	r17
    58d2:	0f 91       	pop	r16
    58d4:	ff 90       	pop	r15
    58d6:	ef 90       	pop	r14
    58d8:	08 95       	ret

000058da <parseEvent>:

void parseEvent(struct MD_MIDIFile *mf,struct MD_MFTrack *t)
// process the event from the physical file
{
    58da:	cf 93       	push	r28
    58dc:	df 93       	push	r29
    58de:	cd b7       	in	r28, 0x3d	; 61
    58e0:	de b7       	in	r29, 0x3e	; 62
    58e2:	c9 57       	subi	r28, 0x79	; 121
    58e4:	d1 09       	sbc	r29, r1
    58e6:	0f b6       	in	r0, 0x3f	; 63
    58e8:	f8 94       	cli
    58ea:	de bf       	out	0x3e, r29	; 62
    58ec:	0f be       	out	0x3f, r0	; 63
    58ee:	cd bf       	out	0x3d, r28	; 61
    58f0:	9e 01       	movw	r18, r28
    58f2:	2a 58       	subi	r18, 0x8A	; 138
    58f4:	3f 4f       	sbci	r19, 0xFF	; 255
    58f6:	f9 01       	movw	r30, r18
    58f8:	91 83       	std	Z+1, r25	; 0x01
    58fa:	80 83       	st	Z, r24
    58fc:	ce 01       	movw	r24, r28
    58fe:	88 58       	subi	r24, 0x88	; 136
    5900:	9f 4f       	sbci	r25, 0xFF	; 255
    5902:	fc 01       	movw	r30, r24
    5904:	71 83       	std	Z+1, r23	; 0x01
    5906:	60 83       	st	Z, r22
  uint8_t eType;
  uint32_t eLen, mLen;
  UINT bRead;
  // now we have to process this event
  f_read(&mf->_fd,&eType,1,&bRead);
    5908:	ce 01       	movw	r24, r28
    590a:	8a 58       	subi	r24, 0x8A	; 138
    590c:	9f 4f       	sbci	r25, 0xFF	; 255
    590e:	fc 01       	movw	r30, r24
    5910:	80 81       	ld	r24, Z
    5912:	91 81       	ldd	r25, Z+1	; 0x01
    5914:	06 96       	adiw	r24, 0x06	; 6
    5916:	9e 01       	movw	r18, r28
    5918:	2a 5e       	subi	r18, 0xEA	; 234
    591a:	3f 4f       	sbci	r19, 0xFF	; 255
    591c:	be 01       	movw	r22, r28
    591e:	6b 5e       	subi	r22, 0xEB	; 235
    5920:	7f 4f       	sbci	r23, 0xFF	; 255
    5922:	41 e0       	ldi	r20, 0x01	; 1
    5924:	50 e0       	ldi	r21, 0x00	; 0
    5926:	0e 94 a8 17 	call	0x2f50	; 0x2f50 <f_read>

  switch (eType)
    592a:	8d 89       	ldd	r24, Y+21	; 0x15
    592c:	88 2f       	mov	r24, r24
    592e:	90 e0       	ldi	r25, 0x00	; 0
    5930:	80 3e       	cpi	r24, 0xE0	; 224
    5932:	91 05       	cpc	r25, r1
    5934:	64 f4       	brge	.+24     	; 0x594e <parseEvent+0x74>
    5936:	80 3c       	cpi	r24, 0xC0	; 192
    5938:	91 05       	cpc	r25, r1
    593a:	0c f0       	brlt	.+2      	; 0x593e <parseEvent+0x64>
    593c:	9b c0       	rjmp	.+310    	; 0x5a74 <parseEvent+0x19a>
    593e:	99 23       	and	r25, r25
    5940:	0c f4       	brge	.+2      	; 0x5944 <parseEvent+0x6a>
    5942:	6f c4       	rjmp	.+2270   	; 0x6222 <parseEvent+0x948>
    5944:	80 38       	cpi	r24, 0x80	; 128
    5946:	91 05       	cpc	r25, r1
    5948:	0c f4       	brge	.+2      	; 0x594c <parseEvent+0x72>
    594a:	00 c1       	rjmp	.+512    	; 0x5b4c <parseEvent+0x272>
    594c:	10 c0       	rjmp	.+32     	; 0x596e <parseEvent+0x94>
    594e:	80 3f       	cpi	r24, 0xF0	; 240
    5950:	91 05       	cpc	r25, r1
    5952:	09 f4       	brne	.+2      	; 0x5956 <parseEvent+0x7c>
    5954:	5b c1       	rjmp	.+694    	; 0x5c0c <parseEvent+0x332>
    5956:	80 3f       	cpi	r24, 0xF0	; 240
    5958:	91 05       	cpc	r25, r1
    595a:	4c f0       	brlt	.+18     	; 0x596e <parseEvent+0x94>
    595c:	87 3f       	cpi	r24, 0xF7	; 247
    595e:	91 05       	cpc	r25, r1
    5960:	09 f4       	brne	.+2      	; 0x5964 <parseEvent+0x8a>
    5962:	54 c1       	rjmp	.+680    	; 0x5c0c <parseEvent+0x332>
    5964:	8f 3f       	cpi	r24, 0xFF	; 255
    5966:	91 05       	cpc	r25, r1
    5968:	09 f4       	brne	.+2      	; 0x596c <parseEvent+0x92>
    596a:	fe c1       	rjmp	.+1020   	; 0x5d68 <parseEvent+0x48e>
    596c:	5a c4       	rjmp	.+2228   	; 0x6222 <parseEvent+0x948>
    // Midi events (status bytes 0x8n - 0xEn) The standard Channel MIDI messages, where 'n' is the MIDI channel (0 - 15).
    // This status byte will be followed by 1 or 2 data bytes, as is usual for the particular MIDI message. 
    // Any valid Channel MIDI message can be included in a MIDI file.
  case 0x80 ... 0xBf: // MIDI message with 2 parameters
  case 0xe0 ... 0xef:
    t->_mev.size = 3;
    596e:	ce 01       	movw	r24, r28
    5970:	88 58       	subi	r24, 0x88	; 136
    5972:	9f 4f       	sbci	r25, 0xFF	; 255
    5974:	fc 01       	movw	r30, r24
    5976:	80 81       	ld	r24, Z
    5978:	91 81       	ldd	r25, Z+1	; 0x01
    597a:	23 e0       	ldi	r18, 0x03	; 3
    597c:	fc 01       	movw	r30, r24
    597e:	24 8b       	std	Z+20, r18	; 0x14
    t->_mev.data[0] = eType;
    5980:	2d 89       	ldd	r18, Y+21	; 0x15
    5982:	ce 01       	movw	r24, r28
    5984:	88 58       	subi	r24, 0x88	; 136
    5986:	9f 4f       	sbci	r25, 0xFF	; 255
    5988:	fc 01       	movw	r30, r24
    598a:	80 81       	ld	r24, Z
    598c:	91 81       	ldd	r25, Z+1	; 0x01
    598e:	fc 01       	movw	r30, r24
    5990:	25 8b       	std	Z+21, r18	; 0x15
    t->_mev.channel = t->_mev.data[0] & 0xf;  // mask off the channel
    5992:	ce 01       	movw	r24, r28
    5994:	88 58       	subi	r24, 0x88	; 136
    5996:	9f 4f       	sbci	r25, 0xFF	; 255
    5998:	fc 01       	movw	r30, r24
    599a:	80 81       	ld	r24, Z
    599c:	91 81       	ldd	r25, Z+1	; 0x01
    599e:	fc 01       	movw	r30, r24
    59a0:	85 89       	ldd	r24, Z+21	; 0x15
    59a2:	28 2f       	mov	r18, r24
    59a4:	2f 70       	andi	r18, 0x0F	; 15
    59a6:	ce 01       	movw	r24, r28
    59a8:	88 58       	subi	r24, 0x88	; 136
    59aa:	9f 4f       	sbci	r25, 0xFF	; 255
    59ac:	fc 01       	movw	r30, r24
    59ae:	80 81       	ld	r24, Z
    59b0:	91 81       	ldd	r25, Z+1	; 0x01
    59b2:	fc 01       	movw	r30, r24
    59b4:	23 8b       	std	Z+19, r18	; 0x13
    t->_mev.data[0] = t->_mev.data[0] & 0xf0; // just the command byte
    59b6:	ce 01       	movw	r24, r28
    59b8:	88 58       	subi	r24, 0x88	; 136
    59ba:	9f 4f       	sbci	r25, 0xFF	; 255
    59bc:	fc 01       	movw	r30, r24
    59be:	80 81       	ld	r24, Z
    59c0:	91 81       	ldd	r25, Z+1	; 0x01
    59c2:	fc 01       	movw	r30, r24
    59c4:	85 89       	ldd	r24, Z+21	; 0x15
    59c6:	28 2f       	mov	r18, r24
    59c8:	20 7f       	andi	r18, 0xF0	; 240
    59ca:	ce 01       	movw	r24, r28
    59cc:	88 58       	subi	r24, 0x88	; 136
    59ce:	9f 4f       	sbci	r25, 0xFF	; 255
    59d0:	fc 01       	movw	r30, r24
    59d2:	80 81       	ld	r24, Z
    59d4:	91 81       	ldd	r25, Z+1	; 0x01
    59d6:	fc 01       	movw	r30, r24
    59d8:	25 8b       	std	Z+21, r18	; 0x15
    f_read(&mf->_fd,&t->_mev.data[1],1,&bRead);
    59da:	ce 01       	movw	r24, r28
    59dc:	88 58       	subi	r24, 0x88	; 136
    59de:	9f 4f       	sbci	r25, 0xFF	; 255
    59e0:	fc 01       	movw	r30, r24
    59e2:	80 81       	ld	r24, Z
    59e4:	91 81       	ldd	r25, Z+1	; 0x01
    59e6:	bc 01       	movw	r22, r24
    59e8:	6a 5e       	subi	r22, 0xEA	; 234
    59ea:	7f 4f       	sbci	r23, 0xFF	; 255
    59ec:	ce 01       	movw	r24, r28
    59ee:	8a 58       	subi	r24, 0x8A	; 138
    59f0:	9f 4f       	sbci	r25, 0xFF	; 255
    59f2:	fc 01       	movw	r30, r24
    59f4:	80 81       	ld	r24, Z
    59f6:	91 81       	ldd	r25, Z+1	; 0x01
    59f8:	06 96       	adiw	r24, 0x06	; 6
    59fa:	9e 01       	movw	r18, r28
    59fc:	2a 5e       	subi	r18, 0xEA	; 234
    59fe:	3f 4f       	sbci	r19, 0xFF	; 255
    5a00:	41 e0       	ldi	r20, 0x01	; 1
    5a02:	50 e0       	ldi	r21, 0x00	; 0
    5a04:	0e 94 a8 17 	call	0x2f50	; 0x2f50 <f_read>
    f_read(&mf->_fd,&t->_mev.data[2],1,&bRead);
    5a08:	ce 01       	movw	r24, r28
    5a0a:	88 58       	subi	r24, 0x88	; 136
    5a0c:	9f 4f       	sbci	r25, 0xFF	; 255
    5a0e:	fc 01       	movw	r30, r24
    5a10:	80 81       	ld	r24, Z
    5a12:	91 81       	ldd	r25, Z+1	; 0x01
    5a14:	bc 01       	movw	r22, r24
    5a16:	69 5e       	subi	r22, 0xE9	; 233
    5a18:	7f 4f       	sbci	r23, 0xFF	; 255
    5a1a:	ce 01       	movw	r24, r28
    5a1c:	8a 58       	subi	r24, 0x8A	; 138
    5a1e:	9f 4f       	sbci	r25, 0xFF	; 255
    5a20:	fc 01       	movw	r30, r24
    5a22:	80 81       	ld	r24, Z
    5a24:	91 81       	ldd	r25, Z+1	; 0x01
    5a26:	06 96       	adiw	r24, 0x06	; 6
    5a28:	9e 01       	movw	r18, r28
    5a2a:	2a 5e       	subi	r18, 0xEA	; 234
    5a2c:	3f 4f       	sbci	r19, 0xFF	; 255
    5a2e:	41 e0       	ldi	r20, 0x01	; 1
    5a30:	50 e0       	ldi	r21, 0x00	; 0
    5a32:	0e 94 a8 17 	call	0x2f50	; 0x2f50 <f_read>
    DUMP("[MID2] Ch: ", _mev.channel);
    DUMPX(" Data: ", _mev.data[0]);
    DUMPX(" ", _mev.data[1]);
    DUMPX(" ", _mev.data[2]);	
#if !DUMP_DATA
    if (mf->_midiHandler != NULL)
    5a36:	ce 01       	movw	r24, r28
    5a38:	8a 58       	subi	r24, 0x8A	; 138
    5a3a:	9f 4f       	sbci	r25, 0xFF	; 255
    5a3c:	fc 01       	movw	r30, r24
    5a3e:	80 81       	ld	r24, Z
    5a40:	91 81       	ldd	r25, Z+1	; 0x01
    5a42:	fc 01       	movw	r30, r24
    5a44:	80 81       	ld	r24, Z
    5a46:	91 81       	ldd	r25, Z+1	; 0x01
    5a48:	89 2b       	or	r24, r25
    5a4a:	09 f4       	brne	.+2      	; 0x5a4e <parseEvent+0x174>
    5a4c:	f4 c3       	rjmp	.+2024   	; 0x6236 <parseEvent+0x95c>
      (mf->_midiHandler)(&t->_mev);
    5a4e:	ce 01       	movw	r24, r28
    5a50:	8a 58       	subi	r24, 0x8A	; 138
    5a52:	9f 4f       	sbci	r25, 0xFF	; 255
    5a54:	fc 01       	movw	r30, r24
    5a56:	80 81       	ld	r24, Z
    5a58:	91 81       	ldd	r25, Z+1	; 0x01
    5a5a:	fc 01       	movw	r30, r24
    5a5c:	20 81       	ld	r18, Z
    5a5e:	31 81       	ldd	r19, Z+1	; 0x01
    5a60:	ce 01       	movw	r24, r28
    5a62:	88 58       	subi	r24, 0x88	; 136
    5a64:	9f 4f       	sbci	r25, 0xFF	; 255
    5a66:	fc 01       	movw	r30, r24
    5a68:	80 81       	ld	r24, Z
    5a6a:	91 81       	ldd	r25, Z+1	; 0x01
    5a6c:	42 96       	adiw	r24, 0x12	; 18
    5a6e:	f9 01       	movw	r30, r18
    5a70:	09 95       	icall
#endif // !DUMP_DATA
  break;
    5a72:	e1 c3       	rjmp	.+1986   	; 0x6236 <parseEvent+0x95c>

  case 0xc0 ... 0xdf: // MIDI message with 1 parameter
    t->_mev.size = 2;
    5a74:	ce 01       	movw	r24, r28
    5a76:	88 58       	subi	r24, 0x88	; 136
    5a78:	9f 4f       	sbci	r25, 0xFF	; 255
    5a7a:	fc 01       	movw	r30, r24
    5a7c:	80 81       	ld	r24, Z
    5a7e:	91 81       	ldd	r25, Z+1	; 0x01
    5a80:	22 e0       	ldi	r18, 0x02	; 2
    5a82:	fc 01       	movw	r30, r24
    5a84:	24 8b       	std	Z+20, r18	; 0x14
    t->_mev.data[0] = eType;
    5a86:	2d 89       	ldd	r18, Y+21	; 0x15
    5a88:	ce 01       	movw	r24, r28
    5a8a:	88 58       	subi	r24, 0x88	; 136
    5a8c:	9f 4f       	sbci	r25, 0xFF	; 255
    5a8e:	fc 01       	movw	r30, r24
    5a90:	80 81       	ld	r24, Z
    5a92:	91 81       	ldd	r25, Z+1	; 0x01
    5a94:	fc 01       	movw	r30, r24
    5a96:	25 8b       	std	Z+21, r18	; 0x15
    t->_mev.channel = t->_mev.data[0] & 0xf;  // mask off the channel
    5a98:	ce 01       	movw	r24, r28
    5a9a:	88 58       	subi	r24, 0x88	; 136
    5a9c:	9f 4f       	sbci	r25, 0xFF	; 255
    5a9e:	fc 01       	movw	r30, r24
    5aa0:	80 81       	ld	r24, Z
    5aa2:	91 81       	ldd	r25, Z+1	; 0x01
    5aa4:	fc 01       	movw	r30, r24
    5aa6:	85 89       	ldd	r24, Z+21	; 0x15
    5aa8:	28 2f       	mov	r18, r24
    5aaa:	2f 70       	andi	r18, 0x0F	; 15
    5aac:	ce 01       	movw	r24, r28
    5aae:	88 58       	subi	r24, 0x88	; 136
    5ab0:	9f 4f       	sbci	r25, 0xFF	; 255
    5ab2:	fc 01       	movw	r30, r24
    5ab4:	80 81       	ld	r24, Z
    5ab6:	91 81       	ldd	r25, Z+1	; 0x01
    5ab8:	fc 01       	movw	r30, r24
    5aba:	23 8b       	std	Z+19, r18	; 0x13
    t->_mev.data[0] = t->_mev.data[0] & 0xf0; // just the command byte
    5abc:	ce 01       	movw	r24, r28
    5abe:	88 58       	subi	r24, 0x88	; 136
    5ac0:	9f 4f       	sbci	r25, 0xFF	; 255
    5ac2:	fc 01       	movw	r30, r24
    5ac4:	80 81       	ld	r24, Z
    5ac6:	91 81       	ldd	r25, Z+1	; 0x01
    5ac8:	fc 01       	movw	r30, r24
    5aca:	85 89       	ldd	r24, Z+21	; 0x15
    5acc:	28 2f       	mov	r18, r24
    5ace:	20 7f       	andi	r18, 0xF0	; 240
    5ad0:	ce 01       	movw	r24, r28
    5ad2:	88 58       	subi	r24, 0x88	; 136
    5ad4:	9f 4f       	sbci	r25, 0xFF	; 255
    5ad6:	fc 01       	movw	r30, r24
    5ad8:	80 81       	ld	r24, Z
    5ada:	91 81       	ldd	r25, Z+1	; 0x01
    5adc:	fc 01       	movw	r30, r24
    5ade:	25 8b       	std	Z+21, r18	; 0x15
    f_read(&mf->_fd,&t->_mev.data[1],1,&bRead);
    5ae0:	ce 01       	movw	r24, r28
    5ae2:	88 58       	subi	r24, 0x88	; 136
    5ae4:	9f 4f       	sbci	r25, 0xFF	; 255
    5ae6:	fc 01       	movw	r30, r24
    5ae8:	80 81       	ld	r24, Z
    5aea:	91 81       	ldd	r25, Z+1	; 0x01
    5aec:	bc 01       	movw	r22, r24
    5aee:	6a 5e       	subi	r22, 0xEA	; 234
    5af0:	7f 4f       	sbci	r23, 0xFF	; 255
    5af2:	ce 01       	movw	r24, r28
    5af4:	8a 58       	subi	r24, 0x8A	; 138
    5af6:	9f 4f       	sbci	r25, 0xFF	; 255
    5af8:	fc 01       	movw	r30, r24
    5afa:	80 81       	ld	r24, Z
    5afc:	91 81       	ldd	r25, Z+1	; 0x01
    5afe:	06 96       	adiw	r24, 0x06	; 6
    5b00:	9e 01       	movw	r18, r28
    5b02:	2a 5e       	subi	r18, 0xEA	; 234
    5b04:	3f 4f       	sbci	r19, 0xFF	; 255
    5b06:	41 e0       	ldi	r20, 0x01	; 1
    5b08:	50 e0       	ldi	r21, 0x00	; 0
    5b0a:	0e 94 a8 17 	call	0x2f50	; 0x2f50 <f_read>
    DUMP("[MID1] Ch: ", _mev.channel);
    DUMPX(" Data: ", _mev.data[0]);
    DUMPX(" ", _mev.data[1]);

#if !DUMP_DATA
    if (mf->_midiHandler != NULL)
    5b0e:	ce 01       	movw	r24, r28
    5b10:	8a 58       	subi	r24, 0x8A	; 138
    5b12:	9f 4f       	sbci	r25, 0xFF	; 255
    5b14:	fc 01       	movw	r30, r24
    5b16:	80 81       	ld	r24, Z
    5b18:	91 81       	ldd	r25, Z+1	; 0x01
    5b1a:	fc 01       	movw	r30, r24
    5b1c:	80 81       	ld	r24, Z
    5b1e:	91 81       	ldd	r25, Z+1	; 0x01
    5b20:	89 2b       	or	r24, r25
    5b22:	09 f4       	brne	.+2      	; 0x5b26 <parseEvent+0x24c>
    5b24:	8a c3       	rjmp	.+1812   	; 0x623a <parseEvent+0x960>
      (mf->_midiHandler)(&t->_mev);
    5b26:	ce 01       	movw	r24, r28
    5b28:	8a 58       	subi	r24, 0x8A	; 138
    5b2a:	9f 4f       	sbci	r25, 0xFF	; 255
    5b2c:	fc 01       	movw	r30, r24
    5b2e:	80 81       	ld	r24, Z
    5b30:	91 81       	ldd	r25, Z+1	; 0x01
    5b32:	fc 01       	movw	r30, r24
    5b34:	20 81       	ld	r18, Z
    5b36:	31 81       	ldd	r19, Z+1	; 0x01
    5b38:	ce 01       	movw	r24, r28
    5b3a:	88 58       	subi	r24, 0x88	; 136
    5b3c:	9f 4f       	sbci	r25, 0xFF	; 255
    5b3e:	fc 01       	movw	r30, r24
    5b40:	80 81       	ld	r24, Z
    5b42:	91 81       	ldd	r25, Z+1	; 0x01
    5b44:	42 96       	adiw	r24, 0x12	; 18
    5b46:	f9 01       	movw	r30, r18
    5b48:	09 95       	icall
#endif
  break;
    5b4a:	77 c3       	rjmp	.+1774   	; 0x623a <parseEvent+0x960>
    // ie SysEx and Meta events clear running status. This means that the _mev structure 
    // should contain the info from the previous message in the structure's channel member 
    // and data[0] (for the MIDI command). 
    // Hence start saving the data at byte data[1] with the byte we have just read (eType) 
    // and use the size member to determine how large the message is (ie, same as before).
    t->_mev.data[1] = eType;
    5b4c:	2d 89       	ldd	r18, Y+21	; 0x15
    5b4e:	ce 01       	movw	r24, r28
    5b50:	88 58       	subi	r24, 0x88	; 136
    5b52:	9f 4f       	sbci	r25, 0xFF	; 255
    5b54:	fc 01       	movw	r30, r24
    5b56:	80 81       	ld	r24, Z
    5b58:	91 81       	ldd	r25, Z+1	; 0x01
    5b5a:	fc 01       	movw	r30, r24
    5b5c:	26 8b       	std	Z+22, r18	; 0x16
    for (uint8_t i = 2; i < t->_mev.size; i++)
    5b5e:	82 e0       	ldi	r24, 0x02	; 2
    5b60:	89 83       	std	Y+1, r24	; 0x01
    5b62:	1a c0       	rjmp	.+52     	; 0x5b98 <parseEvent+0x2be>
    {
      f_read(&mf->_fd,&t->_mev.data[1],1,&bRead);  // next byte
    5b64:	ce 01       	movw	r24, r28
    5b66:	88 58       	subi	r24, 0x88	; 136
    5b68:	9f 4f       	sbci	r25, 0xFF	; 255
    5b6a:	fc 01       	movw	r30, r24
    5b6c:	80 81       	ld	r24, Z
    5b6e:	91 81       	ldd	r25, Z+1	; 0x01
    5b70:	bc 01       	movw	r22, r24
    5b72:	6a 5e       	subi	r22, 0xEA	; 234
    5b74:	7f 4f       	sbci	r23, 0xFF	; 255
    5b76:	ce 01       	movw	r24, r28
    5b78:	8a 58       	subi	r24, 0x8A	; 138
    5b7a:	9f 4f       	sbci	r25, 0xFF	; 255
    5b7c:	fc 01       	movw	r30, r24
    5b7e:	80 81       	ld	r24, Z
    5b80:	91 81       	ldd	r25, Z+1	; 0x01
    5b82:	06 96       	adiw	r24, 0x06	; 6
    5b84:	9e 01       	movw	r18, r28
    5b86:	2a 5e       	subi	r18, 0xEA	; 234
    5b88:	3f 4f       	sbci	r19, 0xFF	; 255
    5b8a:	41 e0       	ldi	r20, 0x01	; 1
    5b8c:	50 e0       	ldi	r21, 0x00	; 0
    5b8e:	0e 94 a8 17 	call	0x2f50	; 0x2f50 <f_read>
    // should contain the info from the previous message in the structure's channel member 
    // and data[0] (for the MIDI command). 
    // Hence start saving the data at byte data[1] with the byte we have just read (eType) 
    // and use the size member to determine how large the message is (ie, same as before).
    t->_mev.data[1] = eType;
    for (uint8_t i = 2; i < t->_mev.size; i++)
    5b92:	89 81       	ldd	r24, Y+1	; 0x01
    5b94:	8f 5f       	subi	r24, 0xFF	; 255
    5b96:	89 83       	std	Y+1, r24	; 0x01
    5b98:	ce 01       	movw	r24, r28
    5b9a:	88 58       	subi	r24, 0x88	; 136
    5b9c:	9f 4f       	sbci	r25, 0xFF	; 255
    5b9e:	fc 01       	movw	r30, r24
    5ba0:	80 81       	ld	r24, Z
    5ba2:	91 81       	ldd	r25, Z+1	; 0x01
    5ba4:	fc 01       	movw	r30, r24
    5ba6:	94 89       	ldd	r25, Z+20	; 0x14
    5ba8:	89 81       	ldd	r24, Y+1	; 0x01
    5baa:	89 17       	cp	r24, r25
    5bac:	d8 f2       	brcs	.-74     	; 0x5b64 <parseEvent+0x28a>
      f_read(&mf->_fd,&t->_mev.data[1],1,&bRead);  // next byte
    } 

    DUMP("[MID+] Ch: ", _mev.channel);
    DUMPS(" Data:");
    for (uint8_t i = 0; i<t->_mev.size; i++)
    5bae:	1a 82       	std	Y+2, r1	; 0x02
    5bb0:	03 c0       	rjmp	.+6      	; 0x5bb8 <parseEvent+0x2de>
    5bb2:	8a 81       	ldd	r24, Y+2	; 0x02
    5bb4:	8f 5f       	subi	r24, 0xFF	; 255
    5bb6:	8a 83       	std	Y+2, r24	; 0x02
    5bb8:	ce 01       	movw	r24, r28
    5bba:	88 58       	subi	r24, 0x88	; 136
    5bbc:	9f 4f       	sbci	r25, 0xFF	; 255
    5bbe:	fc 01       	movw	r30, r24
    5bc0:	80 81       	ld	r24, Z
    5bc2:	91 81       	ldd	r25, Z+1	; 0x01
    5bc4:	fc 01       	movw	r30, r24
    5bc6:	94 89       	ldd	r25, Z+20	; 0x14
    5bc8:	8a 81       	ldd	r24, Y+2	; 0x02
    5bca:	89 17       	cp	r24, r25
    5bcc:	90 f3       	brcs	.-28     	; 0x5bb2 <parseEvent+0x2d8>
    {
      DUMPX(" ", t->_mev.data[i]);
    }

#if !DUMP_DATA
    if (mf->_midiHandler != NULL)
    5bce:	ce 01       	movw	r24, r28
    5bd0:	8a 58       	subi	r24, 0x8A	; 138
    5bd2:	9f 4f       	sbci	r25, 0xFF	; 255
    5bd4:	fc 01       	movw	r30, r24
    5bd6:	80 81       	ld	r24, Z
    5bd8:	91 81       	ldd	r25, Z+1	; 0x01
    5bda:	fc 01       	movw	r30, r24
    5bdc:	80 81       	ld	r24, Z
    5bde:	91 81       	ldd	r25, Z+1	; 0x01
    5be0:	89 2b       	or	r24, r25
    5be2:	09 f4       	brne	.+2      	; 0x5be6 <parseEvent+0x30c>
    5be4:	2c c3       	rjmp	.+1624   	; 0x623e <parseEvent+0x964>
      (mf->_midiHandler)(&t->_mev);
    5be6:	ce 01       	movw	r24, r28
    5be8:	8a 58       	subi	r24, 0x8A	; 138
    5bea:	9f 4f       	sbci	r25, 0xFF	; 255
    5bec:	fc 01       	movw	r30, r24
    5bee:	80 81       	ld	r24, Z
    5bf0:	91 81       	ldd	r25, Z+1	; 0x01
    5bf2:	fc 01       	movw	r30, r24
    5bf4:	20 81       	ld	r18, Z
    5bf6:	31 81       	ldd	r19, Z+1	; 0x01
    5bf8:	ce 01       	movw	r24, r28
    5bfa:	88 58       	subi	r24, 0x88	; 136
    5bfc:	9f 4f       	sbci	r25, 0xFF	; 255
    5bfe:	fc 01       	movw	r30, r24
    5c00:	80 81       	ld	r24, Z
    5c02:	91 81       	ldd	r25, Z+1	; 0x01
    5c04:	42 96       	adiw	r24, 0x12	; 18
    5c06:	f9 01       	movw	r30, r18
    5c08:	09 95       	icall
#endif
  }
  break;
    5c0a:	19 c3       	rjmp	.+1586   	; 0x623e <parseEvent+0x964>
// ---------------------------- SYSEX
  case 0xf0:  // sysex_event = 0xF0 + <len:1> + <data_bytes> + 0xF7 
  case 0xf7:  // sysex_event = 0xF7 + <len:1> + <data_bytes> + 0xF7 
  {
    sysex_event sev;
    uint16_t index = 0;
    5c0c:	1c 82       	std	Y+4, r1	; 0x04
    5c0e:	1b 82       	std	Y+3, r1	; 0x03

    // collect all the bytes until the 0xf7 - boundaries are included in the message
    sev.track = t->_trackId;
    5c10:	ce 01       	movw	r24, r28
    5c12:	88 58       	subi	r24, 0x88	; 136
    5c14:	9f 4f       	sbci	r25, 0xFF	; 255
    5c16:	fc 01       	movw	r30, r24
    5c18:	80 81       	ld	r24, Z
    5c1a:	91 81       	ldd	r25, Z+1	; 0x01
    5c1c:	fc 01       	movw	r30, r24
    5c1e:	80 81       	ld	r24, Z
    5c20:	8c 8f       	std	Y+28, r24	; 0x1c
    mLen = readVarLen(&mf->_fd);
    5c22:	ce 01       	movw	r24, r28
    5c24:	8a 58       	subi	r24, 0x8A	; 138
    5c26:	9f 4f       	sbci	r25, 0xFF	; 255
    5c28:	fc 01       	movw	r30, r24
    5c2a:	80 81       	ld	r24, Z
    5c2c:	91 81       	ldd	r25, Z+1	; 0x01
    5c2e:	06 96       	adiw	r24, 0x06	; 6
    5c30:	0e 94 b8 2a 	call	0x5570	; 0x5570 <readVarLen>
    5c34:	dc 01       	movw	r26, r24
    5c36:	cb 01       	movw	r24, r22
    5c38:	88 87       	std	Y+8, r24	; 0x08
    5c3a:	99 87       	std	Y+9, r25	; 0x09
    5c3c:	aa 87       	std	Y+10, r26	; 0x0a
    5c3e:	bb 87       	std	Y+11, r27	; 0x0b
    sev.size = mLen;
    5c40:	88 85       	ldd	r24, Y+8	; 0x08
    5c42:	99 85       	ldd	r25, Y+9	; 0x09
    5c44:	9e 8f       	std	Y+30, r25	; 0x1e
    5c46:	8d 8f       	std	Y+29, r24	; 0x1d
    if (eType==0xF0)       // add space for 0xF0
    5c48:	8d 89       	ldd	r24, Y+21	; 0x15
    5c4a:	80 3f       	cpi	r24, 0xF0	; 240
    5c4c:	a1 f4       	brne	.+40     	; 0x5c76 <parseEvent+0x39c>
    {
      sev.data[index++] = eType;
    5c4e:	8b 81       	ldd	r24, Y+3	; 0x03
    5c50:	9c 81       	ldd	r25, Y+4	; 0x04
    5c52:	9c 01       	movw	r18, r24
    5c54:	2f 5f       	subi	r18, 0xFF	; 255
    5c56:	3f 4f       	sbci	r19, 0xFF	; 255
    5c58:	3c 83       	std	Y+4, r19	; 0x04
    5c5a:	2b 83       	std	Y+3, r18	; 0x03
    5c5c:	4d 89       	ldd	r20, Y+21	; 0x15
    5c5e:	9e 01       	movw	r18, r28
    5c60:	21 5e       	subi	r18, 0xE1	; 225
    5c62:	3f 4f       	sbci	r19, 0xFF	; 255
    5c64:	82 0f       	add	r24, r18
    5c66:	93 1f       	adc	r25, r19
    5c68:	fc 01       	movw	r30, r24
    5c6a:	40 83       	st	Z, r20
      sev.size++;
    5c6c:	8d 8d       	ldd	r24, Y+29	; 0x1d
    5c6e:	9e 8d       	ldd	r25, Y+30	; 0x1e
    5c70:	01 96       	adiw	r24, 0x01	; 1
    5c72:	9e 8f       	std	Y+30, r25	; 0x1e
    5c74:	8d 8f       	std	Y+29, r24	; 0x1d
    }
    uint16_t minLen = min(sev.size, ARRAY_SIZE(sev.data));
    5c76:	8d 8d       	ldd	r24, Y+29	; 0x1d
    5c78:	9e 8d       	ldd	r25, Y+30	; 0x1e
    5c7a:	83 33       	cpi	r24, 0x33	; 51
    5c7c:	91 05       	cpc	r25, r1
    5c7e:	10 f0       	brcs	.+4      	; 0x5c84 <parseEvent+0x3aa>
    5c80:	82 e3       	ldi	r24, 0x32	; 50
    5c82:	90 e0       	ldi	r25, 0x00	; 0
    5c84:	9d 87       	std	Y+13, r25	; 0x0d
    5c86:	8c 87       	std	Y+12, r24	; 0x0c
    // The length parameter includes the 0xF7 but not the start boundary.
    // However, it may be bigger than our buffer will allow us to store.
    for (uint16_t i=index; i<minLen; ++i)
    5c88:	8b 81       	ldd	r24, Y+3	; 0x03
    5c8a:	9c 81       	ldd	r25, Y+4	; 0x04
    5c8c:	9e 83       	std	Y+6, r25	; 0x06
    5c8e:	8d 83       	std	Y+5, r24	; 0x05
    5c90:	1c c0       	rjmp	.+56     	; 0x5cca <parseEvent+0x3f0>
      f_read(&mf->_fd,&sev.data[i],1,&bRead);
    5c92:	9e 01       	movw	r18, r28
    5c94:	24 5e       	subi	r18, 0xE4	; 228
    5c96:	3f 4f       	sbci	r19, 0xFF	; 255
    5c98:	8d 81       	ldd	r24, Y+5	; 0x05
    5c9a:	9e 81       	ldd	r25, Y+6	; 0x06
    5c9c:	03 96       	adiw	r24, 0x03	; 3
    5c9e:	b9 01       	movw	r22, r18
    5ca0:	68 0f       	add	r22, r24
    5ca2:	79 1f       	adc	r23, r25
    5ca4:	ce 01       	movw	r24, r28
    5ca6:	8a 58       	subi	r24, 0x8A	; 138
    5ca8:	9f 4f       	sbci	r25, 0xFF	; 255
    5caa:	fc 01       	movw	r30, r24
    5cac:	80 81       	ld	r24, Z
    5cae:	91 81       	ldd	r25, Z+1	; 0x01
    5cb0:	06 96       	adiw	r24, 0x06	; 6
    5cb2:	9e 01       	movw	r18, r28
    5cb4:	2a 5e       	subi	r18, 0xEA	; 234
    5cb6:	3f 4f       	sbci	r19, 0xFF	; 255
    5cb8:	41 e0       	ldi	r20, 0x01	; 1
    5cba:	50 e0       	ldi	r21, 0x00	; 0
    5cbc:	0e 94 a8 17 	call	0x2f50	; 0x2f50 <f_read>
      sev.size++;
    }
    uint16_t minLen = min(sev.size, ARRAY_SIZE(sev.data));
    // The length parameter includes the 0xF7 but not the start boundary.
    // However, it may be bigger than our buffer will allow us to store.
    for (uint16_t i=index; i<minLen; ++i)
    5cc0:	8d 81       	ldd	r24, Y+5	; 0x05
    5cc2:	9e 81       	ldd	r25, Y+6	; 0x06
    5cc4:	01 96       	adiw	r24, 0x01	; 1
    5cc6:	9e 83       	std	Y+6, r25	; 0x06
    5cc8:	8d 83       	std	Y+5, r24	; 0x05
    5cca:	2d 81       	ldd	r18, Y+5	; 0x05
    5ccc:	3e 81       	ldd	r19, Y+6	; 0x06
    5cce:	8c 85       	ldd	r24, Y+12	; 0x0c
    5cd0:	9d 85       	ldd	r25, Y+13	; 0x0d
    5cd2:	28 17       	cp	r18, r24
    5cd4:	39 07       	cpc	r19, r25
    5cd6:	e8 f2       	brcs	.-70     	; 0x5c92 <parseEvent+0x3b8>
      f_read(&mf->_fd,&sev.data[i],1,&bRead);
    if (sev.size>minLen)
    5cd8:	2d 8d       	ldd	r18, Y+29	; 0x1d
    5cda:	3e 8d       	ldd	r19, Y+30	; 0x1e
    5cdc:	8c 85       	ldd	r24, Y+12	; 0x0c
    5cde:	9d 85       	ldd	r25, Y+13	; 0x0d
    5ce0:	82 17       	cp	r24, r18
    5ce2:	93 07       	cpc	r25, r19
    5ce4:	38 f5       	brcc	.+78     	; 0x5d34 <parseEvent+0x45a>
      f_lseek(&mf->_fd,f_tell(&mf->_fd) + (sev.size-minLen));
    5ce6:	ce 01       	movw	r24, r28
    5ce8:	8a 58       	subi	r24, 0x8A	; 138
    5cea:	9f 4f       	sbci	r25, 0xFF	; 255
    5cec:	fc 01       	movw	r30, r24
    5cee:	80 81       	ld	r24, Z
    5cf0:	91 81       	ldd	r25, Z+1	; 0x01
    5cf2:	fc 01       	movw	r30, r24
    5cf4:	24 85       	ldd	r18, Z+12	; 0x0c
    5cf6:	35 85       	ldd	r19, Z+13	; 0x0d
    5cf8:	46 85       	ldd	r20, Z+14	; 0x0e
    5cfa:	57 85       	ldd	r21, Z+15	; 0x0f
    5cfc:	6d 8d       	ldd	r22, Y+29	; 0x1d
    5cfe:	7e 8d       	ldd	r23, Y+30	; 0x1e
    5d00:	8c 85       	ldd	r24, Y+12	; 0x0c
    5d02:	9d 85       	ldd	r25, Y+13	; 0x0d
    5d04:	fb 01       	movw	r30, r22
    5d06:	e8 1b       	sub	r30, r24
    5d08:	f9 0b       	sbc	r31, r25
    5d0a:	cf 01       	movw	r24, r30
    5d0c:	cc 01       	movw	r24, r24
    5d0e:	a0 e0       	ldi	r26, 0x00	; 0
    5d10:	b0 e0       	ldi	r27, 0x00	; 0
    5d12:	82 0f       	add	r24, r18
    5d14:	93 1f       	adc	r25, r19
    5d16:	a4 1f       	adc	r26, r20
    5d18:	b5 1f       	adc	r27, r21
    5d1a:	9e 01       	movw	r18, r28
    5d1c:	2a 58       	subi	r18, 0x8A	; 138
    5d1e:	3f 4f       	sbci	r19, 0xFF	; 255
    5d20:	f9 01       	movw	r30, r18
    5d22:	20 81       	ld	r18, Z
    5d24:	31 81       	ldd	r19, Z+1	; 0x01
    5d26:	2a 5f       	subi	r18, 0xFA	; 250
    5d28:	3f 4f       	sbci	r19, 0xFF	; 255
    5d2a:	ac 01       	movw	r20, r24
    5d2c:	bd 01       	movw	r22, r26
    5d2e:	c9 01       	movw	r24, r18
    5d30:	0e 94 1c 1b 	call	0x3638	; 0x3638 <f_lseek>
      DUMPX(" ", sev.data[i]);
    }
    if (sev.size>minLen)
      DUMPS("...");
#else
    if (mf->_sysexHandler != NULL)
    5d34:	ce 01       	movw	r24, r28
    5d36:	8a 58       	subi	r24, 0x8A	; 138
    5d38:	9f 4f       	sbci	r25, 0xFF	; 255
    5d3a:	fc 01       	movw	r30, r24
    5d3c:	80 81       	ld	r24, Z
    5d3e:	91 81       	ldd	r25, Z+1	; 0x01
    5d40:	fc 01       	movw	r30, r24
    5d42:	82 81       	ldd	r24, Z+2	; 0x02
    5d44:	93 81       	ldd	r25, Z+3	; 0x03
    5d46:	89 2b       	or	r24, r25
    5d48:	09 f4       	brne	.+2      	; 0x5d4c <parseEvent+0x472>
    5d4a:	7b c2       	rjmp	.+1270   	; 0x6242 <parseEvent+0x968>
      (mf->_sysexHandler)(&sev);
    5d4c:	ce 01       	movw	r24, r28
    5d4e:	8a 58       	subi	r24, 0x8A	; 138
    5d50:	9f 4f       	sbci	r25, 0xFF	; 255
    5d52:	fc 01       	movw	r30, r24
    5d54:	80 81       	ld	r24, Z
    5d56:	91 81       	ldd	r25, Z+1	; 0x01
    5d58:	fc 01       	movw	r30, r24
    5d5a:	22 81       	ldd	r18, Z+2	; 0x02
    5d5c:	33 81       	ldd	r19, Z+3	; 0x03
    5d5e:	ce 01       	movw	r24, r28
    5d60:	4c 96       	adiw	r24, 0x1c	; 28
    5d62:	f9 01       	movw	r30, r18
    5d64:	09 95       	icall
#endif
  }
  break;
    5d66:	6d c2       	rjmp	.+1242   	; 0x6242 <parseEvent+0x968>
  case 0xff:  // meta_event = 0xFF + <meta_type:1> + <length:v> + <event_data_bytes>
  {
    meta_event mev;

    //eType = 
	f_read(&mf->_fd,&eType,1,&bRead);
    5d68:	ce 01       	movw	r24, r28
    5d6a:	8a 58       	subi	r24, 0x8A	; 138
    5d6c:	9f 4f       	sbci	r25, 0xFF	; 255
    5d6e:	fc 01       	movw	r30, r24
    5d70:	80 81       	ld	r24, Z
    5d72:	91 81       	ldd	r25, Z+1	; 0x01
    5d74:	06 96       	adiw	r24, 0x06	; 6
    5d76:	9e 01       	movw	r18, r28
    5d78:	2a 5e       	subi	r18, 0xEA	; 234
    5d7a:	3f 4f       	sbci	r19, 0xFF	; 255
    5d7c:	be 01       	movw	r22, r28
    5d7e:	6b 5e       	subi	r22, 0xEB	; 235
    5d80:	7f 4f       	sbci	r23, 0xFF	; 255
    5d82:	41 e0       	ldi	r20, 0x01	; 1
    5d84:	50 e0       	ldi	r21, 0x00	; 0
    5d86:	0e 94 a8 17 	call	0x2f50	; 0x2f50 <f_read>
    mLen =  readVarLen(&mf->_fd);
    5d8a:	ce 01       	movw	r24, r28
    5d8c:	8a 58       	subi	r24, 0x8A	; 138
    5d8e:	9f 4f       	sbci	r25, 0xFF	; 255
    5d90:	fc 01       	movw	r30, r24
    5d92:	80 81       	ld	r24, Z
    5d94:	91 81       	ldd	r25, Z+1	; 0x01
    5d96:	06 96       	adiw	r24, 0x06	; 6
    5d98:	0e 94 b8 2a 	call	0x5570	; 0x5570 <readVarLen>
    5d9c:	dc 01       	movw	r26, r24
    5d9e:	cb 01       	movw	r24, r22
    5da0:	88 87       	std	Y+8, r24	; 0x08
    5da2:	99 87       	std	Y+9, r25	; 0x09
    5da4:	aa 87       	std	Y+10, r26	; 0x0a
    5da6:	bb 87       	std	Y+11, r27	; 0x0b

    mev.track = t->_trackId;
    5da8:	ce 01       	movw	r24, r28
    5daa:	88 58       	subi	r24, 0x88	; 136
    5dac:	9f 4f       	sbci	r25, 0xFF	; 255
    5dae:	fc 01       	movw	r30, r24
    5db0:	80 81       	ld	r24, Z
    5db2:	91 81       	ldd	r25, Z+1	; 0x01
    5db4:	fc 01       	movw	r30, r24
    5db6:	80 81       	ld	r24, Z
    5db8:	8c 8f       	std	Y+28, r24	; 0x1c
    mev.size = mLen;
    5dba:	88 85       	ldd	r24, Y+8	; 0x08
    5dbc:	99 85       	ldd	r25, Y+9	; 0x09
    5dbe:	9e 8f       	std	Y+30, r25	; 0x1e
    5dc0:	8d 8f       	std	Y+29, r24	; 0x1d
    mev.type = eType;
    5dc2:	8d 89       	ldd	r24, Y+21	; 0x15
    5dc4:	8f 8f       	std	Y+31, r24	; 0x1f

    DUMPX("[META] Type: 0x", eType);
    DUMP("\tLen: ", mLen);
    DUMPS("\t");

    switch (eType)
    5dc6:	8d 89       	ldd	r24, Y+21	; 0x15
    5dc8:	88 2f       	mov	r24, r24
    5dca:	90 e0       	ldi	r25, 0x00	; 0
    5dcc:	8f 32       	cpi	r24, 0x2F	; 47
    5dce:	91 05       	cpc	r25, r1
    5dd0:	d9 f0       	breq	.+54     	; 0x5e08 <parseEvent+0x52e>
    5dd2:	80 33       	cpi	r24, 0x30	; 48
    5dd4:	91 05       	cpc	r25, r1
    5dd6:	64 f4       	brge	.+24     	; 0x5df0 <parseEvent+0x516>
    5dd8:	80 32       	cpi	r24, 0x20	; 32
    5dda:	91 05       	cpc	r25, r1
    5ddc:	09 f4       	brne	.+2      	; 0x5de0 <parseEvent+0x506>
    5dde:	87 c1       	rjmp	.+782    	; 0x60ee <parseEvent+0x814>
    5de0:	81 32       	cpi	r24, 0x21	; 33
    5de2:	91 05       	cpc	r25, r1
    5de4:	09 f4       	brne	.+2      	; 0x5de8 <parseEvent+0x50e>
    5de6:	91 c1       	rjmp	.+802    	; 0x610a <parseEvent+0x830>
    5de8:	89 2b       	or	r24, r25
    5dea:	09 f4       	brne	.+2      	; 0x5dee <parseEvent+0x514>
    5dec:	6a c1       	rjmp	.+724    	; 0x60c2 <parseEvent+0x7e8>
    5dee:	9b c1       	rjmp	.+822    	; 0x6126 <parseEvent+0x84c>
    5df0:	88 35       	cpi	r24, 0x58	; 88
    5df2:	91 05       	cpc	r25, r1
    5df4:	09 f4       	brne	.+2      	; 0x5df8 <parseEvent+0x51e>
    5df6:	45 c0       	rjmp	.+138    	; 0x5e82 <parseEvent+0x5a8>
    5df8:	89 35       	cpi	r24, 0x59	; 89
    5dfa:	91 05       	cpc	r25, r1
    5dfc:	09 f4       	brne	.+2      	; 0x5e00 <parseEvent+0x526>
    5dfe:	a3 c0       	rjmp	.+326    	; 0x5f46 <parseEvent+0x66c>
    5e00:	81 35       	cpi	r24, 0x51	; 81
    5e02:	91 05       	cpc	r25, r1
    5e04:	59 f0       	breq	.+22     	; 0x5e1c <parseEvent+0x542>
    5e06:	8f c1       	rjmp	.+798    	; 0x6126 <parseEvent+0x84c>
    {
      case 0x2f:  // End of track
      {
        t->_endOfTrack = TRUE;
    5e08:	ce 01       	movw	r24, r28
    5e0a:	88 58       	subi	r24, 0x88	; 136
    5e0c:	9f 4f       	sbci	r25, 0xFF	; 255
    5e0e:	fc 01       	movw	r30, r24
    5e10:	80 81       	ld	r24, Z
    5e12:	91 81       	ldd	r25, Z+1	; 0x01
    5e14:	21 e0       	ldi	r18, 0x01	; 1
    5e16:	fc 01       	movw	r30, r24
    5e18:	25 87       	std	Z+13, r18	; 0x0d
        DUMPS("END OF TRACK");
      }
      break;
    5e1a:	ea c1       	rjmp	.+980    	; 0x61f0 <parseEvent+0x916>

      case 0x51:  // set Tempo - really the microseconds per tick
      {
        uint32_t value = readMultiByte(&mf->_fd, MB_TRYTE);
    5e1c:	ce 01       	movw	r24, r28
    5e1e:	8a 58       	subi	r24, 0x8A	; 138
    5e20:	9f 4f       	sbci	r25, 0xFF	; 255
    5e22:	fc 01       	movw	r30, r24
    5e24:	80 81       	ld	r24, Z
    5e26:	91 81       	ldd	r25, Z+1	; 0x01
    5e28:	06 96       	adiw	r24, 0x06	; 6
    5e2a:	63 e0       	ldi	r22, 0x03	; 3
    5e2c:	0e 94 6e 2a 	call	0x54dc	; 0x54dc <readMultiByte>
    5e30:	dc 01       	movw	r26, r24
    5e32:	cb 01       	movw	r24, r22
    5e34:	8e 87       	std	Y+14, r24	; 0x0e
    5e36:	9f 87       	std	Y+15, r25	; 0x0f
    5e38:	a8 8b       	std	Y+16, r26	; 0x10
    5e3a:	b9 8b       	std	Y+17, r27	; 0x11
        
        setMicrosecondPerQuarterNote(mf,value);
    5e3c:	8e 85       	ldd	r24, Y+14	; 0x0e
    5e3e:	9f 85       	ldd	r25, Y+15	; 0x0f
    5e40:	a8 89       	ldd	r26, Y+16	; 0x10
    5e42:	b9 89       	ldd	r27, Y+17	; 0x11
    5e44:	9e 01       	movw	r18, r28
    5e46:	2a 58       	subi	r18, 0x8A	; 138
    5e48:	3f 4f       	sbci	r19, 0xFF	; 255
    5e4a:	f9 01       	movw	r30, r18
    5e4c:	20 81       	ld	r18, Z
    5e4e:	31 81       	ldd	r19, Z+1	; 0x01
    5e50:	ac 01       	movw	r20, r24
    5e52:	bd 01       	movw	r22, r26
    5e54:	c9 01       	movw	r24, r18
    5e56:	0e 94 8f 26 	call	0x4d1e	; 0x4d1e <setMicrosecondPerQuarterNote>
        
        mev.data[0] = (value >> 16) & 0xFF;
    5e5a:	8e 85       	ldd	r24, Y+14	; 0x0e
    5e5c:	9f 85       	ldd	r25, Y+15	; 0x0f
    5e5e:	a8 89       	ldd	r26, Y+16	; 0x10
    5e60:	b9 89       	ldd	r27, Y+17	; 0x11
    5e62:	cd 01       	movw	r24, r26
    5e64:	aa 27       	eor	r26, r26
    5e66:	bb 27       	eor	r27, r27
    5e68:	88 a3       	std	Y+32, r24	; 0x20
        mev.data[1] = (value >> 8) & 0xFF;
    5e6a:	8e 85       	ldd	r24, Y+14	; 0x0e
    5e6c:	9f 85       	ldd	r25, Y+15	; 0x0f
    5e6e:	a8 89       	ldd	r26, Y+16	; 0x10
    5e70:	b9 89       	ldd	r27, Y+17	; 0x11
    5e72:	89 2f       	mov	r24, r25
    5e74:	9a 2f       	mov	r25, r26
    5e76:	ab 2f       	mov	r26, r27
    5e78:	bb 27       	eor	r27, r27
    5e7a:	89 a3       	std	Y+33, r24	; 0x21
        mev.data[2] = value & 0xFF;
    5e7c:	8e 85       	ldd	r24, Y+14	; 0x0e
    5e7e:	8a a3       	std	Y+34, r24	; 0x22
        
        DUMP("SET TEMPO to ", getTickTime(mf));
        DUMP(" us/tick or ", getTempo(mf));
        DUMPS(" beats/min");
      }
      break;
    5e80:	b7 c1       	rjmp	.+878    	; 0x61f0 <parseEvent+0x916>

      case 0x58:  // time signature
      {
        uint8_t n,d;
		f_read(&mf->_fd,&n,1,&bRead);
    5e82:	ce 01       	movw	r24, r28
    5e84:	8a 58       	subi	r24, 0x8A	; 138
    5e86:	9f 4f       	sbci	r25, 0xFF	; 255
    5e88:	fc 01       	movw	r30, r24
    5e8a:	80 81       	ld	r24, Z
    5e8c:	91 81       	ldd	r25, Z+1	; 0x01
    5e8e:	06 96       	adiw	r24, 0x06	; 6
    5e90:	9e 01       	movw	r18, r28
    5e92:	2a 5e       	subi	r18, 0xEA	; 234
    5e94:	3f 4f       	sbci	r19, 0xFF	; 255
    5e96:	be 01       	movw	r22, r28
    5e98:	68 5e       	subi	r22, 0xE8	; 232
    5e9a:	7f 4f       	sbci	r23, 0xFF	; 255
    5e9c:	41 e0       	ldi	r20, 0x01	; 1
    5e9e:	50 e0       	ldi	r21, 0x00	; 0
    5ea0:	0e 94 a8 17 	call	0x2f50	; 0x2f50 <f_read>
        f_read(&mf->_fd,&d,1,&bRead);
    5ea4:	ce 01       	movw	r24, r28
    5ea6:	8a 58       	subi	r24, 0x8A	; 138
    5ea8:	9f 4f       	sbci	r25, 0xFF	; 255
    5eaa:	fc 01       	movw	r30, r24
    5eac:	80 81       	ld	r24, Z
    5eae:	91 81       	ldd	r25, Z+1	; 0x01
    5eb0:	06 96       	adiw	r24, 0x06	; 6
    5eb2:	9e 01       	movw	r18, r28
    5eb4:	2a 5e       	subi	r18, 0xEA	; 234
    5eb6:	3f 4f       	sbci	r19, 0xFF	; 255
    5eb8:	be 01       	movw	r22, r28
    5eba:	67 5e       	subi	r22, 0xE7	; 231
    5ebc:	7f 4f       	sbci	r23, 0xFF	; 255
    5ebe:	41 e0       	ldi	r20, 0x01	; 1
    5ec0:	50 e0       	ldi	r21, 0x00	; 0
    5ec2:	0e 94 a8 17 	call	0x2f50	; 0x2f50 <f_read>
        
        setTimeSignature(mf,n, 1 << d);  // denominator is 2^n
    5ec6:	89 8d       	ldd	r24, Y+25	; 0x19
    5ec8:	28 2f       	mov	r18, r24
    5eca:	30 e0       	ldi	r19, 0x00	; 0
    5ecc:	81 e0       	ldi	r24, 0x01	; 1
    5ece:	90 e0       	ldi	r25, 0x00	; 0
    5ed0:	02 c0       	rjmp	.+4      	; 0x5ed6 <parseEvent+0x5fc>
    5ed2:	88 0f       	add	r24, r24
    5ed4:	99 1f       	adc	r25, r25
    5ed6:	2a 95       	dec	r18
    5ed8:	e2 f7       	brpl	.-8      	; 0x5ed2 <parseEvent+0x5f8>
    5eda:	38 2f       	mov	r19, r24
    5edc:	28 8d       	ldd	r18, Y+24	; 0x18
    5ede:	ce 01       	movw	r24, r28
    5ee0:	8a 58       	subi	r24, 0x8A	; 138
    5ee2:	9f 4f       	sbci	r25, 0xFF	; 255
    5ee4:	fc 01       	movw	r30, r24
    5ee6:	80 81       	ld	r24, Z
    5ee8:	91 81       	ldd	r25, Z+1	; 0x01
    5eea:	43 2f       	mov	r20, r19
    5eec:	62 2f       	mov	r22, r18
    5eee:	0e 94 4e 26 	call	0x4c9c	; 0x4c9c <setTimeSignature>
        f_lseek(&mf->_fd,f_tell(&mf->_fd) + (mLen - 2));
    5ef2:	ce 01       	movw	r24, r28
    5ef4:	8a 58       	subi	r24, 0x8A	; 138
    5ef6:	9f 4f       	sbci	r25, 0xFF	; 255
    5ef8:	fc 01       	movw	r30, r24
    5efa:	80 81       	ld	r24, Z
    5efc:	91 81       	ldd	r25, Z+1	; 0x01
    5efe:	fc 01       	movw	r30, r24
    5f00:	24 85       	ldd	r18, Z+12	; 0x0c
    5f02:	35 85       	ldd	r19, Z+13	; 0x0d
    5f04:	46 85       	ldd	r20, Z+14	; 0x0e
    5f06:	57 85       	ldd	r21, Z+15	; 0x0f
    5f08:	88 85       	ldd	r24, Y+8	; 0x08
    5f0a:	99 85       	ldd	r25, Y+9	; 0x09
    5f0c:	aa 85       	ldd	r26, Y+10	; 0x0a
    5f0e:	bb 85       	ldd	r27, Y+11	; 0x0b
    5f10:	82 0f       	add	r24, r18
    5f12:	93 1f       	adc	r25, r19
    5f14:	a4 1f       	adc	r26, r20
    5f16:	b5 1f       	adc	r27, r21
    5f18:	02 97       	sbiw	r24, 0x02	; 2
    5f1a:	a1 09       	sbc	r26, r1
    5f1c:	b1 09       	sbc	r27, r1
    5f1e:	9e 01       	movw	r18, r28
    5f20:	2a 58       	subi	r18, 0x8A	; 138
    5f22:	3f 4f       	sbci	r19, 0xFF	; 255
    5f24:	f9 01       	movw	r30, r18
    5f26:	20 81       	ld	r18, Z
    5f28:	31 81       	ldd	r19, Z+1	; 0x01
    5f2a:	2a 5f       	subi	r18, 0xFA	; 250
    5f2c:	3f 4f       	sbci	r19, 0xFF	; 255
    5f2e:	ac 01       	movw	r20, r24
    5f30:	bd 01       	movw	r22, r26
    5f32:	c9 01       	movw	r24, r18
    5f34:	0e 94 1c 1b 	call	0x3638	; 0x3638 <f_lseek>

        mev.data[0] = n;
    5f38:	88 8d       	ldd	r24, Y+24	; 0x18
    5f3a:	88 a3       	std	Y+32, r24	; 0x20
        mev.data[1] = d;
    5f3c:	89 8d       	ldd	r24, Y+25	; 0x19
    5f3e:	89 a3       	std	Y+33, r24	; 0x21
        mev.data[2] = 0;
    5f40:	1a a2       	std	Y+34, r1	; 0x22
        mev.data[3] = 0;
    5f42:	1b a2       	std	Y+35, r1	; 0x23

        DUMP("SET TIME SIGNATURE to ", getTimeSignature(mf) >> 8);
        DUMP("/", getTimeSignature(mf) & 0xf);
      }
      break;
    5f44:	55 c1       	rjmp	.+682    	; 0x61f0 <parseEvent+0x916>

      case 0x59:  // Key Signature
      {
        int8_t sf,mi;
		DUMPS("KEY SIGNATURE");
        f_read(&mf->_fd,&sf,1,&bRead);
    5f46:	ce 01       	movw	r24, r28
    5f48:	8a 58       	subi	r24, 0x8A	; 138
    5f4a:	9f 4f       	sbci	r25, 0xFF	; 255
    5f4c:	fc 01       	movw	r30, r24
    5f4e:	80 81       	ld	r24, Z
    5f50:	91 81       	ldd	r25, Z+1	; 0x01
    5f52:	06 96       	adiw	r24, 0x06	; 6
    5f54:	9e 01       	movw	r18, r28
    5f56:	2a 5e       	subi	r18, 0xEA	; 234
    5f58:	3f 4f       	sbci	r19, 0xFF	; 255
    5f5a:	be 01       	movw	r22, r28
    5f5c:	66 5e       	subi	r22, 0xE6	; 230
    5f5e:	7f 4f       	sbci	r23, 0xFF	; 255
    5f60:	41 e0       	ldi	r20, 0x01	; 1
    5f62:	50 e0       	ldi	r21, 0x00	; 0
    5f64:	0e 94 a8 17 	call	0x2f50	; 0x2f50 <f_read>
        f_read(&mf->_fd,&mi,1,&bRead);
    5f68:	ce 01       	movw	r24, r28
    5f6a:	8a 58       	subi	r24, 0x8A	; 138
    5f6c:	9f 4f       	sbci	r25, 0xFF	; 255
    5f6e:	fc 01       	movw	r30, r24
    5f70:	80 81       	ld	r24, Z
    5f72:	91 81       	ldd	r25, Z+1	; 0x01
    5f74:	06 96       	adiw	r24, 0x06	; 6
    5f76:	9e 01       	movw	r18, r28
    5f78:	2a 5e       	subi	r18, 0xEA	; 234
    5f7a:	3f 4f       	sbci	r19, 0xFF	; 255
    5f7c:	be 01       	movw	r22, r28
    5f7e:	65 5e       	subi	r22, 0xE5	; 229
    5f80:	7f 4f       	sbci	r23, 0xFF	; 255
    5f82:	41 e0       	ldi	r20, 0x01	; 1
    5f84:	50 e0       	ldi	r21, 0x00	; 0
    5f86:	0e 94 a8 17 	call	0x2f50	; 0x2f50 <f_read>
        const char* aaa[] = {"Cb", "Gb", "Db", "Ab", "Eb", "Bb", "F", "C", "G", "D", "A", "E", "B", "F#", "C#", "G#", "D#", "A#"};
    5f8a:	ce 01       	movw	r24, r28
    5f8c:	8e 5a       	subi	r24, 0xAE	; 174
    5f8e:	9f 4f       	sbci	r25, 0xFF	; 255
    5f90:	24 e2       	ldi	r18, 0x24	; 36
    5f92:	e1 ee       	ldi	r30, 0xE1	; 225
    5f94:	f0 e0       	ldi	r31, 0x00	; 0
    5f96:	dc 01       	movw	r26, r24
    5f98:	01 90       	ld	r0, Z+
    5f9a:	0d 92       	st	X+, r0
    5f9c:	2a 95       	dec	r18
    5f9e:	e1 f7       	brne	.-8      	; 0x5f98 <parseEvent+0x6be>

        if (sf >= -7 && sf <= 7) 
    5fa0:	8a 8d       	ldd	r24, Y+26	; 0x1a
    5fa2:	89 3f       	cpi	r24, 0xF9	; 249
    5fa4:	0c f4       	brge	.+2      	; 0x5fa8 <parseEvent+0x6ce>
    5fa6:	78 c0       	rjmp	.+240    	; 0x6098 <parseEvent+0x7be>
    5fa8:	8a 8d       	ldd	r24, Y+26	; 0x1a
    5faa:	88 30       	cpi	r24, 0x08	; 8
    5fac:	0c f0       	brlt	.+2      	; 0x5fb0 <parseEvent+0x6d6>
    5fae:	74 c0       	rjmp	.+232    	; 0x6098 <parseEvent+0x7be>
        {
          switch(mi)
    5fb0:	8b 8d       	ldd	r24, Y+27	; 0x1b
    5fb2:	08 2e       	mov	r0, r24
    5fb4:	00 0c       	add	r0, r0
    5fb6:	99 0b       	sbc	r25, r25
    5fb8:	00 97       	sbiw	r24, 0x00	; 0
    5fba:	19 f0       	breq	.+6      	; 0x5fc2 <parseEvent+0x6e8>
    5fbc:	01 97       	sbiw	r24, 0x01	; 1
    5fbe:	79 f1       	breq	.+94     	; 0x601e <parseEvent+0x744>
    5fc0:	5c c0       	rjmp	.+184    	; 0x607a <parseEvent+0x7a0>
          {
            case 0:
              strcpy(mev.chars, aaa[sf+7]);
    5fc2:	8a 8d       	ldd	r24, Y+26	; 0x1a
    5fc4:	08 2e       	mov	r0, r24
    5fc6:	00 0c       	add	r0, r0
    5fc8:	99 0b       	sbc	r25, r25
    5fca:	07 96       	adiw	r24, 0x07	; 7
    5fcc:	9e 01       	movw	r18, r28
    5fce:	2e 5a       	subi	r18, 0xAE	; 174
    5fd0:	3f 4f       	sbci	r19, 0xFF	; 255
    5fd2:	88 0f       	add	r24, r24
    5fd4:	99 1f       	adc	r25, r25
    5fd6:	82 0f       	add	r24, r18
    5fd8:	93 1f       	adc	r25, r19
    5fda:	fc 01       	movw	r30, r24
    5fdc:	20 81       	ld	r18, Z
    5fde:	31 81       	ldd	r19, Z+1	; 0x01
    5fe0:	ce 01       	movw	r24, r28
    5fe2:	4c 96       	adiw	r24, 0x1c	; 28
    5fe4:	04 96       	adiw	r24, 0x04	; 4
    5fe6:	b9 01       	movw	r22, r18
    5fe8:	0e 94 cf 3e 	call	0x7d9e	; 0x7d9e <strcpy>
              strcat(mev.chars, "M");
    5fec:	ce 01       	movw	r24, r28
    5fee:	4c 96       	adiw	r24, 0x1c	; 28
    5ff0:	04 96       	adiw	r24, 0x04	; 4
    5ff2:	9c 01       	movw	r18, r24
    5ff4:	f9 01       	movw	r30, r18
    5ff6:	01 90       	ld	r0, Z+
    5ff8:	00 20       	and	r0, r0
    5ffa:	e9 f7       	brne	.-6      	; 0x5ff6 <parseEvent+0x71c>
    5ffc:	cf 01       	movw	r24, r30
    5ffe:	01 97       	sbiw	r24, 0x01	; 1
    6000:	82 1b       	sub	r24, r18
    6002:	93 0b       	sbc	r25, r19
    6004:	9e 01       	movw	r18, r28
    6006:	24 5e       	subi	r18, 0xE4	; 228
    6008:	3f 4f       	sbci	r19, 0xFF	; 255
    600a:	2c 5f       	subi	r18, 0xFC	; 252
    600c:	3f 4f       	sbci	r19, 0xFF	; 255
    600e:	82 0f       	add	r24, r18
    6010:	93 1f       	adc	r25, r19
    6012:	2d e4       	ldi	r18, 0x4D	; 77
    6014:	30 e0       	ldi	r19, 0x00	; 0
    6016:	fc 01       	movw	r30, r24
    6018:	31 83       	std	Z+1, r19	; 0x01
    601a:	20 83       	st	Z, r18
              break;
    601c:	3c c0       	rjmp	.+120    	; 0x6096 <parseEvent+0x7bc>
            case 1:
              strcpy(mev.chars, aaa[sf+10]);
    601e:	8a 8d       	ldd	r24, Y+26	; 0x1a
    6020:	08 2e       	mov	r0, r24
    6022:	00 0c       	add	r0, r0
    6024:	99 0b       	sbc	r25, r25
    6026:	0a 96       	adiw	r24, 0x0a	; 10
    6028:	9e 01       	movw	r18, r28
    602a:	2e 5a       	subi	r18, 0xAE	; 174
    602c:	3f 4f       	sbci	r19, 0xFF	; 255
    602e:	88 0f       	add	r24, r24
    6030:	99 1f       	adc	r25, r25
    6032:	82 0f       	add	r24, r18
    6034:	93 1f       	adc	r25, r19
    6036:	fc 01       	movw	r30, r24
    6038:	20 81       	ld	r18, Z
    603a:	31 81       	ldd	r19, Z+1	; 0x01
    603c:	ce 01       	movw	r24, r28
    603e:	4c 96       	adiw	r24, 0x1c	; 28
    6040:	04 96       	adiw	r24, 0x04	; 4
    6042:	b9 01       	movw	r22, r18
    6044:	0e 94 cf 3e 	call	0x7d9e	; 0x7d9e <strcpy>
              strcat(mev.chars, "m");
    6048:	ce 01       	movw	r24, r28
    604a:	4c 96       	adiw	r24, 0x1c	; 28
    604c:	04 96       	adiw	r24, 0x04	; 4
    604e:	9c 01       	movw	r18, r24
    6050:	f9 01       	movw	r30, r18
    6052:	01 90       	ld	r0, Z+
    6054:	00 20       	and	r0, r0
    6056:	e9 f7       	brne	.-6      	; 0x6052 <parseEvent+0x778>
    6058:	cf 01       	movw	r24, r30
    605a:	01 97       	sbiw	r24, 0x01	; 1
    605c:	82 1b       	sub	r24, r18
    605e:	93 0b       	sbc	r25, r19
    6060:	9e 01       	movw	r18, r28
    6062:	24 5e       	subi	r18, 0xE4	; 228
    6064:	3f 4f       	sbci	r19, 0xFF	; 255
    6066:	2c 5f       	subi	r18, 0xFC	; 252
    6068:	3f 4f       	sbci	r19, 0xFF	; 255
    606a:	82 0f       	add	r24, r18
    606c:	93 1f       	adc	r25, r19
    606e:	2d e6       	ldi	r18, 0x6D	; 109
    6070:	30 e0       	ldi	r19, 0x00	; 0
    6072:	fc 01       	movw	r30, r24
    6074:	31 83       	std	Z+1, r19	; 0x01
    6076:	20 83       	st	Z, r18
              break;
    6078:	0e c0       	rjmp	.+28     	; 0x6096 <parseEvent+0x7bc>
            default:
              strcpy(mev.chars, "Err"); // error mi
    607a:	ce 01       	movw	r24, r28
    607c:	4c 96       	adiw	r24, 0x1c	; 28
    607e:	04 96       	adiw	r24, 0x04	; 4
    6080:	25 e4       	ldi	r18, 0x45	; 69
    6082:	32 e7       	ldi	r19, 0x72	; 114
    6084:	fc 01       	movw	r30, r24
    6086:	31 83       	std	Z+1, r19	; 0x01
    6088:	20 83       	st	Z, r18
    608a:	22 e7       	ldi	r18, 0x72	; 114
    608c:	30 e0       	ldi	r19, 0x00	; 0
    608e:	fc 01       	movw	r30, r24
    6090:	33 83       	std	Z+3, r19	; 0x03
    6092:	22 83       	std	Z+2, r18	; 0x02
          }
        } else
    6094:	0e c0       	rjmp	.+28     	; 0x60b2 <parseEvent+0x7d8>
    6096:	0d c0       	rjmp	.+26     	; 0x60b2 <parseEvent+0x7d8>
          strcpy(mev.chars, "Err"); // error sf
    6098:	ce 01       	movw	r24, r28
    609a:	4c 96       	adiw	r24, 0x1c	; 28
    609c:	04 96       	adiw	r24, 0x04	; 4
    609e:	25 e4       	ldi	r18, 0x45	; 69
    60a0:	32 e7       	ldi	r19, 0x72	; 114
    60a2:	fc 01       	movw	r30, r24
    60a4:	31 83       	std	Z+1, r19	; 0x01
    60a6:	20 83       	st	Z, r18
    60a8:	22 e7       	ldi	r18, 0x72	; 114
    60aa:	30 e0       	ldi	r19, 0x00	; 0
    60ac:	fc 01       	movw	r30, r24
    60ae:	33 83       	std	Z+3, r19	; 0x03
    60b0:	22 83       	std	Z+2, r18	; 0x02

        mev.size = strlen(mev.chars); // change META length
    60b2:	ce 01       	movw	r24, r28
    60b4:	4c 96       	adiw	r24, 0x1c	; 28
    60b6:	04 96       	adiw	r24, 0x04	; 4
    60b8:	0e 94 d6 3e 	call	0x7dac	; 0x7dac <strlen>
    60bc:	9e 8f       	std	Y+30, r25	; 0x1e
    60be:	8d 8f       	std	Y+29, r24	; 0x1d
        DUMP(" ", mev.chars);
      }
      break;
    60c0:	97 c0       	rjmp	.+302    	; 0x61f0 <parseEvent+0x916>

      case 0x00:  // Sequence Number
      {
        uint16_t x = readMultiByte(&mf->_fd, MB_WORD);
    60c2:	ce 01       	movw	r24, r28
    60c4:	8a 58       	subi	r24, 0x8A	; 138
    60c6:	9f 4f       	sbci	r25, 0xFF	; 255
    60c8:	fc 01       	movw	r30, r24
    60ca:	80 81       	ld	r24, Z
    60cc:	91 81       	ldd	r25, Z+1	; 0x01
    60ce:	06 96       	adiw	r24, 0x06	; 6
    60d0:	62 e0       	ldi	r22, 0x02	; 2
    60d2:	0e 94 6e 2a 	call	0x54dc	; 0x54dc <readMultiByte>
    60d6:	dc 01       	movw	r26, r24
    60d8:	cb 01       	movw	r24, r22
    60da:	9b 8b       	std	Y+19, r25	; 0x13
    60dc:	8a 8b       	std	Y+18, r24	; 0x12

        mev.data[0] = (x >> 8) & 0xFF;
    60de:	8a 89       	ldd	r24, Y+18	; 0x12
    60e0:	9b 89       	ldd	r25, Y+19	; 0x13
    60e2:	89 2f       	mov	r24, r25
    60e4:	99 27       	eor	r25, r25
    60e6:	88 a3       	std	Y+32, r24	; 0x20
        mev.data[1] = x & 0xFF;
    60e8:	8a 89       	ldd	r24, Y+18	; 0x12
    60ea:	89 a3       	std	Y+33, r24	; 0x21

        DUMP("SEQUENCE NUMBER ", mev.data[0]);
        DUMP(" ", mev.data[1]);
      }
      break;
    60ec:	81 c0       	rjmp	.+258    	; 0x61f0 <parseEvent+0x916>

      case 0x20:  // Channel Prefix
      mev.data[0] = readMultiByte(&mf->_fd, MB_BYTE);
    60ee:	ce 01       	movw	r24, r28
    60f0:	8a 58       	subi	r24, 0x8A	; 138
    60f2:	9f 4f       	sbci	r25, 0xFF	; 255
    60f4:	fc 01       	movw	r30, r24
    60f6:	80 81       	ld	r24, Z
    60f8:	91 81       	ldd	r25, Z+1	; 0x01
    60fa:	06 96       	adiw	r24, 0x06	; 6
    60fc:	61 e0       	ldi	r22, 0x01	; 1
    60fe:	0e 94 6e 2a 	call	0x54dc	; 0x54dc <readMultiByte>
    6102:	dc 01       	movw	r26, r24
    6104:	cb 01       	movw	r24, r22
    6106:	88 a3       	std	Y+32, r24	; 0x20
      DUMP("CHANNEL PREFIX ", mev.data[0]);
      break;
    6108:	73 c0       	rjmp	.+230    	; 0x61f0 <parseEvent+0x916>

      case 0x21:  // Port Prefix
      mev.data[0] = readMultiByte(&mf->_fd, MB_BYTE);
    610a:	ce 01       	movw	r24, r28
    610c:	8a 58       	subi	r24, 0x8A	; 138
    610e:	9f 4f       	sbci	r25, 0xFF	; 255
    6110:	fc 01       	movw	r30, r24
    6112:	80 81       	ld	r24, Z
    6114:	91 81       	ldd	r25, Z+1	; 0x01
    6116:	06 96       	adiw	r24, 0x06	; 6
    6118:	61 e0       	ldi	r22, 0x01	; 1
    611a:	0e 94 6e 2a 	call	0x54dc	; 0x54dc <readMultiByte>
    611e:	dc 01       	movw	r26, r24
    6120:	cb 01       	movw	r24, r22
    6122:	88 a3       	std	Y+32, r24	; 0x20
      DUMP("PORT PREFIX ", mev.data[0]);
      break;
    6124:	65 c0       	rjmp	.+202    	; 0x61f0 <parseEvent+0x916>
      break;
#endif // SHOW_UNUSED_META

      default:
      {
        uint8_t minLen = min(ARRAY_SIZE(mev.data), mLen);
    6126:	88 85       	ldd	r24, Y+8	; 0x08
    6128:	99 85       	ldd	r25, Y+9	; 0x09
    612a:	aa 85       	ldd	r26, Y+10	; 0x0a
    612c:	bb 85       	ldd	r27, Y+11	; 0x0b
    612e:	83 33       	cpi	r24, 0x33	; 51
    6130:	91 05       	cpc	r25, r1
    6132:	a1 05       	cpc	r26, r1
    6134:	b1 05       	cpc	r27, r1
    6136:	20 f0       	brcs	.+8      	; 0x6140 <parseEvent+0x866>
    6138:	82 e3       	ldi	r24, 0x32	; 50
    613a:	90 e0       	ldi	r25, 0x00	; 0
    613c:	a0 e0       	ldi	r26, 0x00	; 0
    613e:	b0 e0       	ldi	r27, 0x00	; 0
    6140:	8c 8b       	std	Y+20, r24	; 0x14
        
        for (uint8_t i = 0; i < minLen; ++i)
    6142:	1f 82       	std	Y+7, r1	; 0x07
    6144:	1b c0       	rjmp	.+54     	; 0x617c <parseEvent+0x8a2>
          f_read(&mf->_fd,&mev.data[i],1,&bRead); // read next
    6146:	8f 81       	ldd	r24, Y+7	; 0x07
    6148:	88 2f       	mov	r24, r24
    614a:	90 e0       	ldi	r25, 0x00	; 0
    614c:	9e 01       	movw	r18, r28
    614e:	24 5e       	subi	r18, 0xE4	; 228
    6150:	3f 4f       	sbci	r19, 0xFF	; 255
    6152:	04 96       	adiw	r24, 0x04	; 4
    6154:	b9 01       	movw	r22, r18
    6156:	68 0f       	add	r22, r24
    6158:	79 1f       	adc	r23, r25
    615a:	ce 01       	movw	r24, r28
    615c:	8a 58       	subi	r24, 0x8A	; 138
    615e:	9f 4f       	sbci	r25, 0xFF	; 255
    6160:	fc 01       	movw	r30, r24
    6162:	80 81       	ld	r24, Z
    6164:	91 81       	ldd	r25, Z+1	; 0x01
    6166:	06 96       	adiw	r24, 0x06	; 6
    6168:	9e 01       	movw	r18, r28
    616a:	2a 5e       	subi	r18, 0xEA	; 234
    616c:	3f 4f       	sbci	r19, 0xFF	; 255
    616e:	41 e0       	ldi	r20, 0x01	; 1
    6170:	50 e0       	ldi	r21, 0x00	; 0
    6172:	0e 94 a8 17 	call	0x2f50	; 0x2f50 <f_read>

      default:
      {
        uint8_t minLen = min(ARRAY_SIZE(mev.data), mLen);
        
        for (uint8_t i = 0; i < minLen; ++i)
    6176:	8f 81       	ldd	r24, Y+7	; 0x07
    6178:	8f 5f       	subi	r24, 0xFF	; 255
    617a:	8f 83       	std	Y+7, r24	; 0x07
    617c:	9f 81       	ldd	r25, Y+7	; 0x07
    617e:	8c 89       	ldd	r24, Y+20	; 0x14
    6180:	98 17       	cp	r25, r24
    6182:	08 f3       	brcs	.-62     	; 0x6146 <parseEvent+0x86c>
          f_read(&mf->_fd,&mev.data[i],1,&bRead); // read next
		 		  
        mev.chars[minLen] = '\0'; // in case it is a string
    6184:	8c 89       	ldd	r24, Y+20	; 0x14
    6186:	88 2f       	mov	r24, r24
    6188:	90 e0       	ldi	r25, 0x00	; 0
    618a:	9e 01       	movw	r18, r28
    618c:	20 5e       	subi	r18, 0xE0	; 224
    618e:	3f 4f       	sbci	r19, 0xFF	; 255
    6190:	82 0f       	add	r24, r18
    6192:	93 1f       	adc	r25, r19
    6194:	fc 01       	movw	r30, r24
    6196:	10 82       	st	Z, r1
        if (mLen > ARRAY_SIZE(mev.data))
    6198:	88 85       	ldd	r24, Y+8	; 0x08
    619a:	99 85       	ldd	r25, Y+9	; 0x09
    619c:	aa 85       	ldd	r26, Y+10	; 0x0a
    619e:	bb 85       	ldd	r27, Y+11	; 0x0b
    61a0:	c3 97       	sbiw	r24, 0x33	; 51
    61a2:	a1 05       	cpc	r26, r1
    61a4:	b1 05       	cpc	r27, r1
    61a6:	18 f1       	brcs	.+70     	; 0x61ee <parseEvent+0x914>
          f_lseek(&mf->_fd,f_tell(&mf->_fd) + (mLen-ARRAY_SIZE(mev.data)));
    61a8:	ce 01       	movw	r24, r28
    61aa:	8a 58       	subi	r24, 0x8A	; 138
    61ac:	9f 4f       	sbci	r25, 0xFF	; 255
    61ae:	fc 01       	movw	r30, r24
    61b0:	80 81       	ld	r24, Z
    61b2:	91 81       	ldd	r25, Z+1	; 0x01
    61b4:	fc 01       	movw	r30, r24
    61b6:	24 85       	ldd	r18, Z+12	; 0x0c
    61b8:	35 85       	ldd	r19, Z+13	; 0x0d
    61ba:	46 85       	ldd	r20, Z+14	; 0x0e
    61bc:	57 85       	ldd	r21, Z+15	; 0x0f
    61be:	88 85       	ldd	r24, Y+8	; 0x08
    61c0:	99 85       	ldd	r25, Y+9	; 0x09
    61c2:	aa 85       	ldd	r26, Y+10	; 0x0a
    61c4:	bb 85       	ldd	r27, Y+11	; 0x0b
    61c6:	82 0f       	add	r24, r18
    61c8:	93 1f       	adc	r25, r19
    61ca:	a4 1f       	adc	r26, r20
    61cc:	b5 1f       	adc	r27, r21
    61ce:	c2 97       	sbiw	r24, 0x32	; 50
    61d0:	a1 09       	sbc	r26, r1
    61d2:	b1 09       	sbc	r27, r1
    61d4:	9e 01       	movw	r18, r28
    61d6:	2a 58       	subi	r18, 0x8A	; 138
    61d8:	3f 4f       	sbci	r19, 0xFF	; 255
    61da:	f9 01       	movw	r30, r18
    61dc:	20 81       	ld	r18, Z
    61de:	31 81       	ldd	r19, Z+1	; 0x01
    61e0:	2a 5f       	subi	r18, 0xFA	; 250
    61e2:	3f 4f       	sbci	r19, 0xFF	; 255
    61e4:	ac 01       	movw	r20, r24
    61e6:	bd 01       	movw	r22, r26
    61e8:	c9 01       	movw	r24, r18
    61ea:	0e 94 1c 1b 	call	0x3638	; 0x3638 <f_lseek>
  //    DUMPS("IGNORED");
      }
      break;
    61ee:	00 00       	nop
    }
    if (mf->_metaHandler != NULL)
    61f0:	ce 01       	movw	r24, r28
    61f2:	8a 58       	subi	r24, 0x8A	; 138
    61f4:	9f 4f       	sbci	r25, 0xFF	; 255
    61f6:	fc 01       	movw	r30, r24
    61f8:	80 81       	ld	r24, Z
    61fa:	91 81       	ldd	r25, Z+1	; 0x01
    61fc:	fc 01       	movw	r30, r24
    61fe:	84 81       	ldd	r24, Z+4	; 0x04
    6200:	95 81       	ldd	r25, Z+5	; 0x05
    6202:	89 2b       	or	r24, r25
    6204:	01 f1       	breq	.+64     	; 0x6246 <parseEvent+0x96c>
      (mf->_metaHandler)(&mev);
    6206:	ce 01       	movw	r24, r28
    6208:	8a 58       	subi	r24, 0x8A	; 138
    620a:	9f 4f       	sbci	r25, 0xFF	; 255
    620c:	fc 01       	movw	r30, r24
    620e:	80 81       	ld	r24, Z
    6210:	91 81       	ldd	r25, Z+1	; 0x01
    6212:	fc 01       	movw	r30, r24
    6214:	24 81       	ldd	r18, Z+4	; 0x04
    6216:	35 81       	ldd	r19, Z+5	; 0x05
    6218:	ce 01       	movw	r24, r28
    621a:	4c 96       	adiw	r24, 0x1c	; 28
    621c:	f9 01       	movw	r30, r18
    621e:	09 95       	icall
  }
  break;
    6220:	12 c0       	rjmp	.+36     	; 0x6246 <parseEvent+0x96c>
  
// ---------------------------- UNKNOWN
  default:
    // stop playing this track as we cannot identify the eType
    t->_endOfTrack = TRUE;
    6222:	ce 01       	movw	r24, r28
    6224:	88 58       	subi	r24, 0x88	; 136
    6226:	9f 4f       	sbci	r25, 0xFF	; 255
    6228:	fc 01       	movw	r30, r24
    622a:	80 81       	ld	r24, Z
    622c:	91 81       	ldd	r25, Z+1	; 0x01
    622e:	21 e0       	ldi	r18, 0x01	; 1
    6230:	fc 01       	movw	r30, r24
    6232:	25 87       	std	Z+13, r18	; 0x0d
    DUMPX("[UKNOWN 0x", eType);
    DUMPS("] Track aborted");
    break;
    6234:	09 c0       	rjmp	.+18     	; 0x6248 <parseEvent+0x96e>
    DUMPX(" ", _mev.data[2]);	
#if !DUMP_DATA
    if (mf->_midiHandler != NULL)
      (mf->_midiHandler)(&t->_mev);
#endif // !DUMP_DATA
  break;
    6236:	00 00       	nop
    6238:	07 c0       	rjmp	.+14     	; 0x6248 <parseEvent+0x96e>

#if !DUMP_DATA
    if (mf->_midiHandler != NULL)
      (mf->_midiHandler)(&t->_mev);
#endif
  break;
    623a:	00 00       	nop
    623c:	05 c0       	rjmp	.+10     	; 0x6248 <parseEvent+0x96e>
#if !DUMP_DATA
    if (mf->_midiHandler != NULL)
      (mf->_midiHandler)(&t->_mev);
#endif
  }
  break;
    623e:	00 00       	nop
    6240:	03 c0       	rjmp	.+6      	; 0x6248 <parseEvent+0x96e>
#else
    if (mf->_sysexHandler != NULL)
      (mf->_sysexHandler)(&sev);
#endif
  }
  break;
    6242:	00 00       	nop
    6244:	01 c0       	rjmp	.+2      	; 0x6248 <parseEvent+0x96e>
      break;
    }
    if (mf->_metaHandler != NULL)
      (mf->_metaHandler)(&mev);
  }
  break;
    6246:	00 00       	nop
    t->_endOfTrack = TRUE;
    DUMPX("[UKNOWN 0x", eType);
    DUMPS("] Track aborted");
    break;
  }
}
    6248:	00 00       	nop
    624a:	c7 58       	subi	r28, 0x87	; 135
    624c:	df 4f       	sbci	r29, 0xFF	; 255
    624e:	0f b6       	in	r0, 0x3f	; 63
    6250:	f8 94       	cli
    6252:	de bf       	out	0x3e, r29	; 62
    6254:	0f be       	out	0x3f, r0	; 63
    6256:	cd bf       	out	0x3d, r28	; 61
    6258:	df 91       	pop	r29
    625a:	cf 91       	pop	r28
    625c:	08 95       	ret

0000625e <loadTrack>:

int loadTrack(struct MD_MFTrack *t,uint8_t trackId, struct MD_MIDIFile *mf)
{
    625e:	cf 93       	push	r28
    6260:	df 93       	push	r29
    6262:	cd b7       	in	r28, 0x3d	; 61
    6264:	de b7       	in	r29, 0x3e	; 62
    6266:	2e 97       	sbiw	r28, 0x0e	; 14
    6268:	0f b6       	in	r0, 0x3f	; 63
    626a:	f8 94       	cli
    626c:	de bf       	out	0x3e, r29	; 62
    626e:	0f be       	out	0x3f, r0	; 63
    6270:	cd bf       	out	0x3d, r28	; 61
    6272:	9b 87       	std	Y+11, r25	; 0x0b
    6274:	8a 87       	std	Y+10, r24	; 0x0a
    6276:	6c 87       	std	Y+12, r22	; 0x0c
    6278:	5e 87       	std	Y+14, r21	; 0x0e
    627a:	4d 87       	std	Y+13, r20	; 0x0d
  uint32_t  dat32;
  uint16_t  dat16;

  // save the trackid for use later
  t->_trackId = t->_mev.track = trackId;
    627c:	8a 85       	ldd	r24, Y+10	; 0x0a
    627e:	9b 85       	ldd	r25, Y+11	; 0x0b
    6280:	2c 85       	ldd	r18, Y+12	; 0x0c
    6282:	fc 01       	movw	r30, r24
    6284:	22 8b       	std	Z+18, r18	; 0x12
    6286:	8a 85       	ldd	r24, Y+10	; 0x0a
    6288:	9b 85       	ldd	r25, Y+11	; 0x0b
    628a:	fc 01       	movw	r30, r24
    628c:	22 89       	ldd	r18, Z+18	; 0x12
    628e:	8a 85       	ldd	r24, Y+10	; 0x0a
    6290:	9b 85       	ldd	r25, Y+11	; 0x0b
    6292:	fc 01       	movw	r30, r24
    6294:	20 83       	st	Z, r18
  // Read the Track header
  // track_chunk = "MTrk" + <length:4> + <track_event> [+ <track_event> ...]
  {
    char    h[MTRK_HDR_SIZE+1]; // Header characters + nul
  
    f_read(&mf->_fd,h,MTRK_HDR_SIZE,&dat32);
    6296:	8d 85       	ldd	r24, Y+13	; 0x0d
    6298:	9e 85       	ldd	r25, Y+14	; 0x0e
    629a:	06 96       	adiw	r24, 0x06	; 6
    629c:	be 01       	movw	r22, r28
    629e:	6b 5f       	subi	r22, 0xFB	; 251
    62a0:	7f 4f       	sbci	r23, 0xFF	; 255
    62a2:	9e 01       	movw	r18, r28
    62a4:	2f 5f       	subi	r18, 0xFF	; 255
    62a6:	3f 4f       	sbci	r19, 0xFF	; 255
    62a8:	44 e0       	ldi	r20, 0x04	; 4
    62aa:	50 e0       	ldi	r21, 0x00	; 0
    62ac:	0e 94 a8 17 	call	0x2f50	; 0x2f50 <f_read>
    h[MTRK_HDR_SIZE] = '\0';
    62b0:	19 86       	std	Y+9, r1	; 0x09

    if (strcmp(h, MTRK_HDR) != 0)
    62b2:	ce 01       	movw	r24, r28
    62b4:	05 96       	adiw	r24, 0x05	; 5
    62b6:	65 e0       	ldi	r22, 0x05	; 5
    62b8:	71 e0       	ldi	r23, 0x01	; 1
    62ba:	0e 94 c6 3e 	call	0x7d8c	; 0x7d8c <strcmp>
    62be:	89 2b       	or	r24, r25
    62c0:	19 f0       	breq	.+6      	; 0x62c8 <loadTrack+0x6a>
      return(0);
    62c2:	80 e0       	ldi	r24, 0x00	; 0
    62c4:	90 e0       	ldi	r25, 0x00	; 0
    62c6:	4e c0       	rjmp	.+156    	; 0x6364 <loadTrack+0x106>
  }

  // Row read track chunk size and in bytes. This is not really necessary 
  // since the track MUST end with an end of track meta event.
  dat32 = readMultiByte(&mf->_fd, MB_LONG);
    62c8:	8d 85       	ldd	r24, Y+13	; 0x0d
    62ca:	9e 85       	ldd	r25, Y+14	; 0x0e
    62cc:	06 96       	adiw	r24, 0x06	; 6
    62ce:	64 e0       	ldi	r22, 0x04	; 4
    62d0:	0e 94 6e 2a 	call	0x54dc	; 0x54dc <readMultiByte>
    62d4:	dc 01       	movw	r26, r24
    62d6:	cb 01       	movw	r24, r22
    62d8:	89 83       	std	Y+1, r24	; 0x01
    62da:	9a 83       	std	Y+2, r25	; 0x02
    62dc:	ab 83       	std	Y+3, r26	; 0x03
    62de:	bc 83       	std	Y+4, r27	; 0x04
  t->_length = dat32;
    62e0:	89 81       	ldd	r24, Y+1	; 0x01
    62e2:	9a 81       	ldd	r25, Y+2	; 0x02
    62e4:	ab 81       	ldd	r26, Y+3	; 0x03
    62e6:	bc 81       	ldd	r27, Y+4	; 0x04
    62e8:	2a 85       	ldd	r18, Y+10	; 0x0a
    62ea:	3b 85       	ldd	r19, Y+11	; 0x0b
    62ec:	f9 01       	movw	r30, r18
    62ee:	81 83       	std	Z+1, r24	; 0x01
    62f0:	92 83       	std	Z+2, r25	; 0x02
    62f2:	a3 83       	std	Z+3, r26	; 0x03
    62f4:	b4 83       	std	Z+4, r27	; 0x04

  // save where we are in the file as this is the start of offset for this track
  t->_startOffset = mf->_fd.fptr;
    62f6:	8d 85       	ldd	r24, Y+13	; 0x0d
    62f8:	9e 85       	ldd	r25, Y+14	; 0x0e
    62fa:	fc 01       	movw	r30, r24
    62fc:	84 85       	ldd	r24, Z+12	; 0x0c
    62fe:	95 85       	ldd	r25, Z+13	; 0x0d
    6300:	a6 85       	ldd	r26, Z+14	; 0x0e
    6302:	b7 85       	ldd	r27, Z+15	; 0x0f
    6304:	2a 85       	ldd	r18, Y+10	; 0x0a
    6306:	3b 85       	ldd	r19, Y+11	; 0x0b
    6308:	f9 01       	movw	r30, r18
    630a:	85 83       	std	Z+5, r24	; 0x05
    630c:	96 83       	std	Z+6, r25	; 0x06
    630e:	a7 83       	std	Z+7, r26	; 0x07
    6310:	b0 87       	std	Z+8, r27	; 0x08
  t->_currOffset = 0;
    6312:	8a 85       	ldd	r24, Y+10	; 0x0a
    6314:	9b 85       	ldd	r25, Y+11	; 0x0b
    6316:	fc 01       	movw	r30, r24
    6318:	11 86       	std	Z+9, r1	; 0x09
    631a:	12 86       	std	Z+10, r1	; 0x0a
    631c:	13 86       	std	Z+11, r1	; 0x0b
    631e:	14 86       	std	Z+12, r1	; 0x0c

  // Advance the file pointer to the start of the next track;
  if (f_lseek(&mf->_fd,(t->_startOffset+t->_length)) != FR_OK)
    6320:	8a 85       	ldd	r24, Y+10	; 0x0a
    6322:	9b 85       	ldd	r25, Y+11	; 0x0b
    6324:	fc 01       	movw	r30, r24
    6326:	25 81       	ldd	r18, Z+5	; 0x05
    6328:	36 81       	ldd	r19, Z+6	; 0x06
    632a:	47 81       	ldd	r20, Z+7	; 0x07
    632c:	50 85       	ldd	r21, Z+8	; 0x08
    632e:	8a 85       	ldd	r24, Y+10	; 0x0a
    6330:	9b 85       	ldd	r25, Y+11	; 0x0b
    6332:	fc 01       	movw	r30, r24
    6334:	81 81       	ldd	r24, Z+1	; 0x01
    6336:	92 81       	ldd	r25, Z+2	; 0x02
    6338:	a3 81       	ldd	r26, Z+3	; 0x03
    633a:	b4 81       	ldd	r27, Z+4	; 0x04
    633c:	82 0f       	add	r24, r18
    633e:	93 1f       	adc	r25, r19
    6340:	a4 1f       	adc	r26, r20
    6342:	b5 1f       	adc	r27, r21
    6344:	2d 85       	ldd	r18, Y+13	; 0x0d
    6346:	3e 85       	ldd	r19, Y+14	; 0x0e
    6348:	2a 5f       	subi	r18, 0xFA	; 250
    634a:	3f 4f       	sbci	r19, 0xFF	; 255
    634c:	ac 01       	movw	r20, r24
    634e:	bd 01       	movw	r22, r26
    6350:	c9 01       	movw	r24, r18
    6352:	0e 94 1c 1b 	call	0x3638	; 0x3638 <f_lseek>
    6356:	88 23       	and	r24, r24
    6358:	19 f0       	breq	.+6      	; 0x6360 <loadTrack+0x102>
    return(1);
    635a:	81 e0       	ldi	r24, 0x01	; 1
    635c:	90 e0       	ldi	r25, 0x00	; 0
    635e:	02 c0       	rjmp	.+4      	; 0x6364 <loadTrack+0x106>

  return(-1);
    6360:	8f ef       	ldi	r24, 0xFF	; 255
    6362:	9f ef       	ldi	r25, 0xFF	; 255
}
    6364:	2e 96       	adiw	r28, 0x0e	; 14
    6366:	0f b6       	in	r0, 0x3f	; 63
    6368:	f8 94       	cli
    636a:	de bf       	out	0x3e, r29	; 62
    636c:	0f be       	out	0x3f, r0	; 63
    636e:	cd bf       	out	0x3d, r28	; 61
    6370:	df 91       	pop	r29
    6372:	cf 91       	pop	r28
    6374:	08 95       	ret

00006376 <midiInit>:
	midiEvent[2] = bank;		// LSB
	sendMidiMessage(3);
	midiEvent[0] = MIDI_PROGRAM_CHANGE;
	midiEvent[1] = program;
	sendMidiMessage(2);
}
    6376:	cf 93       	push	r28
    6378:	df 93       	push	r29
    637a:	cd b7       	in	r28, 0x3d	; 61
    637c:	de b7       	in	r29, 0x3e	; 62
    637e:	81 e0       	ldi	r24, 0x01	; 1
    6380:	80 93 61 04 	sts	0x0461, r24	; 0x800461 <midiState>
    6384:	00 00       	nop
    6386:	df 91       	pop	r29
    6388:	cf 91       	pop	r28
    638a:	08 95       	ret

0000638c <readMidiMessage>:
    638c:	cf 93       	push	r28
    638e:	df 93       	push	r29
    6390:	00 d0       	rcall	.+0      	; 0x6392 <readMidiMessage+0x6>
    6392:	00 d0       	rcall	.+0      	; 0x6394 <readMidiMessage+0x8>
    6394:	cd b7       	in	r28, 0x3d	; 61
    6396:	de b7       	in	r29, 0x3e	; 62
    6398:	8a 83       	std	Y+2, r24	; 0x02
    639a:	7c 83       	std	Y+4, r23	; 0x04
    639c:	6b 83       	std	Y+3, r22	; 0x03
    639e:	80 91 61 04 	lds	r24, 0x0461	; 0x800461 <midiState>
    63a2:	88 2f       	mov	r24, r24
    63a4:	90 e0       	ldi	r25, 0x00	; 0
    63a6:	82 30       	cpi	r24, 0x02	; 2
    63a8:	91 05       	cpc	r25, r1
    63aa:	b1 f1       	breq	.+108    	; 0x6418 <readMidiMessage+0x8c>
    63ac:	83 30       	cpi	r24, 0x03	; 3
    63ae:	91 05       	cpc	r25, r1
    63b0:	09 f4       	brne	.+2      	; 0x63b4 <readMidiMessage+0x28>
    63b2:	6b c0       	rjmp	.+214    	; 0x648a <readMidiMessage+0xfe>
    63b4:	01 97       	sbiw	r24, 0x01	; 1
    63b6:	09 f0       	breq	.+2      	; 0x63ba <readMidiMessage+0x2e>
    63b8:	74 c0       	rjmp	.+232    	; 0x64a2 <readMidiMessage+0x116>
    63ba:	8a 81       	ldd	r24, Y+2	; 0x02
    63bc:	80 3f       	cpi	r24, 0xF0	; 240
    63be:	09 f4       	brne	.+2      	; 0x63c2 <readMidiMessage+0x36>
    63c0:	6b c0       	rjmp	.+214    	; 0x6498 <readMidiMessage+0x10c>
    63c2:	8a 81       	ldd	r24, Y+2	; 0x02
    63c4:	0e 94 9c 32 	call	0x6538	; 0x6538 <commandLen>
    63c8:	89 83       	std	Y+1, r24	; 0x01
    63ca:	89 81       	ldd	r24, Y+1	; 0x01
    63cc:	81 30       	cpi	r24, 0x01	; 1
    63ce:	61 f4       	brne	.+24     	; 0x63e8 <readMidiMessage+0x5c>
    63d0:	8b 81       	ldd	r24, Y+3	; 0x03
    63d2:	9c 81       	ldd	r25, Y+4	; 0x04
    63d4:	21 e0       	ldi	r18, 0x01	; 1
    63d6:	fc 01       	movw	r30, r24
    63d8:	20 83       	st	Z, r18
    63da:	8a 81       	ldd	r24, Y+2	; 0x02
    63dc:	80 93 64 04 	sts	0x0464, r24	; 0x800464 <midiEvent>
    63e0:	10 92 98 01 	sts	0x0198, r1	; 0x800198 <noteEvent>
    63e4:	81 e0       	ldi	r24, 0x01	; 1
    63e6:	5e c0       	rjmp	.+188    	; 0x64a4 <readMidiMessage+0x118>
    63e8:	89 81       	ldd	r24, Y+1	; 0x01
    63ea:	88 23       	and	r24, r24
    63ec:	59 f4       	brne	.+22     	; 0x6404 <readMidiMessage+0x78>
    63ee:	80 91 98 01 	lds	r24, 0x0198	; 0x800198 <noteEvent>
    63f2:	81 30       	cpi	r24, 0x01	; 1
    63f4:	69 f4       	brne	.+26     	; 0x6410 <readMidiMessage+0x84>
    63f6:	8a 81       	ldd	r24, Y+2	; 0x02
    63f8:	80 93 65 04 	sts	0x0465, r24	; 0x800465 <midiEvent+0x1>
    63fc:	82 e0       	ldi	r24, 0x02	; 2
    63fe:	80 93 62 04 	sts	0x0462, r24	; 0x800462 <midiReadIndex>
    6402:	06 c0       	rjmp	.+12     	; 0x6410 <readMidiMessage+0x84>
    6404:	8a 81       	ldd	r24, Y+2	; 0x02
    6406:	80 93 64 04 	sts	0x0464, r24	; 0x800464 <midiEvent>
    640a:	81 e0       	ldi	r24, 0x01	; 1
    640c:	80 93 62 04 	sts	0x0462, r24	; 0x800462 <midiReadIndex>
    6410:	82 e0       	ldi	r24, 0x02	; 2
    6412:	80 93 61 04 	sts	0x0461, r24	; 0x800461 <midiState>
    6416:	45 c0       	rjmp	.+138    	; 0x64a2 <readMidiMessage+0x116>
    6418:	8a 81       	ldd	r24, Y+2	; 0x02
    641a:	0e 94 9c 32 	call	0x6538	; 0x6538 <commandLen>
    641e:	88 23       	and	r24, r24
    6420:	39 f0       	breq	.+14     	; 0x6430 <readMidiMessage+0xa4>
    6422:	81 e0       	ldi	r24, 0x01	; 1
    6424:	80 93 61 04 	sts	0x0461, r24	; 0x800461 <midiState>
    6428:	10 92 98 01 	sts	0x0198, r1	; 0x800198 <noteEvent>
    642c:	80 e0       	ldi	r24, 0x00	; 0
    642e:	3a c0       	rjmp	.+116    	; 0x64a4 <readMidiMessage+0x118>
    6430:	80 91 62 04 	lds	r24, 0x0462	; 0x800462 <midiReadIndex>
    6434:	91 e0       	ldi	r25, 0x01	; 1
    6436:	98 0f       	add	r25, r24
    6438:	90 93 62 04 	sts	0x0462, r25	; 0x800462 <midiReadIndex>
    643c:	88 2f       	mov	r24, r24
    643e:	90 e0       	ldi	r25, 0x00	; 0
    6440:	8c 59       	subi	r24, 0x9C	; 156
    6442:	9b 4f       	sbci	r25, 0xFB	; 251
    6444:	2a 81       	ldd	r18, Y+2	; 0x02
    6446:	fc 01       	movw	r30, r24
    6448:	20 83       	st	Z, r18
    644a:	80 91 64 04 	lds	r24, 0x0464	; 0x800464 <midiEvent>
    644e:	80 7f       	andi	r24, 0xF0	; 240
    6450:	0e 94 9c 32 	call	0x6538	; 0x6538 <commandLen>
    6454:	98 2f       	mov	r25, r24
    6456:	80 91 62 04 	lds	r24, 0x0462	; 0x800462 <midiReadIndex>
    645a:	98 17       	cp	r25, r24
    645c:	f9 f4       	brne	.+62     	; 0x649c <readMidiMessage+0x110>
    645e:	81 e0       	ldi	r24, 0x01	; 1
    6460:	80 93 61 04 	sts	0x0461, r24	; 0x800461 <midiState>
    6464:	20 91 62 04 	lds	r18, 0x0462	; 0x800462 <midiReadIndex>
    6468:	8b 81       	ldd	r24, Y+3	; 0x03
    646a:	9c 81       	ldd	r25, Y+4	; 0x04
    646c:	fc 01       	movw	r30, r24
    646e:	20 83       	st	Z, r18
    6470:	80 91 64 04 	lds	r24, 0x0464	; 0x800464 <midiEvent>
    6474:	88 2f       	mov	r24, r24
    6476:	90 e0       	ldi	r25, 0x00	; 0
    6478:	80 79       	andi	r24, 0x90	; 144
    647a:	99 27       	eor	r25, r25
    647c:	89 2b       	or	r24, r25
    647e:	19 f0       	breq	.+6      	; 0x6486 <readMidiMessage+0xfa>
    6480:	81 e0       	ldi	r24, 0x01	; 1
    6482:	80 93 98 01 	sts	0x0198, r24	; 0x800198 <noteEvent>
    6486:	81 e0       	ldi	r24, 0x01	; 1
    6488:	0d c0       	rjmp	.+26     	; 0x64a4 <readMidiMessage+0x118>
    648a:	8a 81       	ldd	r24, Y+2	; 0x02
    648c:	87 3f       	cpi	r24, 0xF7	; 247
    648e:	41 f4       	brne	.+16     	; 0x64a0 <readMidiMessage+0x114>
    6490:	81 e0       	ldi	r24, 0x01	; 1
    6492:	80 93 61 04 	sts	0x0461, r24	; 0x800461 <midiState>
    6496:	04 c0       	rjmp	.+8      	; 0x64a0 <readMidiMessage+0x114>
    6498:	00 00       	nop
    649a:	03 c0       	rjmp	.+6      	; 0x64a2 <readMidiMessage+0x116>
    649c:	00 00       	nop
    649e:	01 c0       	rjmp	.+2      	; 0x64a2 <readMidiMessage+0x116>
    64a0:	00 00       	nop
    64a2:	80 e0       	ldi	r24, 0x00	; 0
    64a4:	0f 90       	pop	r0
    64a6:	0f 90       	pop	r0
    64a8:	0f 90       	pop	r0
    64aa:	0f 90       	pop	r0
    64ac:	df 91       	pop	r29
    64ae:	cf 91       	pop	r28
    64b0:	08 95       	ret

000064b2 <sendMidiMessage>:
    64b2:	cf 93       	push	r28
    64b4:	df 93       	push	r29
    64b6:	00 d0       	rcall	.+0      	; 0x64b8 <sendMidiMessage+0x6>
    64b8:	cd b7       	in	r28, 0x3d	; 61
    64ba:	de b7       	in	r29, 0x3e	; 62
    64bc:	8a 83       	std	Y+2, r24	; 0x02
    64be:	19 82       	std	Y+1, r1	; 0x01
    64c0:	0c c0       	rjmp	.+24     	; 0x64da <sendMidiMessage+0x28>
    64c2:	89 81       	ldd	r24, Y+1	; 0x01
    64c4:	88 2f       	mov	r24, r24
    64c6:	90 e0       	ldi	r25, 0x00	; 0
    64c8:	8c 59       	subi	r24, 0x9C	; 156
    64ca:	9b 4f       	sbci	r25, 0xFB	; 251
    64cc:	fc 01       	movw	r30, r24
    64ce:	80 81       	ld	r24, Z
    64d0:	0e 94 31 3d 	call	0x7a62	; 0x7a62 <uartSendByte>
    64d4:	89 81       	ldd	r24, Y+1	; 0x01
    64d6:	8f 5f       	subi	r24, 0xFF	; 255
    64d8:	89 83       	std	Y+1, r24	; 0x01
    64da:	99 81       	ldd	r25, Y+1	; 0x01
    64dc:	8a 81       	ldd	r24, Y+2	; 0x02
    64de:	98 17       	cp	r25, r24
    64e0:	80 f3       	brcs	.-32     	; 0x64c2 <sendMidiMessage+0x10>
    64e2:	00 00       	nop
    64e4:	0f 90       	pop	r0
    64e6:	0f 90       	pop	r0
    64e8:	df 91       	pop	r29
    64ea:	cf 91       	pop	r28
    64ec:	08 95       	ret

000064ee <sendMidiBuffer>:
    64ee:	cf 93       	push	r28
    64f0:	df 93       	push	r29
    64f2:	00 d0       	rcall	.+0      	; 0x64f4 <sendMidiBuffer+0x6>
    64f4:	00 d0       	rcall	.+0      	; 0x64f6 <sendMidiBuffer+0x8>
    64f6:	cd b7       	in	r28, 0x3d	; 61
    64f8:	de b7       	in	r29, 0x3e	; 62
    64fa:	9b 83       	std	Y+3, r25	; 0x03
    64fc:	8a 83       	std	Y+2, r24	; 0x02
    64fe:	6c 83       	std	Y+4, r22	; 0x04
    6500:	19 82       	std	Y+1, r1	; 0x01
    6502:	0e c0       	rjmp	.+28     	; 0x6520 <sendMidiBuffer+0x32>
    6504:	89 81       	ldd	r24, Y+1	; 0x01
    6506:	88 2f       	mov	r24, r24
    6508:	90 e0       	ldi	r25, 0x00	; 0
    650a:	2a 81       	ldd	r18, Y+2	; 0x02
    650c:	3b 81       	ldd	r19, Y+3	; 0x03
    650e:	82 0f       	add	r24, r18
    6510:	93 1f       	adc	r25, r19
    6512:	fc 01       	movw	r30, r24
    6514:	80 81       	ld	r24, Z
    6516:	0e 94 31 3d 	call	0x7a62	; 0x7a62 <uartSendByte>
    651a:	89 81       	ldd	r24, Y+1	; 0x01
    651c:	8f 5f       	subi	r24, 0xFF	; 255
    651e:	89 83       	std	Y+1, r24	; 0x01
    6520:	99 81       	ldd	r25, Y+1	; 0x01
    6522:	8c 81       	ldd	r24, Y+4	; 0x04
    6524:	98 17       	cp	r25, r24
    6526:	70 f3       	brcs	.-36     	; 0x6504 <sendMidiBuffer+0x16>
    6528:	00 00       	nop
    652a:	0f 90       	pop	r0
    652c:	0f 90       	pop	r0
    652e:	0f 90       	pop	r0
    6530:	0f 90       	pop	r0
    6532:	df 91       	pop	r29
    6534:	cf 91       	pop	r28
    6536:	08 95       	ret

00006538 <commandLen>:

unsigned char commandLen(unsigned char cmd)
{
    6538:	cf 93       	push	r28
    653a:	df 93       	push	r29
    653c:	1f 92       	push	r1
    653e:	cd b7       	in	r28, 0x3d	; 61
    6540:	de b7       	in	r29, 0x3e	; 62
    6542:	89 83       	std	Y+1, r24	; 0x01
	
	if ((cmd & 0xF0) != 0xF0)
    6544:	89 81       	ldd	r24, Y+1	; 0x01
    6546:	88 2f       	mov	r24, r24
    6548:	90 e0       	ldi	r25, 0x00	; 0
    654a:	80 7f       	andi	r24, 0xF0	; 240
    654c:	99 27       	eor	r25, r25
    654e:	80 3f       	cpi	r24, 0xF0	; 240
    6550:	91 05       	cpc	r25, r1
    6552:	19 f0       	breq	.+6      	; 0x655a <commandLen+0x22>
	cmd = cmd & 0xF0;
    6554:	89 81       	ldd	r24, Y+1	; 0x01
    6556:	80 7f       	andi	r24, 0xF0	; 240
    6558:	89 83       	std	Y+1, r24	; 0x01
	
	switch(cmd){
    655a:	89 81       	ldd	r24, Y+1	; 0x01
    655c:	88 2f       	mov	r24, r24
    655e:	90 e0       	ldi	r25, 0x00	; 0
    6560:	09 2e       	mov	r0, r25
    6562:	00 0c       	add	r0, r0
    6564:	aa 0b       	sbc	r26, r26
    6566:	bb 0b       	sbc	r27, r27
    6568:	40 e8       	ldi	r20, 0x80	; 128
    656a:	50 e0       	ldi	r21, 0x00	; 0
    656c:	2f e7       	ldi	r18, 0x7F	; 127
    656e:	30 e0       	ldi	r19, 0x00	; 0
    6570:	84 1b       	sub	r24, r20
    6572:	95 0b       	sbc	r25, r21
    6574:	28 17       	cp	r18, r24
    6576:	39 07       	cpc	r19, r25
    6578:	58 f0       	brcs	.+22     	; 0x6590 <commandLen+0x58>
    657a:	86 5d       	subi	r24, 0xD6	; 214
    657c:	9f 4f       	sbci	r25, 0xFF	; 255
    657e:	fc 01       	movw	r30, r24
    6580:	0c 94 9f 3e 	jmp	0x7d3e	; 0x7d3e <__tablejump2__>
		case	MIDI_START:
		case	MIDI_STOP:
		case	MIDI_CONT:
		case	MIDI_SENSE:
		case	MIDI_RESET:	
					return 1;
    6584:	81 e0       	ldi	r24, 0x01	; 1
    6586:	05 c0       	rjmp	.+10     	; 0x6592 <commandLen+0x5a>
		case	MIDI_PROGRAM_CHANGE:
		case	MIDI_CHANNEL_TOUCH:
		case	MIDI_MTC:
		case	MIDI_SONG_SEL:	
					return 2;
    6588:	82 e0       	ldi	r24, 0x02	; 2
    658a:	03 c0       	rjmp	.+6      	; 0x6592 <commandLen+0x5a>
		case	MIDI_NOTE_ON:
		case	MIDI_POLY_TOUCH:
		case	MIDI_CONTROL_CHANGE:
		case	MIDI_PITCH_BEND:
		case	MIDI_SPP:	
					return 3;
    658c:	83 e0       	ldi	r24, 0x03	; 3
    658e:	01 c0       	rjmp	.+2      	; 0x6592 <commandLen+0x5a>
		
	}
	
	return 0;
    6590:	80 e0       	ldi	r24, 0x00	; 0
}
    6592:	0f 90       	pop	r0
    6594:	df 91       	pop	r29
    6596:	cf 91       	pop	r28
    6598:	08 95       	ret

0000659a <metaFun>:

void metaFun(meta_event *ev){
    659a:	cf 93       	push	r28
    659c:	df 93       	push	r29
    659e:	00 d0       	rcall	.+0      	; 0x65a0 <metaFun+0x6>
    65a0:	cd b7       	in	r28, 0x3d	; 61
    65a2:	de b7       	in	r29, 0x3e	; 62
    65a4:	9a 83       	std	Y+2, r25	; 0x02
    65a6:	89 83       	std	Y+1, r24	; 0x01
	
}
    65a8:	00 00       	nop
    65aa:	0f 90       	pop	r0
    65ac:	0f 90       	pop	r0
    65ae:	df 91       	pop	r29
    65b0:	cf 91       	pop	r28
    65b2:	08 95       	ret

000065b4 <sysexFun>:

void sysexFun(sysex_event *ev){
    65b4:	cf 93       	push	r28
    65b6:	df 93       	push	r29
    65b8:	00 d0       	rcall	.+0      	; 0x65ba <sysexFun+0x6>
    65ba:	cd b7       	in	r28, 0x3d	; 61
    65bc:	de b7       	in	r29, 0x3e	; 62
    65be:	9a 83       	std	Y+2, r25	; 0x02
    65c0:	89 83       	std	Y+1, r24	; 0x01
	
}
    65c2:	00 00       	nop
    65c4:	0f 90       	pop	r0
    65c6:	0f 90       	pop	r0
    65c8:	df 91       	pop	r29
    65ca:	cf 91       	pop	r28
    65cc:	08 95       	ret

000065ce <midiFun>:

void midiFun(midi_event *ev){
    65ce:	cf 93       	push	r28
    65d0:	df 93       	push	r29
    65d2:	00 d0       	rcall	.+0      	; 0x65d4 <midiFun+0x6>
    65d4:	cd b7       	in	r28, 0x3d	; 61
    65d6:	de b7       	in	r29, 0x3e	; 62
    65d8:	9a 83       	std	Y+2, r25	; 0x02
    65da:	89 83       	std	Y+1, r24	; 0x01
	sendMidiBuffer(ev->data,ev->size);
    65dc:	89 81       	ldd	r24, Y+1	; 0x01
    65de:	9a 81       	ldd	r25, Y+2	; 0x02
    65e0:	fc 01       	movw	r30, r24
    65e2:	22 81       	ldd	r18, Z+2	; 0x02
    65e4:	89 81       	ldd	r24, Y+1	; 0x01
    65e6:	9a 81       	ldd	r25, Y+2	; 0x02
    65e8:	03 96       	adiw	r24, 0x03	; 3
    65ea:	62 2f       	mov	r22, r18
    65ec:	0e 94 77 32 	call	0x64ee	; 0x64ee <sendMidiBuffer>
}
    65f0:	00 00       	nop
    65f2:	0f 90       	pop	r0
    65f4:	0f 90       	pop	r0
    65f6:	df 91       	pop	r29
    65f8:	cf 91       	pop	r28
    65fa:	08 95       	ret

000065fc <rcvr_spi>:
/* Receive a byte from MMC via SPI  (Platform dependent)                 */
/*-----------------------------------------------------------------------*/

static
BYTE rcvr_spi (void)
{
    65fc:	cf 93       	push	r28
    65fe:	df 93       	push	r29
    6600:	cd b7       	in	r28, 0x3d	; 61
    6602:	de b7       	in	r29, 0x3e	; 62
	SPDR = 0xFF;
    6604:	8f e2       	ldi	r24, 0x2F	; 47
    6606:	90 e0       	ldi	r25, 0x00	; 0
    6608:	2f ef       	ldi	r18, 0xFF	; 255
    660a:	fc 01       	movw	r30, r24
    660c:	20 83       	st	Z, r18
	loop_until_bit_is_set(SPSR, SPIF);
    660e:	8e e2       	ldi	r24, 0x2E	; 46
    6610:	90 e0       	ldi	r25, 0x00	; 0
    6612:	fc 01       	movw	r30, r24
    6614:	80 81       	ld	r24, Z
    6616:	88 23       	and	r24, r24
    6618:	d4 f7       	brge	.-12     	; 0x660e <rcvr_spi+0x12>
	return SPDR;
    661a:	8f e2       	ldi	r24, 0x2F	; 47
    661c:	90 e0       	ldi	r25, 0x00	; 0
    661e:	fc 01       	movw	r30, r24
    6620:	80 81       	ld	r24, Z
}
    6622:	df 91       	pop	r29
    6624:	cf 91       	pop	r28
    6626:	08 95       	ret

00006628 <wait_ready>:
/* Wait for card ready                                                   */
/*-----------------------------------------------------------------------*/

static
int wait_ready (void)	/* 1:OK, 0:Timeout */
{
    6628:	cf 93       	push	r28
    662a:	df 93       	push	r29
    662c:	cd b7       	in	r28, 0x3d	; 61
    662e:	de b7       	in	r29, 0x3e	; 62
	Timer2 = 50;	/* Wait for ready in timeout of 500ms */
    6630:	82 e3       	ldi	r24, 0x32	; 50
    6632:	80 93 9a 01 	sts	0x019A, r24	; 0x80019a <Timer2>
	rcvr_spi();
    6636:	0e 94 fe 32 	call	0x65fc	; 0x65fc <rcvr_spi>
	do
		if (rcvr_spi() == 0xFF) return 1;
    663a:	0e 94 fe 32 	call	0x65fc	; 0x65fc <rcvr_spi>
    663e:	8f 3f       	cpi	r24, 0xFF	; 255
    6640:	19 f4       	brne	.+6      	; 0x6648 <wait_ready+0x20>
    6642:	81 e0       	ldi	r24, 0x01	; 1
    6644:	90 e0       	ldi	r25, 0x00	; 0
    6646:	06 c0       	rjmp	.+12     	; 0x6654 <wait_ready+0x2c>
	while (Timer2);
    6648:	80 91 9a 01 	lds	r24, 0x019A	; 0x80019a <Timer2>
    664c:	88 23       	and	r24, r24
    664e:	a9 f7       	brne	.-22     	; 0x663a <wait_ready+0x12>

	return 0;
    6650:	80 e0       	ldi	r24, 0x00	; 0
    6652:	90 e0       	ldi	r25, 0x00	; 0
}
    6654:	df 91       	pop	r29
    6656:	cf 91       	pop	r28
    6658:	08 95       	ret

0000665a <deselect>:
/* Deselect the card and release SPI bus                                 */
/*-----------------------------------------------------------------------*/

static
void deselect (void)
{
    665a:	cf 93       	push	r28
    665c:	df 93       	push	r29
    665e:	cd b7       	in	r28, 0x3d	; 61
    6660:	de b7       	in	r29, 0x3e	; 62
	CS_HIGH();
    6662:	88 e3       	ldi	r24, 0x38	; 56
    6664:	90 e0       	ldi	r25, 0x00	; 0
    6666:	28 e3       	ldi	r18, 0x38	; 56
    6668:	30 e0       	ldi	r19, 0x00	; 0
    666a:	f9 01       	movw	r30, r18
    666c:	20 81       	ld	r18, Z
    666e:	20 61       	ori	r18, 0x10	; 16
    6670:	fc 01       	movw	r30, r24
    6672:	20 83       	st	Z, r18
	rcvr_spi();
    6674:	0e 94 fe 32 	call	0x65fc	; 0x65fc <rcvr_spi>
}
    6678:	00 00       	nop
    667a:	df 91       	pop	r29
    667c:	cf 91       	pop	r28
    667e:	08 95       	ret

00006680 <select>:
/* Select the card and wait for ready                                    */
/*-----------------------------------------------------------------------*/

static
int select (void)	/* 1:Successful, 0:Timeout */
{
    6680:	cf 93       	push	r28
    6682:	df 93       	push	r29
    6684:	cd b7       	in	r28, 0x3d	; 61
    6686:	de b7       	in	r29, 0x3e	; 62
	CS_LOW();
    6688:	88 e3       	ldi	r24, 0x38	; 56
    668a:	90 e0       	ldi	r25, 0x00	; 0
    668c:	28 e3       	ldi	r18, 0x38	; 56
    668e:	30 e0       	ldi	r19, 0x00	; 0
    6690:	f9 01       	movw	r30, r18
    6692:	20 81       	ld	r18, Z
    6694:	2f 7e       	andi	r18, 0xEF	; 239
    6696:	fc 01       	movw	r30, r24
    6698:	20 83       	st	Z, r18
	if (!wait_ready()) {
    669a:	0e 94 14 33 	call	0x6628	; 0x6628 <wait_ready>
    669e:	89 2b       	or	r24, r25
    66a0:	29 f4       	brne	.+10     	; 0x66ac <select+0x2c>
		deselect();
    66a2:	0e 94 2d 33 	call	0x665a	; 0x665a <deselect>
		return 0;
    66a6:	80 e0       	ldi	r24, 0x00	; 0
    66a8:	90 e0       	ldi	r25, 0x00	; 0
    66aa:	02 c0       	rjmp	.+4      	; 0x66b0 <select+0x30>
	}
	return 1;
    66ac:	81 e0       	ldi	r24, 0x01	; 1
    66ae:	90 e0       	ldi	r25, 0x00	; 0
}
    66b0:	df 91       	pop	r29
    66b2:	cf 91       	pop	r28
    66b4:	08 95       	ret

000066b6 <power_status>:
/* When the target system does not support socket power control, there   */
/* is nothing to do in these functions and chk_power always returns 1.   */

static
int power_status(void)		/* Socket power state: 0=off, 1=on */
{
    66b6:	cf 93       	push	r28
    66b8:	df 93       	push	r29
    66ba:	cd b7       	in	r28, 0x3d	; 61
    66bc:	de b7       	in	r29, 0x3e	; 62
	//return (PORTE & 0x80) ? 0 : 1;
	return 1;
    66be:	81 e0       	ldi	r24, 0x01	; 1
    66c0:	90 e0       	ldi	r25, 0x00	; 0
}
    66c2:	df 91       	pop	r29
    66c4:	cf 91       	pop	r28
    66c6:	08 95       	ret

000066c8 <power_on>:


static

void power_on (void)
{
    66c8:	cf 93       	push	r28
    66ca:	df 93       	push	r29
    66cc:	cd b7       	in	r28, 0x3d	; 61
    66ce:	de b7       	in	r29, 0x3e	; 62
	//DDRB  = 0b11000111;

	//SPCR = 0x52;			/* Enable SPI function in mode 0 */
	//SPSR = 0x01;        	/* SPI 2x mode */
	
}
    66d0:	00 00       	nop
    66d2:	df 91       	pop	r29
    66d4:	cf 91       	pop	r28
    66d6:	08 95       	ret

000066d8 <power_off>:


static
void power_off (void)
{
    66d8:	cf 93       	push	r28
    66da:	df 93       	push	r29
    66dc:	cd b7       	in	r28, 0x3d	; 61
    66de:	de b7       	in	r29, 0x3e	; 62
	//DDRB  = 0b11000000;		/* Disable drivers */
	//PORTB = 0b10110000;

	//PORTE |=  0x80;			/* Socket power off */
	//Stat |= STA_NOINIT;
}
    66e0:	00 00       	nop
    66e2:	df 91       	pop	r29
    66e4:	cf 91       	pop	r28
    66e6:	08 95       	ret

000066e8 <rcvr_datablock>:
static
int rcvr_datablock (
	BYTE *buff,			/* Data buffer to store received data */
	UINT btr			/* Byte count (must be multiple of 4) */
)
{
    66e8:	cf 93       	push	r28
    66ea:	df 93       	push	r29
    66ec:	00 d0       	rcall	.+0      	; 0x66ee <rcvr_datablock+0x6>
    66ee:	00 d0       	rcall	.+0      	; 0x66f0 <rcvr_datablock+0x8>
    66f0:	1f 92       	push	r1
    66f2:	cd b7       	in	r28, 0x3d	; 61
    66f4:	de b7       	in	r29, 0x3e	; 62
    66f6:	9b 83       	std	Y+3, r25	; 0x03
    66f8:	8a 83       	std	Y+2, r24	; 0x02
    66fa:	7d 83       	std	Y+5, r23	; 0x05
    66fc:	6c 83       	std	Y+4, r22	; 0x04
	BYTE token;


	Timer1 = 20;
    66fe:	84 e1       	ldi	r24, 0x14	; 20
    6700:	80 93 99 01 	sts	0x0199, r24	; 0x800199 <Timer1>
	do {							/* Wait for data packet in timeout of 200ms */
		token = rcvr_spi();
    6704:	0e 94 fe 32 	call	0x65fc	; 0x65fc <rcvr_spi>
    6708:	89 83       	std	Y+1, r24	; 0x01
	} while ((token == 0xFF) && Timer1);
    670a:	89 81       	ldd	r24, Y+1	; 0x01
    670c:	8f 3f       	cpi	r24, 0xFF	; 255
    670e:	21 f4       	brne	.+8      	; 0x6718 <rcvr_datablock+0x30>
    6710:	80 91 99 01 	lds	r24, 0x0199	; 0x800199 <Timer1>
    6714:	88 23       	and	r24, r24
    6716:	b1 f7       	brne	.-20     	; 0x6704 <rcvr_datablock+0x1c>
	if(token != 0xFE) return 0;		/* If not valid data token, retutn with error */
    6718:	89 81       	ldd	r24, Y+1	; 0x01
    671a:	8e 3f       	cpi	r24, 0xFE	; 254
    671c:	19 f0       	breq	.+6      	; 0x6724 <rcvr_datablock+0x3c>
    671e:	80 e0       	ldi	r24, 0x00	; 0
    6720:	90 e0       	ldi	r25, 0x00	; 0
    6722:	70 c0       	rjmp	.+224    	; 0x6804 <rcvr_datablock+0x11c>

	do {							/* Receive the data block into buffer */
		rcvr_spi_m(buff++);
    6724:	8f e2       	ldi	r24, 0x2F	; 47
    6726:	90 e0       	ldi	r25, 0x00	; 0
    6728:	2f ef       	ldi	r18, 0xFF	; 255
    672a:	fc 01       	movw	r30, r24
    672c:	20 83       	st	Z, r18
    672e:	8e e2       	ldi	r24, 0x2E	; 46
    6730:	90 e0       	ldi	r25, 0x00	; 0
    6732:	fc 01       	movw	r30, r24
    6734:	80 81       	ld	r24, Z
    6736:	88 23       	and	r24, r24
    6738:	d4 f7       	brge	.-12     	; 0x672e <rcvr_datablock+0x46>
    673a:	8a 81       	ldd	r24, Y+2	; 0x02
    673c:	9b 81       	ldd	r25, Y+3	; 0x03
    673e:	9c 01       	movw	r18, r24
    6740:	2f 5f       	subi	r18, 0xFF	; 255
    6742:	3f 4f       	sbci	r19, 0xFF	; 255
    6744:	3b 83       	std	Y+3, r19	; 0x03
    6746:	2a 83       	std	Y+2, r18	; 0x02
    6748:	2f e2       	ldi	r18, 0x2F	; 47
    674a:	30 e0       	ldi	r19, 0x00	; 0
    674c:	f9 01       	movw	r30, r18
    674e:	20 81       	ld	r18, Z
    6750:	fc 01       	movw	r30, r24
    6752:	20 83       	st	Z, r18
		rcvr_spi_m(buff++);
    6754:	8f e2       	ldi	r24, 0x2F	; 47
    6756:	90 e0       	ldi	r25, 0x00	; 0
    6758:	2f ef       	ldi	r18, 0xFF	; 255
    675a:	fc 01       	movw	r30, r24
    675c:	20 83       	st	Z, r18
    675e:	8e e2       	ldi	r24, 0x2E	; 46
    6760:	90 e0       	ldi	r25, 0x00	; 0
    6762:	fc 01       	movw	r30, r24
    6764:	80 81       	ld	r24, Z
    6766:	88 23       	and	r24, r24
    6768:	d4 f7       	brge	.-12     	; 0x675e <rcvr_datablock+0x76>
    676a:	8a 81       	ldd	r24, Y+2	; 0x02
    676c:	9b 81       	ldd	r25, Y+3	; 0x03
    676e:	9c 01       	movw	r18, r24
    6770:	2f 5f       	subi	r18, 0xFF	; 255
    6772:	3f 4f       	sbci	r19, 0xFF	; 255
    6774:	3b 83       	std	Y+3, r19	; 0x03
    6776:	2a 83       	std	Y+2, r18	; 0x02
    6778:	2f e2       	ldi	r18, 0x2F	; 47
    677a:	30 e0       	ldi	r19, 0x00	; 0
    677c:	f9 01       	movw	r30, r18
    677e:	20 81       	ld	r18, Z
    6780:	fc 01       	movw	r30, r24
    6782:	20 83       	st	Z, r18
		rcvr_spi_m(buff++);
    6784:	8f e2       	ldi	r24, 0x2F	; 47
    6786:	90 e0       	ldi	r25, 0x00	; 0
    6788:	2f ef       	ldi	r18, 0xFF	; 255
    678a:	fc 01       	movw	r30, r24
    678c:	20 83       	st	Z, r18
    678e:	8e e2       	ldi	r24, 0x2E	; 46
    6790:	90 e0       	ldi	r25, 0x00	; 0
    6792:	fc 01       	movw	r30, r24
    6794:	80 81       	ld	r24, Z
    6796:	88 23       	and	r24, r24
    6798:	d4 f7       	brge	.-12     	; 0x678e <rcvr_datablock+0xa6>
    679a:	8a 81       	ldd	r24, Y+2	; 0x02
    679c:	9b 81       	ldd	r25, Y+3	; 0x03
    679e:	9c 01       	movw	r18, r24
    67a0:	2f 5f       	subi	r18, 0xFF	; 255
    67a2:	3f 4f       	sbci	r19, 0xFF	; 255
    67a4:	3b 83       	std	Y+3, r19	; 0x03
    67a6:	2a 83       	std	Y+2, r18	; 0x02
    67a8:	2f e2       	ldi	r18, 0x2F	; 47
    67aa:	30 e0       	ldi	r19, 0x00	; 0
    67ac:	f9 01       	movw	r30, r18
    67ae:	20 81       	ld	r18, Z
    67b0:	fc 01       	movw	r30, r24
    67b2:	20 83       	st	Z, r18
		rcvr_spi_m(buff++);
    67b4:	8f e2       	ldi	r24, 0x2F	; 47
    67b6:	90 e0       	ldi	r25, 0x00	; 0
    67b8:	2f ef       	ldi	r18, 0xFF	; 255
    67ba:	fc 01       	movw	r30, r24
    67bc:	20 83       	st	Z, r18
    67be:	8e e2       	ldi	r24, 0x2E	; 46
    67c0:	90 e0       	ldi	r25, 0x00	; 0
    67c2:	fc 01       	movw	r30, r24
    67c4:	80 81       	ld	r24, Z
    67c6:	88 23       	and	r24, r24
    67c8:	d4 f7       	brge	.-12     	; 0x67be <rcvr_datablock+0xd6>
    67ca:	8a 81       	ldd	r24, Y+2	; 0x02
    67cc:	9b 81       	ldd	r25, Y+3	; 0x03
    67ce:	9c 01       	movw	r18, r24
    67d0:	2f 5f       	subi	r18, 0xFF	; 255
    67d2:	3f 4f       	sbci	r19, 0xFF	; 255
    67d4:	3b 83       	std	Y+3, r19	; 0x03
    67d6:	2a 83       	std	Y+2, r18	; 0x02
    67d8:	2f e2       	ldi	r18, 0x2F	; 47
    67da:	30 e0       	ldi	r19, 0x00	; 0
    67dc:	f9 01       	movw	r30, r18
    67de:	20 81       	ld	r18, Z
    67e0:	fc 01       	movw	r30, r24
    67e2:	20 83       	st	Z, r18
	} while (btr -= 4);
    67e4:	8c 81       	ldd	r24, Y+4	; 0x04
    67e6:	9d 81       	ldd	r25, Y+5	; 0x05
    67e8:	04 97       	sbiw	r24, 0x04	; 4
    67ea:	9d 83       	std	Y+5, r25	; 0x05
    67ec:	8c 83       	std	Y+4, r24	; 0x04
    67ee:	8c 81       	ldd	r24, Y+4	; 0x04
    67f0:	9d 81       	ldd	r25, Y+5	; 0x05
    67f2:	89 2b       	or	r24, r25
    67f4:	09 f0       	breq	.+2      	; 0x67f8 <rcvr_datablock+0x110>
    67f6:	96 cf       	rjmp	.-212    	; 0x6724 <rcvr_datablock+0x3c>
	rcvr_spi();						/* Discard CRC */
    67f8:	0e 94 fe 32 	call	0x65fc	; 0x65fc <rcvr_spi>
	rcvr_spi();
    67fc:	0e 94 fe 32 	call	0x65fc	; 0x65fc <rcvr_spi>

	return 1;						/* Return with success */
    6800:	81 e0       	ldi	r24, 0x01	; 1
    6802:	90 e0       	ldi	r25, 0x00	; 0
}
    6804:	0f 90       	pop	r0
    6806:	0f 90       	pop	r0
    6808:	0f 90       	pop	r0
    680a:	0f 90       	pop	r0
    680c:	0f 90       	pop	r0
    680e:	df 91       	pop	r29
    6810:	cf 91       	pop	r28
    6812:	08 95       	ret

00006814 <xmit_datablock>:
static
int xmit_datablock (
	const BYTE *buff,	/* 512 byte data block to be transmitted */
	BYTE token			/* Data/Stop token */
)
{
    6814:	cf 93       	push	r28
    6816:	df 93       	push	r29
    6818:	00 d0       	rcall	.+0      	; 0x681a <xmit_datablock+0x6>
    681a:	00 d0       	rcall	.+0      	; 0x681c <xmit_datablock+0x8>
    681c:	1f 92       	push	r1
    681e:	cd b7       	in	r28, 0x3d	; 61
    6820:	de b7       	in	r29, 0x3e	; 62
    6822:	9c 83       	std	Y+4, r25	; 0x04
    6824:	8b 83       	std	Y+3, r24	; 0x03
    6826:	6d 83       	std	Y+5, r22	; 0x05
	BYTE resp, wc;


	if (!wait_ready()) return 0;
    6828:	0e 94 14 33 	call	0x6628	; 0x6628 <wait_ready>
    682c:	89 2b       	or	r24, r25
    682e:	19 f4       	brne	.+6      	; 0x6836 <xmit_datablock+0x22>
    6830:	80 e0       	ldi	r24, 0x00	; 0
    6832:	90 e0       	ldi	r25, 0x00	; 0
    6834:	61 c0       	rjmp	.+194    	; 0x68f8 <xmit_datablock+0xe4>

	xmit_spi(token);					/* Xmit data token */
    6836:	8f e2       	ldi	r24, 0x2F	; 47
    6838:	90 e0       	ldi	r25, 0x00	; 0
    683a:	2d 81       	ldd	r18, Y+5	; 0x05
    683c:	fc 01       	movw	r30, r24
    683e:	20 83       	st	Z, r18
    6840:	8e e2       	ldi	r24, 0x2E	; 46
    6842:	90 e0       	ldi	r25, 0x00	; 0
    6844:	fc 01       	movw	r30, r24
    6846:	80 81       	ld	r24, Z
    6848:	88 23       	and	r24, r24
    684a:	d4 f7       	brge	.-12     	; 0x6840 <xmit_datablock+0x2c>
	if (token != 0xFD) {	/* Is data token */
    684c:	8d 81       	ldd	r24, Y+5	; 0x05
    684e:	8d 3f       	cpi	r24, 0xFD	; 253
    6850:	09 f4       	brne	.+2      	; 0x6854 <xmit_datablock+0x40>
    6852:	50 c0       	rjmp	.+160    	; 0x68f4 <xmit_datablock+0xe0>
		wc = 0;
    6854:	19 82       	std	Y+1, r1	; 0x01
		do {							/* Xmit the 512 byte data block to MMC */
			xmit_spi(*buff++);
    6856:	2f e2       	ldi	r18, 0x2F	; 47
    6858:	30 e0       	ldi	r19, 0x00	; 0
    685a:	8b 81       	ldd	r24, Y+3	; 0x03
    685c:	9c 81       	ldd	r25, Y+4	; 0x04
    685e:	ac 01       	movw	r20, r24
    6860:	4f 5f       	subi	r20, 0xFF	; 255
    6862:	5f 4f       	sbci	r21, 0xFF	; 255
    6864:	5c 83       	std	Y+4, r21	; 0x04
    6866:	4b 83       	std	Y+3, r20	; 0x03
    6868:	fc 01       	movw	r30, r24
    686a:	80 81       	ld	r24, Z
    686c:	f9 01       	movw	r30, r18
    686e:	80 83       	st	Z, r24
    6870:	8e e2       	ldi	r24, 0x2E	; 46
    6872:	90 e0       	ldi	r25, 0x00	; 0
    6874:	fc 01       	movw	r30, r24
    6876:	80 81       	ld	r24, Z
    6878:	88 23       	and	r24, r24
    687a:	d4 f7       	brge	.-12     	; 0x6870 <xmit_datablock+0x5c>
			xmit_spi(*buff++);
    687c:	2f e2       	ldi	r18, 0x2F	; 47
    687e:	30 e0       	ldi	r19, 0x00	; 0
    6880:	8b 81       	ldd	r24, Y+3	; 0x03
    6882:	9c 81       	ldd	r25, Y+4	; 0x04
    6884:	ac 01       	movw	r20, r24
    6886:	4f 5f       	subi	r20, 0xFF	; 255
    6888:	5f 4f       	sbci	r21, 0xFF	; 255
    688a:	5c 83       	std	Y+4, r21	; 0x04
    688c:	4b 83       	std	Y+3, r20	; 0x03
    688e:	fc 01       	movw	r30, r24
    6890:	80 81       	ld	r24, Z
    6892:	f9 01       	movw	r30, r18
    6894:	80 83       	st	Z, r24
    6896:	8e e2       	ldi	r24, 0x2E	; 46
    6898:	90 e0       	ldi	r25, 0x00	; 0
    689a:	fc 01       	movw	r30, r24
    689c:	80 81       	ld	r24, Z
    689e:	88 23       	and	r24, r24
    68a0:	d4 f7       	brge	.-12     	; 0x6896 <xmit_datablock+0x82>
		} while (--wc);
    68a2:	89 81       	ldd	r24, Y+1	; 0x01
    68a4:	81 50       	subi	r24, 0x01	; 1
    68a6:	89 83       	std	Y+1, r24	; 0x01
    68a8:	89 81       	ldd	r24, Y+1	; 0x01
    68aa:	88 23       	and	r24, r24
    68ac:	a1 f6       	brne	.-88     	; 0x6856 <xmit_datablock+0x42>
		xmit_spi(0xFF);					/* CRC (Dummy) */
    68ae:	8f e2       	ldi	r24, 0x2F	; 47
    68b0:	90 e0       	ldi	r25, 0x00	; 0
    68b2:	2f ef       	ldi	r18, 0xFF	; 255
    68b4:	fc 01       	movw	r30, r24
    68b6:	20 83       	st	Z, r18
    68b8:	8e e2       	ldi	r24, 0x2E	; 46
    68ba:	90 e0       	ldi	r25, 0x00	; 0
    68bc:	fc 01       	movw	r30, r24
    68be:	80 81       	ld	r24, Z
    68c0:	88 23       	and	r24, r24
    68c2:	d4 f7       	brge	.-12     	; 0x68b8 <xmit_datablock+0xa4>
		xmit_spi(0xFF);
    68c4:	8f e2       	ldi	r24, 0x2F	; 47
    68c6:	90 e0       	ldi	r25, 0x00	; 0
    68c8:	2f ef       	ldi	r18, 0xFF	; 255
    68ca:	fc 01       	movw	r30, r24
    68cc:	20 83       	st	Z, r18
    68ce:	8e e2       	ldi	r24, 0x2E	; 46
    68d0:	90 e0       	ldi	r25, 0x00	; 0
    68d2:	fc 01       	movw	r30, r24
    68d4:	80 81       	ld	r24, Z
    68d6:	88 23       	and	r24, r24
    68d8:	d4 f7       	brge	.-12     	; 0x68ce <xmit_datablock+0xba>
		resp = rcvr_spi();				/* Reveive data response */
    68da:	0e 94 fe 32 	call	0x65fc	; 0x65fc <rcvr_spi>
    68de:	8a 83       	std	Y+2, r24	; 0x02
		if ((resp & 0x1F) != 0x05)		/* If not accepted, return with error */
    68e0:	8a 81       	ldd	r24, Y+2	; 0x02
    68e2:	88 2f       	mov	r24, r24
    68e4:	90 e0       	ldi	r25, 0x00	; 0
    68e6:	8f 71       	andi	r24, 0x1F	; 31
    68e8:	99 27       	eor	r25, r25
    68ea:	05 97       	sbiw	r24, 0x05	; 5
    68ec:	19 f0       	breq	.+6      	; 0x68f4 <xmit_datablock+0xe0>
			return 0;
    68ee:	80 e0       	ldi	r24, 0x00	; 0
    68f0:	90 e0       	ldi	r25, 0x00	; 0
    68f2:	02 c0       	rjmp	.+4      	; 0x68f8 <xmit_datablock+0xe4>
	}

	return 1;
    68f4:	81 e0       	ldi	r24, 0x01	; 1
    68f6:	90 e0       	ldi	r25, 0x00	; 0
}
    68f8:	0f 90       	pop	r0
    68fa:	0f 90       	pop	r0
    68fc:	0f 90       	pop	r0
    68fe:	0f 90       	pop	r0
    6900:	0f 90       	pop	r0
    6902:	df 91       	pop	r29
    6904:	cf 91       	pop	r28
    6906:	08 95       	ret

00006908 <send_cmd>:
static
BYTE send_cmd (		/* Returns R1 resp (bit7==1:Send failed) */
	BYTE cmd,		/* Command index */
	DWORD arg		/* Argument */
)
{
    6908:	cf 93       	push	r28
    690a:	df 93       	push	r29
    690c:	cd b7       	in	r28, 0x3d	; 61
    690e:	de b7       	in	r29, 0x3e	; 62
    6910:	27 97       	sbiw	r28, 0x07	; 7
    6912:	0f b6       	in	r0, 0x3f	; 63
    6914:	f8 94       	cli
    6916:	de bf       	out	0x3e, r29	; 62
    6918:	0f be       	out	0x3f, r0	; 63
    691a:	cd bf       	out	0x3d, r28	; 61
    691c:	8b 83       	std	Y+3, r24	; 0x03
    691e:	4c 83       	std	Y+4, r20	; 0x04
    6920:	5d 83       	std	Y+5, r21	; 0x05
    6922:	6e 83       	std	Y+6, r22	; 0x06
    6924:	7f 83       	std	Y+7, r23	; 0x07
	BYTE n, res;


	if (cmd & 0x80) {	/* ACMD<n> is the command sequense of CMD55-CMD<n> */
    6926:	8b 81       	ldd	r24, Y+3	; 0x03
    6928:	88 23       	and	r24, r24
    692a:	7c f4       	brge	.+30     	; 0x694a <send_cmd+0x42>
		cmd &= 0x7F;
    692c:	8b 81       	ldd	r24, Y+3	; 0x03
    692e:	8f 77       	andi	r24, 0x7F	; 127
    6930:	8b 83       	std	Y+3, r24	; 0x03
		res = send_cmd(CMD55, 0);
    6932:	40 e0       	ldi	r20, 0x00	; 0
    6934:	50 e0       	ldi	r21, 0x00	; 0
    6936:	ba 01       	movw	r22, r20
    6938:	87 e3       	ldi	r24, 0x37	; 55
    693a:	0e 94 84 34 	call	0x6908	; 0x6908 <send_cmd>
    693e:	8a 83       	std	Y+2, r24	; 0x02
		if (res > 1) return res;
    6940:	8a 81       	ldd	r24, Y+2	; 0x02
    6942:	82 30       	cpi	r24, 0x02	; 2
    6944:	10 f0       	brcs	.+4      	; 0x694a <send_cmd+0x42>
    6946:	8a 81       	ldd	r24, Y+2	; 0x02
    6948:	7f c0       	rjmp	.+254    	; 0x6a48 <send_cmd+0x140>
	}

	/* Select the card and wait for ready */
	deselect();
    694a:	0e 94 2d 33 	call	0x665a	; 0x665a <deselect>
	if (!select()) return 0xFF;
    694e:	0e 94 40 33 	call	0x6680	; 0x6680 <select>
    6952:	89 2b       	or	r24, r25
    6954:	11 f4       	brne	.+4      	; 0x695a <send_cmd+0x52>
    6956:	8f ef       	ldi	r24, 0xFF	; 255
    6958:	77 c0       	rjmp	.+238    	; 0x6a48 <send_cmd+0x140>

	/* Send command packet */
	xmit_spi(0x40 | cmd);				/* Start + Command index */
    695a:	8f e2       	ldi	r24, 0x2F	; 47
    695c:	90 e0       	ldi	r25, 0x00	; 0
    695e:	2b 81       	ldd	r18, Y+3	; 0x03
    6960:	20 64       	ori	r18, 0x40	; 64
    6962:	fc 01       	movw	r30, r24
    6964:	20 83       	st	Z, r18
    6966:	8e e2       	ldi	r24, 0x2E	; 46
    6968:	90 e0       	ldi	r25, 0x00	; 0
    696a:	fc 01       	movw	r30, r24
    696c:	80 81       	ld	r24, Z
    696e:	88 23       	and	r24, r24
    6970:	d4 f7       	brge	.-12     	; 0x6966 <send_cmd+0x5e>
	xmit_spi((BYTE)(arg >> 24));		/* Argument[31..24] */
    6972:	2f e2       	ldi	r18, 0x2F	; 47
    6974:	30 e0       	ldi	r19, 0x00	; 0
    6976:	8c 81       	ldd	r24, Y+4	; 0x04
    6978:	9d 81       	ldd	r25, Y+5	; 0x05
    697a:	ae 81       	ldd	r26, Y+6	; 0x06
    697c:	bf 81       	ldd	r27, Y+7	; 0x07
    697e:	8b 2f       	mov	r24, r27
    6980:	99 27       	eor	r25, r25
    6982:	aa 27       	eor	r26, r26
    6984:	bb 27       	eor	r27, r27
    6986:	f9 01       	movw	r30, r18
    6988:	80 83       	st	Z, r24
    698a:	8e e2       	ldi	r24, 0x2E	; 46
    698c:	90 e0       	ldi	r25, 0x00	; 0
    698e:	fc 01       	movw	r30, r24
    6990:	80 81       	ld	r24, Z
    6992:	88 23       	and	r24, r24
    6994:	d4 f7       	brge	.-12     	; 0x698a <send_cmd+0x82>
	xmit_spi((BYTE)(arg >> 16));		/* Argument[23..16] */
    6996:	2f e2       	ldi	r18, 0x2F	; 47
    6998:	30 e0       	ldi	r19, 0x00	; 0
    699a:	8c 81       	ldd	r24, Y+4	; 0x04
    699c:	9d 81       	ldd	r25, Y+5	; 0x05
    699e:	ae 81       	ldd	r26, Y+6	; 0x06
    69a0:	bf 81       	ldd	r27, Y+7	; 0x07
    69a2:	cd 01       	movw	r24, r26
    69a4:	aa 27       	eor	r26, r26
    69a6:	bb 27       	eor	r27, r27
    69a8:	f9 01       	movw	r30, r18
    69aa:	80 83       	st	Z, r24
    69ac:	8e e2       	ldi	r24, 0x2E	; 46
    69ae:	90 e0       	ldi	r25, 0x00	; 0
    69b0:	fc 01       	movw	r30, r24
    69b2:	80 81       	ld	r24, Z
    69b4:	88 23       	and	r24, r24
    69b6:	d4 f7       	brge	.-12     	; 0x69ac <send_cmd+0xa4>
	xmit_spi((BYTE)(arg >> 8));			/* Argument[15..8] */
    69b8:	2f e2       	ldi	r18, 0x2F	; 47
    69ba:	30 e0       	ldi	r19, 0x00	; 0
    69bc:	8c 81       	ldd	r24, Y+4	; 0x04
    69be:	9d 81       	ldd	r25, Y+5	; 0x05
    69c0:	ae 81       	ldd	r26, Y+6	; 0x06
    69c2:	bf 81       	ldd	r27, Y+7	; 0x07
    69c4:	89 2f       	mov	r24, r25
    69c6:	9a 2f       	mov	r25, r26
    69c8:	ab 2f       	mov	r26, r27
    69ca:	bb 27       	eor	r27, r27
    69cc:	f9 01       	movw	r30, r18
    69ce:	80 83       	st	Z, r24
    69d0:	8e e2       	ldi	r24, 0x2E	; 46
    69d2:	90 e0       	ldi	r25, 0x00	; 0
    69d4:	fc 01       	movw	r30, r24
    69d6:	80 81       	ld	r24, Z
    69d8:	88 23       	and	r24, r24
    69da:	d4 f7       	brge	.-12     	; 0x69d0 <send_cmd+0xc8>
	xmit_spi((BYTE)arg);				/* Argument[7..0] */
    69dc:	8f e2       	ldi	r24, 0x2F	; 47
    69de:	90 e0       	ldi	r25, 0x00	; 0
    69e0:	2c 81       	ldd	r18, Y+4	; 0x04
    69e2:	fc 01       	movw	r30, r24
    69e4:	20 83       	st	Z, r18
    69e6:	8e e2       	ldi	r24, 0x2E	; 46
    69e8:	90 e0       	ldi	r25, 0x00	; 0
    69ea:	fc 01       	movw	r30, r24
    69ec:	80 81       	ld	r24, Z
    69ee:	88 23       	and	r24, r24
    69f0:	d4 f7       	brge	.-12     	; 0x69e6 <send_cmd+0xde>
	n = 0x01;							/* Dummy CRC + Stop */
    69f2:	81 e0       	ldi	r24, 0x01	; 1
    69f4:	89 83       	std	Y+1, r24	; 0x01
	if (cmd == CMD0) n = 0x95;			/* Valid CRC for CMD0(0) */
    69f6:	8b 81       	ldd	r24, Y+3	; 0x03
    69f8:	88 23       	and	r24, r24
    69fa:	11 f4       	brne	.+4      	; 0x6a00 <send_cmd+0xf8>
    69fc:	85 e9       	ldi	r24, 0x95	; 149
    69fe:	89 83       	std	Y+1, r24	; 0x01
	if (cmd == CMD8) n = 0x87;			/* Valid CRC for CMD8(0x1AA) */
    6a00:	8b 81       	ldd	r24, Y+3	; 0x03
    6a02:	88 30       	cpi	r24, 0x08	; 8
    6a04:	11 f4       	brne	.+4      	; 0x6a0a <send_cmd+0x102>
    6a06:	87 e8       	ldi	r24, 0x87	; 135
    6a08:	89 83       	std	Y+1, r24	; 0x01
	xmit_spi(n);
    6a0a:	8f e2       	ldi	r24, 0x2F	; 47
    6a0c:	90 e0       	ldi	r25, 0x00	; 0
    6a0e:	29 81       	ldd	r18, Y+1	; 0x01
    6a10:	fc 01       	movw	r30, r24
    6a12:	20 83       	st	Z, r18
    6a14:	8e e2       	ldi	r24, 0x2E	; 46
    6a16:	90 e0       	ldi	r25, 0x00	; 0
    6a18:	fc 01       	movw	r30, r24
    6a1a:	80 81       	ld	r24, Z
    6a1c:	88 23       	and	r24, r24
    6a1e:	d4 f7       	brge	.-12     	; 0x6a14 <send_cmd+0x10c>

	/* Receive command response */
	if (cmd == CMD12) rcvr_spi();		/* Skip a stuff byte when stop reading */
    6a20:	8b 81       	ldd	r24, Y+3	; 0x03
    6a22:	8c 30       	cpi	r24, 0x0C	; 12
    6a24:	11 f4       	brne	.+4      	; 0x6a2a <send_cmd+0x122>
    6a26:	0e 94 fe 32 	call	0x65fc	; 0x65fc <rcvr_spi>
	n = 10;								/* Wait for a valid response in timeout of 10 attempts */
    6a2a:	8a e0       	ldi	r24, 0x0A	; 10
    6a2c:	89 83       	std	Y+1, r24	; 0x01
	do
		res = rcvr_spi();
    6a2e:	0e 94 fe 32 	call	0x65fc	; 0x65fc <rcvr_spi>
    6a32:	8a 83       	std	Y+2, r24	; 0x02
	while ((res & 0x80) && --n);
    6a34:	8a 81       	ldd	r24, Y+2	; 0x02
    6a36:	88 23       	and	r24, r24
    6a38:	34 f4       	brge	.+12     	; 0x6a46 <send_cmd+0x13e>
    6a3a:	89 81       	ldd	r24, Y+1	; 0x01
    6a3c:	81 50       	subi	r24, 0x01	; 1
    6a3e:	89 83       	std	Y+1, r24	; 0x01
    6a40:	89 81       	ldd	r24, Y+1	; 0x01
    6a42:	88 23       	and	r24, r24
    6a44:	a1 f7       	brne	.-24     	; 0x6a2e <send_cmd+0x126>

	return res;			/* Return with the response value */
    6a46:	8a 81       	ldd	r24, Y+2	; 0x02
}
    6a48:	27 96       	adiw	r28, 0x07	; 7
    6a4a:	0f b6       	in	r0, 0x3f	; 63
    6a4c:	f8 94       	cli
    6a4e:	de bf       	out	0x3e, r29	; 62
    6a50:	0f be       	out	0x3f, r0	; 63
    6a52:	cd bf       	out	0x3d, r28	; 61
    6a54:	df 91       	pop	r29
    6a56:	cf 91       	pop	r28
    6a58:	08 95       	ret

00006a5a <disk_initialize>:
/*-----------------------------------------------------------------------*/

DSTATUS disk_initialize (
	BYTE drv		/* Physical drive nmuber (0) */
)
{
    6a5a:	0f 93       	push	r16
    6a5c:	1f 93       	push	r17
    6a5e:	cf 93       	push	r28
    6a60:	df 93       	push	r29
    6a62:	cd b7       	in	r28, 0x3d	; 61
    6a64:	de b7       	in	r29, 0x3e	; 62
    6a66:	28 97       	sbiw	r28, 0x08	; 8
    6a68:	0f b6       	in	r0, 0x3f	; 63
    6a6a:	f8 94       	cli
    6a6c:	de bf       	out	0x3e, r29	; 62
    6a6e:	0f be       	out	0x3f, r0	; 63
    6a70:	cd bf       	out	0x3d, r28	; 61
    6a72:	88 87       	std	Y+8, r24	; 0x08
	BYTE n, cmd, ty, ocr[4];


	if (drv) return STA_NOINIT;			/* Supports only single drive */
    6a74:	88 85       	ldd	r24, Y+8	; 0x08
    6a76:	88 23       	and	r24, r24
    6a78:	11 f0       	breq	.+4      	; 0x6a7e <disk_initialize+0x24>
    6a7a:	81 e0       	ldi	r24, 0x01	; 1
    6a7c:	d7 c0       	rjmp	.+430    	; 0x6c2c <disk_initialize+0x1d2>
	if (Stat & STA_NODISK) return Stat;	/* No card in the socket */
    6a7e:	80 91 60 00 	lds	r24, 0x0060	; 0x800060 <__data_start>
    6a82:	88 2f       	mov	r24, r24
    6a84:	90 e0       	ldi	r25, 0x00	; 0
    6a86:	82 70       	andi	r24, 0x02	; 2
    6a88:	99 27       	eor	r25, r25
    6a8a:	89 2b       	or	r24, r25
    6a8c:	19 f0       	breq	.+6      	; 0x6a94 <disk_initialize+0x3a>
    6a8e:	80 91 60 00 	lds	r24, 0x0060	; 0x800060 <__data_start>
    6a92:	cc c0       	rjmp	.+408    	; 0x6c2c <disk_initialize+0x1d2>

	power_on();							/* Force socket power on */
    6a94:	0e 94 64 33 	call	0x66c8	; 0x66c8 <power_on>
	FCLK_SLOW();
    6a98:	8d e2       	ldi	r24, 0x2D	; 45
    6a9a:	90 e0       	ldi	r25, 0x00	; 0
    6a9c:	2d e2       	ldi	r18, 0x2D	; 45
    6a9e:	30 e0       	ldi	r19, 0x00	; 0
    6aa0:	f9 01       	movw	r30, r18
    6aa2:	20 81       	ld	r18, Z
    6aa4:	22 60       	ori	r18, 0x02	; 2
    6aa6:	fc 01       	movw	r30, r24
    6aa8:	20 83       	st	Z, r18
	for (n = 10; n; n--) rcvr_spi();	/* 80 dummy clocks */
    6aaa:	8a e0       	ldi	r24, 0x0A	; 10
    6aac:	89 83       	std	Y+1, r24	; 0x01
    6aae:	05 c0       	rjmp	.+10     	; 0x6aba <disk_initialize+0x60>
    6ab0:	0e 94 fe 32 	call	0x65fc	; 0x65fc <rcvr_spi>
    6ab4:	89 81       	ldd	r24, Y+1	; 0x01
    6ab6:	81 50       	subi	r24, 0x01	; 1
    6ab8:	89 83       	std	Y+1, r24	; 0x01
    6aba:	89 81       	ldd	r24, Y+1	; 0x01
    6abc:	88 23       	and	r24, r24
    6abe:	c1 f7       	brne	.-16     	; 0x6ab0 <disk_initialize+0x56>

	ty = 0;
    6ac0:	1b 82       	std	Y+3, r1	; 0x03
	if (send_cmd(CMD0, 0) == 1) {			/* Enter Idle state */
    6ac2:	40 e0       	ldi	r20, 0x00	; 0
    6ac4:	50 e0       	ldi	r21, 0x00	; 0
    6ac6:	ba 01       	movw	r22, r20
    6ac8:	80 e0       	ldi	r24, 0x00	; 0
    6aca:	0e 94 84 34 	call	0x6908	; 0x6908 <send_cmd>
    6ace:	81 30       	cpi	r24, 0x01	; 1
    6ad0:	09 f0       	breq	.+2      	; 0x6ad4 <disk_initialize+0x7a>
    6ad2:	91 c0       	rjmp	.+290    	; 0x6bf6 <disk_initialize+0x19c>
		Timer1 = 100;						/* Initialization timeout of 1000 msec */
    6ad4:	84 e6       	ldi	r24, 0x64	; 100
    6ad6:	80 93 99 01 	sts	0x0199, r24	; 0x800199 <Timer1>
		if (send_cmd(CMD8, 0x1AA) == 1) {	/* SDv2? */
    6ada:	4a ea       	ldi	r20, 0xAA	; 170
    6adc:	51 e0       	ldi	r21, 0x01	; 1
    6ade:	60 e0       	ldi	r22, 0x00	; 0
    6ae0:	70 e0       	ldi	r23, 0x00	; 0
    6ae2:	88 e0       	ldi	r24, 0x08	; 8
    6ae4:	0e 94 84 34 	call	0x6908	; 0x6908 <send_cmd>
    6ae8:	81 30       	cpi	r24, 0x01	; 1
    6aea:	09 f0       	breq	.+2      	; 0x6aee <disk_initialize+0x94>
    6aec:	58 c0       	rjmp	.+176    	; 0x6b9e <disk_initialize+0x144>
			for (n = 0; n < 4; n++) ocr[n] = rcvr_spi();		/* Get trailing return value of R7 resp */
    6aee:	19 82       	std	Y+1, r1	; 0x01
    6af0:	0f c0       	rjmp	.+30     	; 0x6b10 <disk_initialize+0xb6>
    6af2:	89 81       	ldd	r24, Y+1	; 0x01
    6af4:	08 2f       	mov	r16, r24
    6af6:	10 e0       	ldi	r17, 0x00	; 0
    6af8:	0e 94 fe 32 	call	0x65fc	; 0x65fc <rcvr_spi>
    6afc:	28 2f       	mov	r18, r24
    6afe:	ce 01       	movw	r24, r28
    6b00:	04 96       	adiw	r24, 0x04	; 4
    6b02:	80 0f       	add	r24, r16
    6b04:	91 1f       	adc	r25, r17
    6b06:	fc 01       	movw	r30, r24
    6b08:	20 83       	st	Z, r18
    6b0a:	89 81       	ldd	r24, Y+1	; 0x01
    6b0c:	8f 5f       	subi	r24, 0xFF	; 255
    6b0e:	89 83       	std	Y+1, r24	; 0x01
    6b10:	89 81       	ldd	r24, Y+1	; 0x01
    6b12:	84 30       	cpi	r24, 0x04	; 4
    6b14:	70 f3       	brcs	.-36     	; 0x6af2 <disk_initialize+0x98>
			if (ocr[2] == 0x01 && ocr[3] == 0xAA) {				/* The card can work at vdd range of 2.7-3.6V */
    6b16:	8e 81       	ldd	r24, Y+6	; 0x06
    6b18:	81 30       	cpi	r24, 0x01	; 1
    6b1a:	09 f0       	breq	.+2      	; 0x6b1e <disk_initialize+0xc4>
    6b1c:	6c c0       	rjmp	.+216    	; 0x6bf6 <disk_initialize+0x19c>
    6b1e:	8f 81       	ldd	r24, Y+7	; 0x07
    6b20:	8a 3a       	cpi	r24, 0xAA	; 170
    6b22:	09 f0       	breq	.+2      	; 0x6b26 <disk_initialize+0xcc>
    6b24:	68 c0       	rjmp	.+208    	; 0x6bf6 <disk_initialize+0x19c>
				while (Timer1 && send_cmd(ACMD41, 1UL << 30));	/* Wait for leaving idle state (ACMD41 with HCS bit) */
    6b26:	00 00       	nop
    6b28:	80 91 99 01 	lds	r24, 0x0199	; 0x800199 <Timer1>
    6b2c:	88 23       	and	r24, r24
    6b2e:	49 f0       	breq	.+18     	; 0x6b42 <disk_initialize+0xe8>
    6b30:	40 e0       	ldi	r20, 0x00	; 0
    6b32:	50 e0       	ldi	r21, 0x00	; 0
    6b34:	60 e0       	ldi	r22, 0x00	; 0
    6b36:	70 e4       	ldi	r23, 0x40	; 64
    6b38:	89 ea       	ldi	r24, 0xA9	; 169
    6b3a:	0e 94 84 34 	call	0x6908	; 0x6908 <send_cmd>
    6b3e:	88 23       	and	r24, r24
    6b40:	99 f7       	brne	.-26     	; 0x6b28 <disk_initialize+0xce>
				if (Timer1 && send_cmd(CMD58, 0) == 0) {		/* Check CCS bit in the OCR */
    6b42:	80 91 99 01 	lds	r24, 0x0199	; 0x800199 <Timer1>
    6b46:	88 23       	and	r24, r24
    6b48:	09 f4       	brne	.+2      	; 0x6b4c <disk_initialize+0xf2>
    6b4a:	55 c0       	rjmp	.+170    	; 0x6bf6 <disk_initialize+0x19c>
    6b4c:	40 e0       	ldi	r20, 0x00	; 0
    6b4e:	50 e0       	ldi	r21, 0x00	; 0
    6b50:	ba 01       	movw	r22, r20
    6b52:	8a e3       	ldi	r24, 0x3A	; 58
    6b54:	0e 94 84 34 	call	0x6908	; 0x6908 <send_cmd>
    6b58:	88 23       	and	r24, r24
    6b5a:	09 f0       	breq	.+2      	; 0x6b5e <disk_initialize+0x104>
    6b5c:	4c c0       	rjmp	.+152    	; 0x6bf6 <disk_initialize+0x19c>
					for (n = 0; n < 4; n++) ocr[n] = rcvr_spi();
    6b5e:	19 82       	std	Y+1, r1	; 0x01
    6b60:	0f c0       	rjmp	.+30     	; 0x6b80 <disk_initialize+0x126>
    6b62:	89 81       	ldd	r24, Y+1	; 0x01
    6b64:	08 2f       	mov	r16, r24
    6b66:	10 e0       	ldi	r17, 0x00	; 0
    6b68:	0e 94 fe 32 	call	0x65fc	; 0x65fc <rcvr_spi>
    6b6c:	28 2f       	mov	r18, r24
    6b6e:	ce 01       	movw	r24, r28
    6b70:	04 96       	adiw	r24, 0x04	; 4
    6b72:	80 0f       	add	r24, r16
    6b74:	91 1f       	adc	r25, r17
    6b76:	fc 01       	movw	r30, r24
    6b78:	20 83       	st	Z, r18
    6b7a:	89 81       	ldd	r24, Y+1	; 0x01
    6b7c:	8f 5f       	subi	r24, 0xFF	; 255
    6b7e:	89 83       	std	Y+1, r24	; 0x01
    6b80:	89 81       	ldd	r24, Y+1	; 0x01
    6b82:	84 30       	cpi	r24, 0x04	; 4
    6b84:	70 f3       	brcs	.-36     	; 0x6b62 <disk_initialize+0x108>
					ty = (ocr[0] & 0x40) ? CT_SD2 | CT_BLOCK : CT_SD2;	/* SDv2 */
    6b86:	8c 81       	ldd	r24, Y+4	; 0x04
    6b88:	88 2f       	mov	r24, r24
    6b8a:	90 e0       	ldi	r25, 0x00	; 0
    6b8c:	80 74       	andi	r24, 0x40	; 64
    6b8e:	99 27       	eor	r25, r25
    6b90:	89 2b       	or	r24, r25
    6b92:	11 f0       	breq	.+4      	; 0x6b98 <disk_initialize+0x13e>
    6b94:	8c e0       	ldi	r24, 0x0C	; 12
    6b96:	01 c0       	rjmp	.+2      	; 0x6b9a <disk_initialize+0x140>
    6b98:	84 e0       	ldi	r24, 0x04	; 4
    6b9a:	8b 83       	std	Y+3, r24	; 0x03
    6b9c:	2c c0       	rjmp	.+88     	; 0x6bf6 <disk_initialize+0x19c>
				}
			}
		} else {							/* SDv1 or MMCv3 */
			if (send_cmd(ACMD41, 0) <= 1) 	{
    6b9e:	40 e0       	ldi	r20, 0x00	; 0
    6ba0:	50 e0       	ldi	r21, 0x00	; 0
    6ba2:	ba 01       	movw	r22, r20
    6ba4:	89 ea       	ldi	r24, 0xA9	; 169
    6ba6:	0e 94 84 34 	call	0x6908	; 0x6908 <send_cmd>
    6baa:	82 30       	cpi	r24, 0x02	; 2
    6bac:	28 f4       	brcc	.+10     	; 0x6bb8 <disk_initialize+0x15e>
				ty = CT_SD1; cmd = ACMD41;	/* SDv1 */
    6bae:	82 e0       	ldi	r24, 0x02	; 2
    6bb0:	8b 83       	std	Y+3, r24	; 0x03
    6bb2:	89 ea       	ldi	r24, 0xA9	; 169
    6bb4:	8a 83       	std	Y+2, r24	; 0x02
    6bb6:	04 c0       	rjmp	.+8      	; 0x6bc0 <disk_initialize+0x166>
			} else {
				ty = CT_MMC; cmd = CMD1;	/* MMCv3 */
    6bb8:	81 e0       	ldi	r24, 0x01	; 1
    6bba:	8b 83       	std	Y+3, r24	; 0x03
    6bbc:	81 e0       	ldi	r24, 0x01	; 1
    6bbe:	8a 83       	std	Y+2, r24	; 0x02
			}
			while (Timer1 && send_cmd(cmd, 0));			/* Wait for leaving idle state */
    6bc0:	00 00       	nop
    6bc2:	80 91 99 01 	lds	r24, 0x0199	; 0x800199 <Timer1>
    6bc6:	88 23       	and	r24, r24
    6bc8:	41 f0       	breq	.+16     	; 0x6bda <disk_initialize+0x180>
    6bca:	40 e0       	ldi	r20, 0x00	; 0
    6bcc:	50 e0       	ldi	r21, 0x00	; 0
    6bce:	ba 01       	movw	r22, r20
    6bd0:	8a 81       	ldd	r24, Y+2	; 0x02
    6bd2:	0e 94 84 34 	call	0x6908	; 0x6908 <send_cmd>
    6bd6:	88 23       	and	r24, r24
    6bd8:	a1 f7       	brne	.-24     	; 0x6bc2 <disk_initialize+0x168>
			if (!Timer1 || send_cmd(CMD16, 512) != 0)	/* Set R/W block length to 512 */
    6bda:	80 91 99 01 	lds	r24, 0x0199	; 0x800199 <Timer1>
    6bde:	88 23       	and	r24, r24
    6be0:	49 f0       	breq	.+18     	; 0x6bf4 <disk_initialize+0x19a>
    6be2:	40 e0       	ldi	r20, 0x00	; 0
    6be4:	52 e0       	ldi	r21, 0x02	; 2
    6be6:	60 e0       	ldi	r22, 0x00	; 0
    6be8:	70 e0       	ldi	r23, 0x00	; 0
    6bea:	80 e1       	ldi	r24, 0x10	; 16
    6bec:	0e 94 84 34 	call	0x6908	; 0x6908 <send_cmd>
    6bf0:	88 23       	and	r24, r24
    6bf2:	09 f0       	breq	.+2      	; 0x6bf6 <disk_initialize+0x19c>
				ty = 0;
    6bf4:	1b 82       	std	Y+3, r1	; 0x03
		}
	}
	//blinkWhiteLEDnrazy(ty);
	CardType = ty;
    6bf6:	8b 81       	ldd	r24, Y+3	; 0x03
    6bf8:	80 93 9b 01 	sts	0x019B, r24	; 0x80019b <CardType>
	deselect();
    6bfc:	0e 94 2d 33 	call	0x665a	; 0x665a <deselect>

	if (ty) {			/* Initialization succeded */
    6c00:	8b 81       	ldd	r24, Y+3	; 0x03
    6c02:	88 23       	and	r24, r24
    6c04:	79 f0       	breq	.+30     	; 0x6c24 <disk_initialize+0x1ca>
		Stat &= ~STA_NOINIT;		/* Clear STA_NOINIT */
    6c06:	80 91 60 00 	lds	r24, 0x0060	; 0x800060 <__data_start>
    6c0a:	8e 7f       	andi	r24, 0xFE	; 254
    6c0c:	80 93 60 00 	sts	0x0060, r24	; 0x800060 <__data_start>
		FCLK_FAST();
    6c10:	8d e2       	ldi	r24, 0x2D	; 45
    6c12:	90 e0       	ldi	r25, 0x00	; 0
    6c14:	2d e2       	ldi	r18, 0x2D	; 45
    6c16:	30 e0       	ldi	r19, 0x00	; 0
    6c18:	f9 01       	movw	r30, r18
    6c1a:	20 81       	ld	r18, Z
    6c1c:	2c 7f       	andi	r18, 0xFC	; 252
    6c1e:	fc 01       	movw	r30, r24
    6c20:	20 83       	st	Z, r18
    6c22:	02 c0       	rjmp	.+4      	; 0x6c28 <disk_initialize+0x1ce>
	} else {			/* Initialization failed */
		power_off();
    6c24:	0e 94 6c 33 	call	0x66d8	; 0x66d8 <power_off>
	}

	return Stat;
    6c28:	80 91 60 00 	lds	r24, 0x0060	; 0x800060 <__data_start>
}
    6c2c:	28 96       	adiw	r28, 0x08	; 8
    6c2e:	0f b6       	in	r0, 0x3f	; 63
    6c30:	f8 94       	cli
    6c32:	de bf       	out	0x3e, r29	; 62
    6c34:	0f be       	out	0x3f, r0	; 63
    6c36:	cd bf       	out	0x3d, r28	; 61
    6c38:	df 91       	pop	r29
    6c3a:	cf 91       	pop	r28
    6c3c:	1f 91       	pop	r17
    6c3e:	0f 91       	pop	r16
    6c40:	08 95       	ret

00006c42 <disk_status>:
/*-----------------------------------------------------------------------*/

DSTATUS disk_status (
	BYTE drv		/* Physical drive nmuber (0) */
)
{
    6c42:	cf 93       	push	r28
    6c44:	df 93       	push	r29
    6c46:	1f 92       	push	r1
    6c48:	cd b7       	in	r28, 0x3d	; 61
    6c4a:	de b7       	in	r29, 0x3e	; 62
    6c4c:	89 83       	std	Y+1, r24	; 0x01
	if (drv) return STA_NOINIT;		/* Supports only single drive */
    6c4e:	89 81       	ldd	r24, Y+1	; 0x01
    6c50:	88 23       	and	r24, r24
    6c52:	11 f0       	breq	.+4      	; 0x6c58 <disk_status+0x16>
    6c54:	81 e0       	ldi	r24, 0x01	; 1
    6c56:	02 c0       	rjmp	.+4      	; 0x6c5c <disk_status+0x1a>
	return Stat;
    6c58:	80 91 60 00 	lds	r24, 0x0060	; 0x800060 <__data_start>
}
    6c5c:	0f 90       	pop	r0
    6c5e:	df 91       	pop	r29
    6c60:	cf 91       	pop	r28
    6c62:	08 95       	ret

00006c64 <disk_read>:
	BYTE drv,			/* Physical drive nmuber (0) */
	BYTE *buff,			/* Pointer to the data buffer to store read data */
	DWORD sector,		/* Start sector number (LBA) */
	BYTE count			/* Sector count (1..255) */
)
{
    6c64:	0f 93       	push	r16
    6c66:	cf 93       	push	r28
    6c68:	df 93       	push	r29
    6c6a:	cd b7       	in	r28, 0x3d	; 61
    6c6c:	de b7       	in	r29, 0x3e	; 62
    6c6e:	28 97       	sbiw	r28, 0x08	; 8
    6c70:	0f b6       	in	r0, 0x3f	; 63
    6c72:	f8 94       	cli
    6c74:	de bf       	out	0x3e, r29	; 62
    6c76:	0f be       	out	0x3f, r0	; 63
    6c78:	cd bf       	out	0x3d, r28	; 61
    6c7a:	89 83       	std	Y+1, r24	; 0x01
    6c7c:	7b 83       	std	Y+3, r23	; 0x03
    6c7e:	6a 83       	std	Y+2, r22	; 0x02
    6c80:	2c 83       	std	Y+4, r18	; 0x04
    6c82:	3d 83       	std	Y+5, r19	; 0x05
    6c84:	4e 83       	std	Y+6, r20	; 0x06
    6c86:	5f 83       	std	Y+7, r21	; 0x07
    6c88:	08 87       	std	Y+8, r16	; 0x08
	if (drv || !count) return RES_PARERR;
    6c8a:	89 81       	ldd	r24, Y+1	; 0x01
    6c8c:	88 23       	and	r24, r24
    6c8e:	19 f4       	brne	.+6      	; 0x6c96 <disk_read+0x32>
    6c90:	88 85       	ldd	r24, Y+8	; 0x08
    6c92:	88 23       	and	r24, r24
    6c94:	11 f4       	brne	.+4      	; 0x6c9a <disk_read+0x36>
    6c96:	84 e0       	ldi	r24, 0x04	; 4
    6c98:	68 c0       	rjmp	.+208    	; 0x6d6a <disk_read+0x106>
	if (Stat & STA_NOINIT) return RES_NOTRDY;
    6c9a:	80 91 60 00 	lds	r24, 0x0060	; 0x800060 <__data_start>
    6c9e:	88 2f       	mov	r24, r24
    6ca0:	90 e0       	ldi	r25, 0x00	; 0
    6ca2:	81 70       	andi	r24, 0x01	; 1
    6ca4:	99 27       	eor	r25, r25
    6ca6:	89 2b       	or	r24, r25
    6ca8:	11 f0       	breq	.+4      	; 0x6cae <disk_read+0x4a>
    6caa:	83 e0       	ldi	r24, 0x03	; 3
    6cac:	5e c0       	rjmp	.+188    	; 0x6d6a <disk_read+0x106>

	if (!(CardType & CT_BLOCK)) sector *= 512;	/* Convert to byte address if needed */
    6cae:	80 91 9b 01 	lds	r24, 0x019B	; 0x80019b <CardType>
    6cb2:	88 2f       	mov	r24, r24
    6cb4:	90 e0       	ldi	r25, 0x00	; 0
    6cb6:	88 70       	andi	r24, 0x08	; 8
    6cb8:	99 27       	eor	r25, r25
    6cba:	89 2b       	or	r24, r25
    6cbc:	89 f4       	brne	.+34     	; 0x6ce0 <disk_read+0x7c>
    6cbe:	8c 81       	ldd	r24, Y+4	; 0x04
    6cc0:	9d 81       	ldd	r25, Y+5	; 0x05
    6cc2:	ae 81       	ldd	r26, Y+6	; 0x06
    6cc4:	bf 81       	ldd	r27, Y+7	; 0x07
    6cc6:	07 2e       	mov	r0, r23
    6cc8:	79 e0       	ldi	r23, 0x09	; 9
    6cca:	88 0f       	add	r24, r24
    6ccc:	99 1f       	adc	r25, r25
    6cce:	aa 1f       	adc	r26, r26
    6cd0:	bb 1f       	adc	r27, r27
    6cd2:	7a 95       	dec	r23
    6cd4:	d1 f7       	brne	.-12     	; 0x6cca <disk_read+0x66>
    6cd6:	70 2d       	mov	r23, r0
    6cd8:	8c 83       	std	Y+4, r24	; 0x04
    6cda:	9d 83       	std	Y+5, r25	; 0x05
    6cdc:	ae 83       	std	Y+6, r26	; 0x06
    6cde:	bf 83       	std	Y+7, r27	; 0x07

	if (count == 1) {	/* Single block read */
    6ce0:	88 85       	ldd	r24, Y+8	; 0x08
    6ce2:	81 30       	cpi	r24, 0x01	; 1
    6ce4:	a9 f4       	brne	.+42     	; 0x6d10 <disk_read+0xac>
		if ((send_cmd(CMD17, sector) == 0)	/* READ_SINGLE_BLOCK */
    6ce6:	8c 81       	ldd	r24, Y+4	; 0x04
    6ce8:	9d 81       	ldd	r25, Y+5	; 0x05
    6cea:	ae 81       	ldd	r26, Y+6	; 0x06
    6cec:	bf 81       	ldd	r27, Y+7	; 0x07
    6cee:	ac 01       	movw	r20, r24
    6cf0:	bd 01       	movw	r22, r26
    6cf2:	81 e1       	ldi	r24, 0x11	; 17
    6cf4:	0e 94 84 34 	call	0x6908	; 0x6908 <send_cmd>
    6cf8:	88 23       	and	r24, r24
    6cfa:	81 f5       	brne	.+96     	; 0x6d5c <disk_read+0xf8>
			&& rcvr_datablock(buff, 512))
    6cfc:	8a 81       	ldd	r24, Y+2	; 0x02
    6cfe:	9b 81       	ldd	r25, Y+3	; 0x03
    6d00:	60 e0       	ldi	r22, 0x00	; 0
    6d02:	72 e0       	ldi	r23, 0x02	; 2
    6d04:	0e 94 74 33 	call	0x66e8	; 0x66e8 <rcvr_datablock>
    6d08:	89 2b       	or	r24, r25
    6d0a:	41 f1       	breq	.+80     	; 0x6d5c <disk_read+0xf8>
			count = 0;
    6d0c:	18 86       	std	Y+8, r1	; 0x08
    6d0e:	26 c0       	rjmp	.+76     	; 0x6d5c <disk_read+0xf8>
	}
	else {				/* Multiple block read */
		if (send_cmd(CMD18, sector) == 0) {	/* READ_MULTIPLE_BLOCK */
    6d10:	8c 81       	ldd	r24, Y+4	; 0x04
    6d12:	9d 81       	ldd	r25, Y+5	; 0x05
    6d14:	ae 81       	ldd	r26, Y+6	; 0x06
    6d16:	bf 81       	ldd	r27, Y+7	; 0x07
    6d18:	ac 01       	movw	r20, r24
    6d1a:	bd 01       	movw	r22, r26
    6d1c:	82 e1       	ldi	r24, 0x12	; 18
    6d1e:	0e 94 84 34 	call	0x6908	; 0x6908 <send_cmd>
    6d22:	88 23       	and	r24, r24
    6d24:	d9 f4       	brne	.+54     	; 0x6d5c <disk_read+0xf8>
			do {
				if (!rcvr_datablock(buff, 512)) break;
    6d26:	8a 81       	ldd	r24, Y+2	; 0x02
    6d28:	9b 81       	ldd	r25, Y+3	; 0x03
    6d2a:	60 e0       	ldi	r22, 0x00	; 0
    6d2c:	72 e0       	ldi	r23, 0x02	; 2
    6d2e:	0e 94 74 33 	call	0x66e8	; 0x66e8 <rcvr_datablock>
    6d32:	89 2b       	or	r24, r25
    6d34:	61 f0       	breq	.+24     	; 0x6d4e <disk_read+0xea>
				buff += 512;
    6d36:	8a 81       	ldd	r24, Y+2	; 0x02
    6d38:	9b 81       	ldd	r25, Y+3	; 0x03
    6d3a:	9e 5f       	subi	r25, 0xFE	; 254
    6d3c:	9b 83       	std	Y+3, r25	; 0x03
    6d3e:	8a 83       	std	Y+2, r24	; 0x02
			} while (--count);
    6d40:	88 85       	ldd	r24, Y+8	; 0x08
    6d42:	81 50       	subi	r24, 0x01	; 1
    6d44:	88 87       	std	Y+8, r24	; 0x08
    6d46:	88 85       	ldd	r24, Y+8	; 0x08
    6d48:	88 23       	and	r24, r24
    6d4a:	69 f7       	brne	.-38     	; 0x6d26 <disk_read+0xc2>
    6d4c:	01 c0       	rjmp	.+2      	; 0x6d50 <disk_read+0xec>
			count = 0;
	}
	else {				/* Multiple block read */
		if (send_cmd(CMD18, sector) == 0) {	/* READ_MULTIPLE_BLOCK */
			do {
				if (!rcvr_datablock(buff, 512)) break;
    6d4e:	00 00       	nop
				buff += 512;
			} while (--count);
			send_cmd(CMD12, 0);				/* STOP_TRANSMISSION */
    6d50:	40 e0       	ldi	r20, 0x00	; 0
    6d52:	50 e0       	ldi	r21, 0x00	; 0
    6d54:	ba 01       	movw	r22, r20
    6d56:	8c e0       	ldi	r24, 0x0C	; 12
    6d58:	0e 94 84 34 	call	0x6908	; 0x6908 <send_cmd>
		}
	}
	deselect();
    6d5c:	0e 94 2d 33 	call	0x665a	; 0x665a <deselect>

	return count ? RES_ERROR : RES_OK;
    6d60:	81 e0       	ldi	r24, 0x01	; 1
    6d62:	98 85       	ldd	r25, Y+8	; 0x08
    6d64:	99 23       	and	r25, r25
    6d66:	09 f4       	brne	.+2      	; 0x6d6a <disk_read+0x106>
    6d68:	80 e0       	ldi	r24, 0x00	; 0
}
    6d6a:	28 96       	adiw	r28, 0x08	; 8
    6d6c:	0f b6       	in	r0, 0x3f	; 63
    6d6e:	f8 94       	cli
    6d70:	de bf       	out	0x3e, r29	; 62
    6d72:	0f be       	out	0x3f, r0	; 63
    6d74:	cd bf       	out	0x3d, r28	; 61
    6d76:	df 91       	pop	r29
    6d78:	cf 91       	pop	r28
    6d7a:	0f 91       	pop	r16
    6d7c:	08 95       	ret

00006d7e <disk_write>:
	BYTE drv,			/* Physical drive nmuber (0) */
	const BYTE *buff,	/* Pointer to the data to be written */
	DWORD sector,		/* Start sector number (LBA) */
	BYTE count			/* Sector count (1..255) */
)
{
    6d7e:	0f 93       	push	r16
    6d80:	cf 93       	push	r28
    6d82:	df 93       	push	r29
    6d84:	cd b7       	in	r28, 0x3d	; 61
    6d86:	de b7       	in	r29, 0x3e	; 62
    6d88:	28 97       	sbiw	r28, 0x08	; 8
    6d8a:	0f b6       	in	r0, 0x3f	; 63
    6d8c:	f8 94       	cli
    6d8e:	de bf       	out	0x3e, r29	; 62
    6d90:	0f be       	out	0x3f, r0	; 63
    6d92:	cd bf       	out	0x3d, r28	; 61
    6d94:	89 83       	std	Y+1, r24	; 0x01
    6d96:	7b 83       	std	Y+3, r23	; 0x03
    6d98:	6a 83       	std	Y+2, r22	; 0x02
    6d9a:	2c 83       	std	Y+4, r18	; 0x04
    6d9c:	3d 83       	std	Y+5, r19	; 0x05
    6d9e:	4e 83       	std	Y+6, r20	; 0x06
    6da0:	5f 83       	std	Y+7, r21	; 0x07
    6da2:	08 87       	std	Y+8, r16	; 0x08
	if (drv || !count) return RES_PARERR;
    6da4:	89 81       	ldd	r24, Y+1	; 0x01
    6da6:	88 23       	and	r24, r24
    6da8:	19 f4       	brne	.+6      	; 0x6db0 <disk_write+0x32>
    6daa:	88 85       	ldd	r24, Y+8	; 0x08
    6dac:	88 23       	and	r24, r24
    6dae:	11 f4       	brne	.+4      	; 0x6db4 <disk_write+0x36>
    6db0:	84 e0       	ldi	r24, 0x04	; 4
    6db2:	86 c0       	rjmp	.+268    	; 0x6ec0 <disk_write+0x142>
	if (Stat & STA_NOINIT) return RES_NOTRDY;
    6db4:	80 91 60 00 	lds	r24, 0x0060	; 0x800060 <__data_start>
    6db8:	88 2f       	mov	r24, r24
    6dba:	90 e0       	ldi	r25, 0x00	; 0
    6dbc:	81 70       	andi	r24, 0x01	; 1
    6dbe:	99 27       	eor	r25, r25
    6dc0:	89 2b       	or	r24, r25
    6dc2:	11 f0       	breq	.+4      	; 0x6dc8 <disk_write+0x4a>
    6dc4:	83 e0       	ldi	r24, 0x03	; 3
    6dc6:	7c c0       	rjmp	.+248    	; 0x6ec0 <disk_write+0x142>
	if (Stat & STA_PROTECT) return RES_WRPRT;
    6dc8:	80 91 60 00 	lds	r24, 0x0060	; 0x800060 <__data_start>
    6dcc:	88 2f       	mov	r24, r24
    6dce:	90 e0       	ldi	r25, 0x00	; 0
    6dd0:	84 70       	andi	r24, 0x04	; 4
    6dd2:	99 27       	eor	r25, r25
    6dd4:	89 2b       	or	r24, r25
    6dd6:	11 f0       	breq	.+4      	; 0x6ddc <disk_write+0x5e>
    6dd8:	82 e0       	ldi	r24, 0x02	; 2
    6dda:	72 c0       	rjmp	.+228    	; 0x6ec0 <disk_write+0x142>

	if (!(CardType & CT_BLOCK)) sector *= 512;	/* Convert to byte address if needed */
    6ddc:	80 91 9b 01 	lds	r24, 0x019B	; 0x80019b <CardType>
    6de0:	88 2f       	mov	r24, r24
    6de2:	90 e0       	ldi	r25, 0x00	; 0
    6de4:	88 70       	andi	r24, 0x08	; 8
    6de6:	99 27       	eor	r25, r25
    6de8:	89 2b       	or	r24, r25
    6dea:	89 f4       	brne	.+34     	; 0x6e0e <disk_write+0x90>
    6dec:	8c 81       	ldd	r24, Y+4	; 0x04
    6dee:	9d 81       	ldd	r25, Y+5	; 0x05
    6df0:	ae 81       	ldd	r26, Y+6	; 0x06
    6df2:	bf 81       	ldd	r27, Y+7	; 0x07
    6df4:	07 2e       	mov	r0, r23
    6df6:	79 e0       	ldi	r23, 0x09	; 9
    6df8:	88 0f       	add	r24, r24
    6dfa:	99 1f       	adc	r25, r25
    6dfc:	aa 1f       	adc	r26, r26
    6dfe:	bb 1f       	adc	r27, r27
    6e00:	7a 95       	dec	r23
    6e02:	d1 f7       	brne	.-12     	; 0x6df8 <disk_write+0x7a>
    6e04:	70 2d       	mov	r23, r0
    6e06:	8c 83       	std	Y+4, r24	; 0x04
    6e08:	9d 83       	std	Y+5, r25	; 0x05
    6e0a:	ae 83       	std	Y+6, r26	; 0x06
    6e0c:	bf 83       	std	Y+7, r27	; 0x07

	if (count == 1) {	/* Single block write */
    6e0e:	88 85       	ldd	r24, Y+8	; 0x08
    6e10:	81 30       	cpi	r24, 0x01	; 1
    6e12:	a9 f4       	brne	.+42     	; 0x6e3e <disk_write+0xc0>
		if ((send_cmd(CMD24, sector) == 0)	/* WRITE_BLOCK */
    6e14:	8c 81       	ldd	r24, Y+4	; 0x04
    6e16:	9d 81       	ldd	r25, Y+5	; 0x05
    6e18:	ae 81       	ldd	r26, Y+6	; 0x06
    6e1a:	bf 81       	ldd	r27, Y+7	; 0x07
    6e1c:	ac 01       	movw	r20, r24
    6e1e:	bd 01       	movw	r22, r26
    6e20:	88 e1       	ldi	r24, 0x18	; 24
    6e22:	0e 94 84 34 	call	0x6908	; 0x6908 <send_cmd>
    6e26:	88 23       	and	r24, r24
    6e28:	09 f0       	breq	.+2      	; 0x6e2c <disk_write+0xae>
    6e2a:	43 c0       	rjmp	.+134    	; 0x6eb2 <disk_write+0x134>
			&& xmit_datablock(buff, 0xFE))
    6e2c:	8a 81       	ldd	r24, Y+2	; 0x02
    6e2e:	9b 81       	ldd	r25, Y+3	; 0x03
    6e30:	6e ef       	ldi	r22, 0xFE	; 254
    6e32:	0e 94 0a 34 	call	0x6814	; 0x6814 <xmit_datablock>
    6e36:	89 2b       	or	r24, r25
    6e38:	e1 f1       	breq	.+120    	; 0x6eb2 <disk_write+0x134>
			count = 0;
    6e3a:	18 86       	std	Y+8, r1	; 0x08
    6e3c:	3a c0       	rjmp	.+116    	; 0x6eb2 <disk_write+0x134>
	}
	else {				/* Multiple block write */
		if (CardType & CT_SDC) send_cmd(ACMD23, count);
    6e3e:	80 91 9b 01 	lds	r24, 0x019B	; 0x80019b <CardType>
    6e42:	88 2f       	mov	r24, r24
    6e44:	90 e0       	ldi	r25, 0x00	; 0
    6e46:	86 70       	andi	r24, 0x06	; 6
    6e48:	99 27       	eor	r25, r25
    6e4a:	89 2b       	or	r24, r25
    6e4c:	51 f0       	breq	.+20     	; 0x6e62 <disk_write+0xe4>
    6e4e:	88 85       	ldd	r24, Y+8	; 0x08
    6e50:	88 2f       	mov	r24, r24
    6e52:	90 e0       	ldi	r25, 0x00	; 0
    6e54:	a0 e0       	ldi	r26, 0x00	; 0
    6e56:	b0 e0       	ldi	r27, 0x00	; 0
    6e58:	ac 01       	movw	r20, r24
    6e5a:	bd 01       	movw	r22, r26
    6e5c:	87 e9       	ldi	r24, 0x97	; 151
    6e5e:	0e 94 84 34 	call	0x6908	; 0x6908 <send_cmd>
		if (send_cmd(CMD25, sector) == 0) {	/* WRITE_MULTIPLE_BLOCK */
    6e62:	8c 81       	ldd	r24, Y+4	; 0x04
    6e64:	9d 81       	ldd	r25, Y+5	; 0x05
    6e66:	ae 81       	ldd	r26, Y+6	; 0x06
    6e68:	bf 81       	ldd	r27, Y+7	; 0x07
    6e6a:	ac 01       	movw	r20, r24
    6e6c:	bd 01       	movw	r22, r26
    6e6e:	89 e1       	ldi	r24, 0x19	; 25
    6e70:	0e 94 84 34 	call	0x6908	; 0x6908 <send_cmd>
    6e74:	88 23       	and	r24, r24
    6e76:	e9 f4       	brne	.+58     	; 0x6eb2 <disk_write+0x134>
			do {
				if (!xmit_datablock(buff, 0xFC)) break;
    6e78:	8a 81       	ldd	r24, Y+2	; 0x02
    6e7a:	9b 81       	ldd	r25, Y+3	; 0x03
    6e7c:	6c ef       	ldi	r22, 0xFC	; 252
    6e7e:	0e 94 0a 34 	call	0x6814	; 0x6814 <xmit_datablock>
    6e82:	89 2b       	or	r24, r25
    6e84:	61 f0       	breq	.+24     	; 0x6e9e <disk_write+0x120>
				buff += 512;
    6e86:	8a 81       	ldd	r24, Y+2	; 0x02
    6e88:	9b 81       	ldd	r25, Y+3	; 0x03
    6e8a:	9e 5f       	subi	r25, 0xFE	; 254
    6e8c:	9b 83       	std	Y+3, r25	; 0x03
    6e8e:	8a 83       	std	Y+2, r24	; 0x02
			} while (--count);
    6e90:	88 85       	ldd	r24, Y+8	; 0x08
    6e92:	81 50       	subi	r24, 0x01	; 1
    6e94:	88 87       	std	Y+8, r24	; 0x08
    6e96:	88 85       	ldd	r24, Y+8	; 0x08
    6e98:	88 23       	and	r24, r24
    6e9a:	71 f7       	brne	.-36     	; 0x6e78 <disk_write+0xfa>
    6e9c:	01 c0       	rjmp	.+2      	; 0x6ea0 <disk_write+0x122>
	}
	else {				/* Multiple block write */
		if (CardType & CT_SDC) send_cmd(ACMD23, count);
		if (send_cmd(CMD25, sector) == 0) {	/* WRITE_MULTIPLE_BLOCK */
			do {
				if (!xmit_datablock(buff, 0xFC)) break;
    6e9e:	00 00       	nop
				buff += 512;
			} while (--count);
			if (!xmit_datablock(0, 0xFD))	/* STOP_TRAN token */
    6ea0:	6d ef       	ldi	r22, 0xFD	; 253
    6ea2:	80 e0       	ldi	r24, 0x00	; 0
    6ea4:	90 e0       	ldi	r25, 0x00	; 0
    6ea6:	0e 94 0a 34 	call	0x6814	; 0x6814 <xmit_datablock>
    6eaa:	89 2b       	or	r24, r25
    6eac:	11 f4       	brne	.+4      	; 0x6eb2 <disk_write+0x134>
				count = 1;
    6eae:	81 e0       	ldi	r24, 0x01	; 1
    6eb0:	88 87       	std	Y+8, r24	; 0x08
		}
	}
	deselect();
    6eb2:	0e 94 2d 33 	call	0x665a	; 0x665a <deselect>

	return count ? RES_ERROR : RES_OK;
    6eb6:	81 e0       	ldi	r24, 0x01	; 1
    6eb8:	98 85       	ldd	r25, Y+8	; 0x08
    6eba:	99 23       	and	r25, r25
    6ebc:	09 f4       	brne	.+2      	; 0x6ec0 <disk_write+0x142>
    6ebe:	80 e0       	ldi	r24, 0x00	; 0
}
    6ec0:	28 96       	adiw	r28, 0x08	; 8
    6ec2:	0f b6       	in	r0, 0x3f	; 63
    6ec4:	f8 94       	cli
    6ec6:	de bf       	out	0x3e, r29	; 62
    6ec8:	0f be       	out	0x3f, r0	; 63
    6eca:	cd bf       	out	0x3d, r28	; 61
    6ecc:	df 91       	pop	r29
    6ece:	cf 91       	pop	r28
    6ed0:	0f 91       	pop	r16
    6ed2:	08 95       	ret

00006ed4 <disk_ioctl>:
DRESULT disk_ioctl (
	BYTE drv,		/* Physical drive nmuber (0) */
	BYTE ctrl,		/* Control code */
	void *buff		/* Buffer to send/receive control data */
)
{
    6ed4:	0f 93       	push	r16
    6ed6:	1f 93       	push	r17
    6ed8:	cf 93       	push	r28
    6eda:	df 93       	push	r29
    6edc:	cd b7       	in	r28, 0x3d	; 61
    6ede:	de b7       	in	r29, 0x3e	; 62
    6ee0:	6a 97       	sbiw	r28, 0x1a	; 26
    6ee2:	0f b6       	in	r0, 0x3f	; 63
    6ee4:	f8 94       	cli
    6ee6:	de bf       	out	0x3e, r29	; 62
    6ee8:	0f be       	out	0x3f, r0	; 63
    6eea:	cd bf       	out	0x3d, r28	; 61
    6eec:	8f 8b       	std	Y+23, r24	; 0x17
    6eee:	68 8f       	std	Y+24, r22	; 0x18
    6ef0:	5a 8f       	std	Y+26, r21	; 0x1a
    6ef2:	49 8f       	std	Y+25, r20	; 0x19
	DRESULT res;
	BYTE n, csd[16], *ptr = buff;
    6ef4:	89 8d       	ldd	r24, Y+25	; 0x19
    6ef6:	9a 8d       	ldd	r25, Y+26	; 0x1a
    6ef8:	9c 83       	std	Y+4, r25	; 0x04
    6efa:	8b 83       	std	Y+3, r24	; 0x03
	WORD csize;


	if (drv) return RES_PARERR;
    6efc:	8f 89       	ldd	r24, Y+23	; 0x17
    6efe:	88 23       	and	r24, r24
    6f00:	11 f0       	breq	.+4      	; 0x6f06 <disk_ioctl+0x32>
    6f02:	84 e0       	ldi	r24, 0x04	; 4
    6f04:	03 c2       	rjmp	.+1030   	; 0x730c <disk_ioctl+0x438>

	res = RES_ERROR;
    6f06:	81 e0       	ldi	r24, 0x01	; 1
    6f08:	89 83       	std	Y+1, r24	; 0x01

	if (ctrl == CTRL_POWER) {
    6f0a:	88 8d       	ldd	r24, Y+24	; 0x18
    6f0c:	85 30       	cpi	r24, 0x05	; 5
    6f0e:	e9 f4       	brne	.+58     	; 0x6f4a <disk_ioctl+0x76>
		switch (ptr[0]) {
    6f10:	8b 81       	ldd	r24, Y+3	; 0x03
    6f12:	9c 81       	ldd	r25, Y+4	; 0x04
    6f14:	fc 01       	movw	r30, r24
    6f16:	80 81       	ld	r24, Z
    6f18:	88 2f       	mov	r24, r24
    6f1a:	90 e0       	ldi	r25, 0x00	; 0
    6f1c:	00 97       	sbiw	r24, 0x00	; 0
    6f1e:	19 f0       	breq	.+6      	; 0x6f26 <disk_ioctl+0x52>
    6f20:	01 97       	sbiw	r24, 0x01	; 1
    6f22:	29 f0       	breq	.+10     	; 0x6f2e <disk_ioctl+0x5a>
    6f24:	0f c0       	rjmp	.+30     	; 0x6f44 <disk_ioctl+0x70>
		case 0:		/* Sub control code (POWER_OFF) */
			power_off();		/* Power off */
    6f26:	0e 94 6c 33 	call	0x66d8	; 0x66d8 <power_off>
			res = RES_OK;
    6f2a:	19 82       	std	Y+1, r1	; 0x01
			break;
    6f2c:	ee c1       	rjmp	.+988    	; 0x730a <disk_ioctl+0x436>
		case 1:		/* Sub control code (POWER_GET) */
			ptr[1] = (BYTE)power_status();
    6f2e:	8b 81       	ldd	r24, Y+3	; 0x03
    6f30:	9c 81       	ldd	r25, Y+4	; 0x04
    6f32:	8c 01       	movw	r16, r24
    6f34:	0f 5f       	subi	r16, 0xFF	; 255
    6f36:	1f 4f       	sbci	r17, 0xFF	; 255
    6f38:	0e 94 5b 33 	call	0x66b6	; 0x66b6 <power_status>
    6f3c:	f8 01       	movw	r30, r16
    6f3e:	80 83       	st	Z, r24
			res = RES_OK;
    6f40:	19 82       	std	Y+1, r1	; 0x01
			break;
    6f42:	e3 c1       	rjmp	.+966    	; 0x730a <disk_ioctl+0x436>
		default :
			res = RES_PARERR;
    6f44:	84 e0       	ldi	r24, 0x04	; 4
    6f46:	89 83       	std	Y+1, r24	; 0x01
    6f48:	e0 c1       	rjmp	.+960    	; 0x730a <disk_ioctl+0x436>
		}
	}
	else {
		if (Stat & STA_NOINIT) return RES_NOTRDY;
    6f4a:	80 91 60 00 	lds	r24, 0x0060	; 0x800060 <__data_start>
    6f4e:	88 2f       	mov	r24, r24
    6f50:	90 e0       	ldi	r25, 0x00	; 0
    6f52:	81 70       	andi	r24, 0x01	; 1
    6f54:	99 27       	eor	r25, r25
    6f56:	89 2b       	or	r24, r25
    6f58:	11 f0       	breq	.+4      	; 0x6f5e <disk_ioctl+0x8a>
    6f5a:	83 e0       	ldi	r24, 0x03	; 3
    6f5c:	d7 c1       	rjmp	.+942    	; 0x730c <disk_ioctl+0x438>

		switch (ctrl) {
    6f5e:	88 8d       	ldd	r24, Y+24	; 0x18
    6f60:	88 2f       	mov	r24, r24
    6f62:	90 e0       	ldi	r25, 0x00	; 0
    6f64:	09 2e       	mov	r0, r25
    6f66:	00 0c       	add	r0, r0
    6f68:	aa 0b       	sbc	r26, r26
    6f6a:	bb 0b       	sbc	r27, r27
    6f6c:	40 e0       	ldi	r20, 0x00	; 0
    6f6e:	50 e0       	ldi	r21, 0x00	; 0
    6f70:	2e e0       	ldi	r18, 0x0E	; 14
    6f72:	30 e0       	ldi	r19, 0x00	; 0
    6f74:	84 1b       	sub	r24, r20
    6f76:	95 0b       	sbc	r25, r21
    6f78:	28 17       	cp	r18, r24
    6f7a:	39 07       	cpc	r19, r25
    6f7c:	08 f4       	brcc	.+2      	; 0x6f80 <disk_ioctl+0xac>
    6f7e:	b3 c1       	rjmp	.+870    	; 0x72e6 <disk_ioctl+0x412>
    6f80:	86 55       	subi	r24, 0x56	; 86
    6f82:	9f 4f       	sbci	r25, 0xFF	; 255
    6f84:	fc 01       	movw	r30, r24
    6f86:	0c 94 9f 3e 	jmp	0x7d3e	; 0x7d3e <__tablejump2__>
		case CTRL_SYNC :		/* Make sure that no pending write process. Do not remove this or written sector might not left updated. */
			if (select()) {
    6f8a:	0e 94 40 33 	call	0x6680	; 0x6680 <select>
    6f8e:	89 2b       	or	r24, r25
    6f90:	09 f4       	brne	.+2      	; 0x6f94 <disk_ioctl+0xc0>
    6f92:	ac c1       	rjmp	.+856    	; 0x72ec <disk_ioctl+0x418>
				deselect();
    6f94:	0e 94 2d 33 	call	0x665a	; 0x665a <deselect>
				res = RES_OK;
    6f98:	19 82       	std	Y+1, r1	; 0x01
			}
			break;
    6f9a:	a8 c1       	rjmp	.+848    	; 0x72ec <disk_ioctl+0x418>

		case GET_SECTOR_COUNT :	/* Get number of sectors on the disk (DWORD) */
			if ((send_cmd(CMD9, 0) == 0) && rcvr_datablock(csd, 16)) {
    6f9c:	40 e0       	ldi	r20, 0x00	; 0
    6f9e:	50 e0       	ldi	r21, 0x00	; 0
    6fa0:	ba 01       	movw	r22, r20
    6fa2:	89 e0       	ldi	r24, 0x09	; 9
    6fa4:	0e 94 84 34 	call	0x6908	; 0x6908 <send_cmd>
    6fa8:	88 23       	and	r24, r24
    6faa:	09 f0       	breq	.+2      	; 0x6fae <disk_ioctl+0xda>
    6fac:	a1 c1       	rjmp	.+834    	; 0x72f0 <disk_ioctl+0x41c>
    6fae:	ce 01       	movw	r24, r28
    6fb0:	07 96       	adiw	r24, 0x07	; 7
    6fb2:	60 e1       	ldi	r22, 0x10	; 16
    6fb4:	70 e0       	ldi	r23, 0x00	; 0
    6fb6:	0e 94 74 33 	call	0x66e8	; 0x66e8 <rcvr_datablock>
    6fba:	89 2b       	or	r24, r25
    6fbc:	09 f4       	brne	.+2      	; 0x6fc0 <disk_ioctl+0xec>
    6fbe:	98 c1       	rjmp	.+816    	; 0x72f0 <disk_ioctl+0x41c>
				if ((csd[0] >> 6) == 1) {	/* SDC ver 2.00 */
    6fc0:	8f 81       	ldd	r24, Y+7	; 0x07
    6fc2:	82 95       	swap	r24
    6fc4:	86 95       	lsr	r24
    6fc6:	86 95       	lsr	r24
    6fc8:	83 70       	andi	r24, 0x03	; 3
    6fca:	81 30       	cpi	r24, 0x01	; 1
    6fcc:	19 f5       	brne	.+70     	; 0x7014 <disk_ioctl+0x140>
					csize = csd[9] + ((WORD)csd[8] << 8) + 1;
    6fce:	88 89       	ldd	r24, Y+16	; 0x10
    6fd0:	28 2f       	mov	r18, r24
    6fd2:	30 e0       	ldi	r19, 0x00	; 0
    6fd4:	8f 85       	ldd	r24, Y+15	; 0x0f
    6fd6:	88 2f       	mov	r24, r24
    6fd8:	90 e0       	ldi	r25, 0x00	; 0
    6fda:	98 2f       	mov	r25, r24
    6fdc:	88 27       	eor	r24, r24
    6fde:	82 0f       	add	r24, r18
    6fe0:	93 1f       	adc	r25, r19
    6fe2:	01 96       	adiw	r24, 0x01	; 1
    6fe4:	9e 83       	std	Y+6, r25	; 0x06
    6fe6:	8d 83       	std	Y+5, r24	; 0x05
					*(DWORD*)buff = (DWORD)csize << 10;
    6fe8:	8d 81       	ldd	r24, Y+5	; 0x05
    6fea:	9e 81       	ldd	r25, Y+6	; 0x06
    6fec:	cc 01       	movw	r24, r24
    6fee:	a0 e0       	ldi	r26, 0x00	; 0
    6ff0:	b0 e0       	ldi	r27, 0x00	; 0
    6ff2:	07 2e       	mov	r0, r23
    6ff4:	7a e0       	ldi	r23, 0x0A	; 10
    6ff6:	88 0f       	add	r24, r24
    6ff8:	99 1f       	adc	r25, r25
    6ffa:	aa 1f       	adc	r26, r26
    6ffc:	bb 1f       	adc	r27, r27
    6ffe:	7a 95       	dec	r23
    7000:	d1 f7       	brne	.-12     	; 0x6ff6 <disk_ioctl+0x122>
    7002:	70 2d       	mov	r23, r0
    7004:	29 8d       	ldd	r18, Y+25	; 0x19
    7006:	3a 8d       	ldd	r19, Y+26	; 0x1a
    7008:	f9 01       	movw	r30, r18
    700a:	80 83       	st	Z, r24
    700c:	91 83       	std	Z+1, r25	; 0x01
    700e:	a2 83       	std	Z+2, r26	; 0x02
    7010:	b3 83       	std	Z+3, r27	; 0x03
    7012:	44 c0       	rjmp	.+136    	; 0x709c <disk_ioctl+0x1c8>
				} else {					/* SDC ver 1.XX or MMC*/
					n = (csd[5] & 15) + ((csd[10] & 128) >> 7) + ((csd[9] & 3) << 1) + 2;
    7014:	8c 85       	ldd	r24, Y+12	; 0x0c
    7016:	98 2f       	mov	r25, r24
    7018:	9f 70       	andi	r25, 0x0F	; 15
    701a:	89 89       	ldd	r24, Y+17	; 0x11
    701c:	88 1f       	adc	r24, r24
    701e:	88 27       	eor	r24, r24
    7020:	88 1f       	adc	r24, r24
    7022:	98 0f       	add	r25, r24
    7024:	88 89       	ldd	r24, Y+16	; 0x10
    7026:	83 70       	andi	r24, 0x03	; 3
    7028:	88 0f       	add	r24, r24
    702a:	89 0f       	add	r24, r25
    702c:	8e 5f       	subi	r24, 0xFE	; 254
    702e:	8a 83       	std	Y+2, r24	; 0x02
					csize = (csd[8] >> 6) + ((WORD)csd[7] << 2) + ((WORD)(csd[6] & 3) << 10) + 1;
    7030:	8f 85       	ldd	r24, Y+15	; 0x0f
    7032:	82 95       	swap	r24
    7034:	86 95       	lsr	r24
    7036:	86 95       	lsr	r24
    7038:	83 70       	andi	r24, 0x03	; 3
    703a:	28 2f       	mov	r18, r24
    703c:	30 e0       	ldi	r19, 0x00	; 0
    703e:	8e 85       	ldd	r24, Y+14	; 0x0e
    7040:	88 2f       	mov	r24, r24
    7042:	90 e0       	ldi	r25, 0x00	; 0
    7044:	88 0f       	add	r24, r24
    7046:	99 1f       	adc	r25, r25
    7048:	88 0f       	add	r24, r24
    704a:	99 1f       	adc	r25, r25
    704c:	28 0f       	add	r18, r24
    704e:	39 1f       	adc	r19, r25
    7050:	8d 85       	ldd	r24, Y+13	; 0x0d
    7052:	88 2f       	mov	r24, r24
    7054:	90 e0       	ldi	r25, 0x00	; 0
    7056:	83 70       	andi	r24, 0x03	; 3
    7058:	99 27       	eor	r25, r25
    705a:	98 2f       	mov	r25, r24
    705c:	88 27       	eor	r24, r24
    705e:	99 0f       	add	r25, r25
    7060:	99 0f       	add	r25, r25
    7062:	82 0f       	add	r24, r18
    7064:	93 1f       	adc	r25, r19
    7066:	01 96       	adiw	r24, 0x01	; 1
    7068:	9e 83       	std	Y+6, r25	; 0x06
    706a:	8d 83       	std	Y+5, r24	; 0x05
					*(DWORD*)buff = (DWORD)csize << (n - 9);
    706c:	8d 81       	ldd	r24, Y+5	; 0x05
    706e:	9e 81       	ldd	r25, Y+6	; 0x06
    7070:	cc 01       	movw	r24, r24
    7072:	a0 e0       	ldi	r26, 0x00	; 0
    7074:	b0 e0       	ldi	r27, 0x00	; 0
    7076:	2a 81       	ldd	r18, Y+2	; 0x02
    7078:	22 2f       	mov	r18, r18
    707a:	30 e0       	ldi	r19, 0x00	; 0
    707c:	29 50       	subi	r18, 0x09	; 9
    707e:	31 09       	sbc	r19, r1
    7080:	04 c0       	rjmp	.+8      	; 0x708a <disk_ioctl+0x1b6>
    7082:	88 0f       	add	r24, r24
    7084:	99 1f       	adc	r25, r25
    7086:	aa 1f       	adc	r26, r26
    7088:	bb 1f       	adc	r27, r27
    708a:	2a 95       	dec	r18
    708c:	d2 f7       	brpl	.-12     	; 0x7082 <disk_ioctl+0x1ae>
    708e:	29 8d       	ldd	r18, Y+25	; 0x19
    7090:	3a 8d       	ldd	r19, Y+26	; 0x1a
    7092:	f9 01       	movw	r30, r18
    7094:	80 83       	st	Z, r24
    7096:	91 83       	std	Z+1, r25	; 0x01
    7098:	a2 83       	std	Z+2, r26	; 0x02
    709a:	b3 83       	std	Z+3, r27	; 0x03
				}
				res = RES_OK;
    709c:	19 82       	std	Y+1, r1	; 0x01
			}
			break;
    709e:	28 c1       	rjmp	.+592    	; 0x72f0 <disk_ioctl+0x41c>

		case GET_SECTOR_SIZE :	/* Get R/W sector size (WORD) */
			*(WORD*)buff = 512;
    70a0:	89 8d       	ldd	r24, Y+25	; 0x19
    70a2:	9a 8d       	ldd	r25, Y+26	; 0x1a
    70a4:	20 e0       	ldi	r18, 0x00	; 0
    70a6:	32 e0       	ldi	r19, 0x02	; 2
    70a8:	fc 01       	movw	r30, r24
    70aa:	31 83       	std	Z+1, r19	; 0x01
    70ac:	20 83       	st	Z, r18
			res = RES_OK;
    70ae:	19 82       	std	Y+1, r1	; 0x01
			break;
    70b0:	2a c1       	rjmp	.+596    	; 0x7306 <disk_ioctl+0x432>

		case GET_BLOCK_SIZE :	/* Get erase block size in unit of sector (DWORD) */
			if (CardType & CT_SD2) {	/* SDv2? */
    70b2:	80 91 9b 01 	lds	r24, 0x019B	; 0x80019b <CardType>
    70b6:	88 2f       	mov	r24, r24
    70b8:	90 e0       	ldi	r25, 0x00	; 0
    70ba:	84 70       	andi	r24, 0x04	; 4
    70bc:	99 27       	eor	r25, r25
    70be:	89 2b       	or	r24, r25
    70c0:	c1 f1       	breq	.+112    	; 0x7132 <disk_ioctl+0x25e>
				if (send_cmd(ACMD13, 0) == 0) {	/* Read SD status */
    70c2:	40 e0       	ldi	r20, 0x00	; 0
    70c4:	50 e0       	ldi	r21, 0x00	; 0
    70c6:	ba 01       	movw	r22, r20
    70c8:	8d e8       	ldi	r24, 0x8D	; 141
    70ca:	0e 94 84 34 	call	0x6908	; 0x6908 <send_cmd>
    70ce:	88 23       	and	r24, r24
    70d0:	09 f0       	breq	.+2      	; 0x70d4 <disk_ioctl+0x200>
    70d2:	10 c1       	rjmp	.+544    	; 0x72f4 <disk_ioctl+0x420>
					rcvr_spi();
    70d4:	0e 94 fe 32 	call	0x65fc	; 0x65fc <rcvr_spi>
					if (rcvr_datablock(csd, 16)) {				/* Read partial block */
    70d8:	ce 01       	movw	r24, r28
    70da:	07 96       	adiw	r24, 0x07	; 7
    70dc:	60 e1       	ldi	r22, 0x10	; 16
    70de:	70 e0       	ldi	r23, 0x00	; 0
    70e0:	0e 94 74 33 	call	0x66e8	; 0x66e8 <rcvr_datablock>
    70e4:	89 2b       	or	r24, r25
    70e6:	09 f4       	brne	.+2      	; 0x70ea <disk_ioctl+0x216>
    70e8:	05 c1       	rjmp	.+522    	; 0x72f4 <disk_ioctl+0x420>
						for (n = 64 - 16; n; n--) rcvr_spi();	/* Purge trailing data */
    70ea:	80 e3       	ldi	r24, 0x30	; 48
    70ec:	8a 83       	std	Y+2, r24	; 0x02
    70ee:	05 c0       	rjmp	.+10     	; 0x70fa <disk_ioctl+0x226>
    70f0:	0e 94 fe 32 	call	0x65fc	; 0x65fc <rcvr_spi>
    70f4:	8a 81       	ldd	r24, Y+2	; 0x02
    70f6:	81 50       	subi	r24, 0x01	; 1
    70f8:	8a 83       	std	Y+2, r24	; 0x02
    70fa:	8a 81       	ldd	r24, Y+2	; 0x02
    70fc:	88 23       	and	r24, r24
    70fe:	c1 f7       	brne	.-16     	; 0x70f0 <disk_ioctl+0x21c>
						*(DWORD*)buff = 16UL << (csd[10] >> 4);
    7100:	89 89       	ldd	r24, Y+17	; 0x11
    7102:	82 95       	swap	r24
    7104:	8f 70       	andi	r24, 0x0F	; 15
    7106:	28 2f       	mov	r18, r24
    7108:	30 e0       	ldi	r19, 0x00	; 0
    710a:	80 e1       	ldi	r24, 0x10	; 16
    710c:	90 e0       	ldi	r25, 0x00	; 0
    710e:	a0 e0       	ldi	r26, 0x00	; 0
    7110:	b0 e0       	ldi	r27, 0x00	; 0
    7112:	04 c0       	rjmp	.+8      	; 0x711c <disk_ioctl+0x248>
    7114:	88 0f       	add	r24, r24
    7116:	99 1f       	adc	r25, r25
    7118:	aa 1f       	adc	r26, r26
    711a:	bb 1f       	adc	r27, r27
    711c:	2a 95       	dec	r18
    711e:	d2 f7       	brpl	.-12     	; 0x7114 <disk_ioctl+0x240>
    7120:	29 8d       	ldd	r18, Y+25	; 0x19
    7122:	3a 8d       	ldd	r19, Y+26	; 0x1a
    7124:	f9 01       	movw	r30, r18
    7126:	80 83       	st	Z, r24
    7128:	91 83       	std	Z+1, r25	; 0x01
    712a:	a2 83       	std	Z+2, r26	; 0x02
    712c:	b3 83       	std	Z+3, r27	; 0x03
						res = RES_OK;
    712e:	19 82       	std	Y+1, r1	; 0x01
						*(DWORD*)buff = ((WORD)((csd[10] & 124) >> 2) + 1) * (((csd[11] & 3) << 3) + ((csd[11] & 224) >> 5) + 1);
					}
					res = RES_OK;
				}
			}
			break;
    7130:	e1 c0       	rjmp	.+450    	; 0x72f4 <disk_ioctl+0x420>
						*(DWORD*)buff = 16UL << (csd[10] >> 4);
						res = RES_OK;
					}
				}
			} else {					/* SDv1 or MMCv3 */
				if ((send_cmd(CMD9, 0) == 0) && rcvr_datablock(csd, 16)) {	/* Read CSD */
    7132:	40 e0       	ldi	r20, 0x00	; 0
    7134:	50 e0       	ldi	r21, 0x00	; 0
    7136:	ba 01       	movw	r22, r20
    7138:	89 e0       	ldi	r24, 0x09	; 9
    713a:	0e 94 84 34 	call	0x6908	; 0x6908 <send_cmd>
    713e:	88 23       	and	r24, r24
    7140:	09 f0       	breq	.+2      	; 0x7144 <disk_ioctl+0x270>
    7142:	d8 c0       	rjmp	.+432    	; 0x72f4 <disk_ioctl+0x420>
    7144:	ce 01       	movw	r24, r28
    7146:	07 96       	adiw	r24, 0x07	; 7
    7148:	60 e1       	ldi	r22, 0x10	; 16
    714a:	70 e0       	ldi	r23, 0x00	; 0
    714c:	0e 94 74 33 	call	0x66e8	; 0x66e8 <rcvr_datablock>
    7150:	89 2b       	or	r24, r25
    7152:	09 f4       	brne	.+2      	; 0x7156 <disk_ioctl+0x282>
    7154:	cf c0       	rjmp	.+414    	; 0x72f4 <disk_ioctl+0x420>
					if (CardType & CT_SD1) {	/* SDv1 */
    7156:	80 91 9b 01 	lds	r24, 0x019B	; 0x80019b <CardType>
    715a:	88 2f       	mov	r24, r24
    715c:	90 e0       	ldi	r25, 0x00	; 0
    715e:	82 70       	andi	r24, 0x02	; 2
    7160:	99 27       	eor	r25, r25
    7162:	89 2b       	or	r24, r25
    7164:	51 f1       	breq	.+84     	; 0x71ba <disk_ioctl+0x2e6>
						*(DWORD*)buff = (((csd[10] & 63) << 1) + ((WORD)(csd[11] & 128) >> 7) + 1) << ((csd[13] >> 6) - 1);
    7166:	89 89       	ldd	r24, Y+17	; 0x11
    7168:	88 2f       	mov	r24, r24
    716a:	90 e0       	ldi	r25, 0x00	; 0
    716c:	8f 73       	andi	r24, 0x3F	; 63
    716e:	99 27       	eor	r25, r25
    7170:	88 0f       	add	r24, r24
    7172:	99 1f       	adc	r25, r25
    7174:	9c 01       	movw	r18, r24
    7176:	8a 89       	ldd	r24, Y+18	; 0x12
    7178:	88 1f       	adc	r24, r24
    717a:	88 27       	eor	r24, r24
    717c:	88 1f       	adc	r24, r24
    717e:	88 2f       	mov	r24, r24
    7180:	90 e0       	ldi	r25, 0x00	; 0
    7182:	82 0f       	add	r24, r18
    7184:	93 1f       	adc	r25, r19
    7186:	01 96       	adiw	r24, 0x01	; 1
    7188:	2c 89       	ldd	r18, Y+20	; 0x14
    718a:	22 95       	swap	r18
    718c:	26 95       	lsr	r18
    718e:	26 95       	lsr	r18
    7190:	23 70       	andi	r18, 0x03	; 3
    7192:	22 2f       	mov	r18, r18
    7194:	30 e0       	ldi	r19, 0x00	; 0
    7196:	21 50       	subi	r18, 0x01	; 1
    7198:	31 09       	sbc	r19, r1
    719a:	02 c0       	rjmp	.+4      	; 0x71a0 <disk_ioctl+0x2cc>
    719c:	88 0f       	add	r24, r24
    719e:	99 1f       	adc	r25, r25
    71a0:	2a 95       	dec	r18
    71a2:	e2 f7       	brpl	.-8      	; 0x719c <disk_ioctl+0x2c8>
    71a4:	cc 01       	movw	r24, r24
    71a6:	a0 e0       	ldi	r26, 0x00	; 0
    71a8:	b0 e0       	ldi	r27, 0x00	; 0
    71aa:	29 8d       	ldd	r18, Y+25	; 0x19
    71ac:	3a 8d       	ldd	r19, Y+26	; 0x1a
    71ae:	f9 01       	movw	r30, r18
    71b0:	80 83       	st	Z, r24
    71b2:	91 83       	std	Z+1, r25	; 0x01
    71b4:	a2 83       	std	Z+2, r26	; 0x02
    71b6:	b3 83       	std	Z+3, r27	; 0x03
    71b8:	33 c0       	rjmp	.+102    	; 0x7220 <disk_ioctl+0x34c>
					} else {					/* MMCv3 */
						*(DWORD*)buff = ((WORD)((csd[10] & 124) >> 2) + 1) * (((csd[11] & 3) << 3) + ((csd[11] & 224) >> 5) + 1);
    71ba:	89 89       	ldd	r24, Y+17	; 0x11
    71bc:	88 2f       	mov	r24, r24
    71be:	90 e0       	ldi	r25, 0x00	; 0
    71c0:	8c 77       	andi	r24, 0x7C	; 124
    71c2:	99 27       	eor	r25, r25
    71c4:	95 95       	asr	r25
    71c6:	87 95       	ror	r24
    71c8:	95 95       	asr	r25
    71ca:	87 95       	ror	r24
    71cc:	9c 01       	movw	r18, r24
    71ce:	2f 5f       	subi	r18, 0xFF	; 255
    71d0:	3f 4f       	sbci	r19, 0xFF	; 255
    71d2:	8a 89       	ldd	r24, Y+18	; 0x12
    71d4:	88 2f       	mov	r24, r24
    71d6:	90 e0       	ldi	r25, 0x00	; 0
    71d8:	83 70       	andi	r24, 0x03	; 3
    71da:	99 27       	eor	r25, r25
    71dc:	ac 01       	movw	r20, r24
    71de:	44 0f       	add	r20, r20
    71e0:	55 1f       	adc	r21, r21
    71e2:	44 0f       	add	r20, r20
    71e4:	55 1f       	adc	r21, r21
    71e6:	44 0f       	add	r20, r20
    71e8:	55 1f       	adc	r21, r21
    71ea:	8a 89       	ldd	r24, Y+18	; 0x12
    71ec:	82 95       	swap	r24
    71ee:	86 95       	lsr	r24
    71f0:	87 70       	andi	r24, 0x07	; 7
    71f2:	88 2f       	mov	r24, r24
    71f4:	90 e0       	ldi	r25, 0x00	; 0
    71f6:	84 0f       	add	r24, r20
    71f8:	95 1f       	adc	r25, r21
    71fa:	01 96       	adiw	r24, 0x01	; 1
    71fc:	ac 01       	movw	r20, r24
    71fe:	24 9f       	mul	r18, r20
    7200:	c0 01       	movw	r24, r0
    7202:	25 9f       	mul	r18, r21
    7204:	90 0d       	add	r25, r0
    7206:	34 9f       	mul	r19, r20
    7208:	90 0d       	add	r25, r0
    720a:	11 24       	eor	r1, r1
    720c:	cc 01       	movw	r24, r24
    720e:	a0 e0       	ldi	r26, 0x00	; 0
    7210:	b0 e0       	ldi	r27, 0x00	; 0
    7212:	29 8d       	ldd	r18, Y+25	; 0x19
    7214:	3a 8d       	ldd	r19, Y+26	; 0x1a
    7216:	f9 01       	movw	r30, r18
    7218:	80 83       	st	Z, r24
    721a:	91 83       	std	Z+1, r25	; 0x01
    721c:	a2 83       	std	Z+2, r26	; 0x02
    721e:	b3 83       	std	Z+3, r27	; 0x03
					}
					res = RES_OK;
    7220:	19 82       	std	Y+1, r1	; 0x01
				}
			}
			break;
    7222:	68 c0       	rjmp	.+208    	; 0x72f4 <disk_ioctl+0x420>

		case MMC_GET_TYPE :		/* Get card type flags (1 byte) */
			*ptr = CardType;
    7224:	20 91 9b 01 	lds	r18, 0x019B	; 0x80019b <CardType>
    7228:	8b 81       	ldd	r24, Y+3	; 0x03
    722a:	9c 81       	ldd	r25, Y+4	; 0x04
    722c:	fc 01       	movw	r30, r24
    722e:	20 83       	st	Z, r18
			res = RES_OK;
    7230:	19 82       	std	Y+1, r1	; 0x01
			break;
    7232:	69 c0       	rjmp	.+210    	; 0x7306 <disk_ioctl+0x432>

		case MMC_GET_CSD :		/* Receive CSD as a data block (16 bytes) */
			if (send_cmd(CMD9, 0) == 0		/* READ_CSD */
    7234:	40 e0       	ldi	r20, 0x00	; 0
    7236:	50 e0       	ldi	r21, 0x00	; 0
    7238:	ba 01       	movw	r22, r20
    723a:	89 e0       	ldi	r24, 0x09	; 9
    723c:	0e 94 84 34 	call	0x6908	; 0x6908 <send_cmd>
    7240:	88 23       	and	r24, r24
    7242:	09 f0       	breq	.+2      	; 0x7246 <disk_ioctl+0x372>
    7244:	59 c0       	rjmp	.+178    	; 0x72f8 <disk_ioctl+0x424>
				&& rcvr_datablock(ptr, 16))
    7246:	8b 81       	ldd	r24, Y+3	; 0x03
    7248:	9c 81       	ldd	r25, Y+4	; 0x04
    724a:	60 e1       	ldi	r22, 0x10	; 16
    724c:	70 e0       	ldi	r23, 0x00	; 0
    724e:	0e 94 74 33 	call	0x66e8	; 0x66e8 <rcvr_datablock>
    7252:	89 2b       	or	r24, r25
    7254:	09 f4       	brne	.+2      	; 0x7258 <disk_ioctl+0x384>
    7256:	50 c0       	rjmp	.+160    	; 0x72f8 <disk_ioctl+0x424>
				res = RES_OK;
    7258:	19 82       	std	Y+1, r1	; 0x01
			break;
    725a:	4e c0       	rjmp	.+156    	; 0x72f8 <disk_ioctl+0x424>

		case MMC_GET_CID :		/* Receive CID as a data block (16 bytes) */
			if (send_cmd(CMD10, 0) == 0		/* READ_CID */
    725c:	40 e0       	ldi	r20, 0x00	; 0
    725e:	50 e0       	ldi	r21, 0x00	; 0
    7260:	ba 01       	movw	r22, r20
    7262:	8a e0       	ldi	r24, 0x0A	; 10
    7264:	0e 94 84 34 	call	0x6908	; 0x6908 <send_cmd>
    7268:	88 23       	and	r24, r24
    726a:	09 f0       	breq	.+2      	; 0x726e <disk_ioctl+0x39a>
    726c:	47 c0       	rjmp	.+142    	; 0x72fc <disk_ioctl+0x428>
				&& rcvr_datablock(ptr, 16))
    726e:	8b 81       	ldd	r24, Y+3	; 0x03
    7270:	9c 81       	ldd	r25, Y+4	; 0x04
    7272:	60 e1       	ldi	r22, 0x10	; 16
    7274:	70 e0       	ldi	r23, 0x00	; 0
    7276:	0e 94 74 33 	call	0x66e8	; 0x66e8 <rcvr_datablock>
    727a:	89 2b       	or	r24, r25
    727c:	09 f4       	brne	.+2      	; 0x7280 <disk_ioctl+0x3ac>
    727e:	3e c0       	rjmp	.+124    	; 0x72fc <disk_ioctl+0x428>
				res = RES_OK;
    7280:	19 82       	std	Y+1, r1	; 0x01
			break;
    7282:	3c c0       	rjmp	.+120    	; 0x72fc <disk_ioctl+0x428>

		case MMC_GET_OCR :		/* Receive OCR as an R3 resp (4 bytes) */
			if (send_cmd(CMD58, 0) == 0) {	/* READ_OCR */
    7284:	40 e0       	ldi	r20, 0x00	; 0
    7286:	50 e0       	ldi	r21, 0x00	; 0
    7288:	ba 01       	movw	r22, r20
    728a:	8a e3       	ldi	r24, 0x3A	; 58
    728c:	0e 94 84 34 	call	0x6908	; 0x6908 <send_cmd>
    7290:	88 23       	and	r24, r24
    7292:	b1 f5       	brne	.+108    	; 0x7300 <disk_ioctl+0x42c>
				for (n = 4; n; n--) *ptr++ = rcvr_spi();
    7294:	84 e0       	ldi	r24, 0x04	; 4
    7296:	8a 83       	std	Y+2, r24	; 0x02
    7298:	0d c0       	rjmp	.+26     	; 0x72b4 <disk_ioctl+0x3e0>
    729a:	0b 81       	ldd	r16, Y+3	; 0x03
    729c:	1c 81       	ldd	r17, Y+4	; 0x04
    729e:	c8 01       	movw	r24, r16
    72a0:	01 96       	adiw	r24, 0x01	; 1
    72a2:	9c 83       	std	Y+4, r25	; 0x04
    72a4:	8b 83       	std	Y+3, r24	; 0x03
    72a6:	0e 94 fe 32 	call	0x65fc	; 0x65fc <rcvr_spi>
    72aa:	f8 01       	movw	r30, r16
    72ac:	80 83       	st	Z, r24
    72ae:	8a 81       	ldd	r24, Y+2	; 0x02
    72b0:	81 50       	subi	r24, 0x01	; 1
    72b2:	8a 83       	std	Y+2, r24	; 0x02
    72b4:	8a 81       	ldd	r24, Y+2	; 0x02
    72b6:	88 23       	and	r24, r24
    72b8:	81 f7       	brne	.-32     	; 0x729a <disk_ioctl+0x3c6>
				res = RES_OK;
    72ba:	19 82       	std	Y+1, r1	; 0x01
			}
			break;
    72bc:	21 c0       	rjmp	.+66     	; 0x7300 <disk_ioctl+0x42c>

		case MMC_GET_SDSTAT :	/* Receive SD statsu as a data block (64 bytes) */
			if (send_cmd(ACMD13, 0) == 0) {	/* SD_STATUS */
    72be:	40 e0       	ldi	r20, 0x00	; 0
    72c0:	50 e0       	ldi	r21, 0x00	; 0
    72c2:	ba 01       	movw	r22, r20
    72c4:	8d e8       	ldi	r24, 0x8D	; 141
    72c6:	0e 94 84 34 	call	0x6908	; 0x6908 <send_cmd>
    72ca:	88 23       	and	r24, r24
    72cc:	d9 f4       	brne	.+54     	; 0x7304 <disk_ioctl+0x430>
				rcvr_spi();
    72ce:	0e 94 fe 32 	call	0x65fc	; 0x65fc <rcvr_spi>
				if (rcvr_datablock(ptr, 64))
    72d2:	8b 81       	ldd	r24, Y+3	; 0x03
    72d4:	9c 81       	ldd	r25, Y+4	; 0x04
    72d6:	60 e4       	ldi	r22, 0x40	; 64
    72d8:	70 e0       	ldi	r23, 0x00	; 0
    72da:	0e 94 74 33 	call	0x66e8	; 0x66e8 <rcvr_datablock>
    72de:	89 2b       	or	r24, r25
    72e0:	89 f0       	breq	.+34     	; 0x7304 <disk_ioctl+0x430>
					res = RES_OK;
    72e2:	19 82       	std	Y+1, r1	; 0x01
			}
			break;
    72e4:	0f c0       	rjmp	.+30     	; 0x7304 <disk_ioctl+0x430>

		default:
			res = RES_PARERR;
    72e6:	84 e0       	ldi	r24, 0x04	; 4
    72e8:	89 83       	std	Y+1, r24	; 0x01
    72ea:	0d c0       	rjmp	.+26     	; 0x7306 <disk_ioctl+0x432>
		case CTRL_SYNC :		/* Make sure that no pending write process. Do not remove this or written sector might not left updated. */
			if (select()) {
				deselect();
				res = RES_OK;
			}
			break;
    72ec:	00 00       	nop
    72ee:	0b c0       	rjmp	.+22     	; 0x7306 <disk_ioctl+0x432>
					csize = (csd[8] >> 6) + ((WORD)csd[7] << 2) + ((WORD)(csd[6] & 3) << 10) + 1;
					*(DWORD*)buff = (DWORD)csize << (n - 9);
				}
				res = RES_OK;
			}
			break;
    72f0:	00 00       	nop
    72f2:	09 c0       	rjmp	.+18     	; 0x7306 <disk_ioctl+0x432>
						*(DWORD*)buff = ((WORD)((csd[10] & 124) >> 2) + 1) * (((csd[11] & 3) << 3) + ((csd[11] & 224) >> 5) + 1);
					}
					res = RES_OK;
				}
			}
			break;
    72f4:	00 00       	nop
    72f6:	07 c0       	rjmp	.+14     	; 0x7306 <disk_ioctl+0x432>

		case MMC_GET_CSD :		/* Receive CSD as a data block (16 bytes) */
			if (send_cmd(CMD9, 0) == 0		/* READ_CSD */
				&& rcvr_datablock(ptr, 16))
				res = RES_OK;
			break;
    72f8:	00 00       	nop
    72fa:	05 c0       	rjmp	.+10     	; 0x7306 <disk_ioctl+0x432>

		case MMC_GET_CID :		/* Receive CID as a data block (16 bytes) */
			if (send_cmd(CMD10, 0) == 0		/* READ_CID */
				&& rcvr_datablock(ptr, 16))
				res = RES_OK;
			break;
    72fc:	00 00       	nop
    72fe:	03 c0       	rjmp	.+6      	; 0x7306 <disk_ioctl+0x432>
		case MMC_GET_OCR :		/* Receive OCR as an R3 resp (4 bytes) */
			if (send_cmd(CMD58, 0) == 0) {	/* READ_OCR */
				for (n = 4; n; n--) *ptr++ = rcvr_spi();
				res = RES_OK;
			}
			break;
    7300:	00 00       	nop
    7302:	01 c0       	rjmp	.+2      	; 0x7306 <disk_ioctl+0x432>
			if (send_cmd(ACMD13, 0) == 0) {	/* SD_STATUS */
				rcvr_spi();
				if (rcvr_datablock(ptr, 64))
					res = RES_OK;
			}
			break;
    7304:	00 00       	nop

		default:
			res = RES_PARERR;
		}

		deselect();
    7306:	0e 94 2d 33 	call	0x665a	; 0x665a <deselect>
	}

	return res;
    730a:	89 81       	ldd	r24, Y+1	; 0x01
}
    730c:	6a 96       	adiw	r28, 0x1a	; 26
    730e:	0f b6       	in	r0, 0x3f	; 63
    7310:	f8 94       	cli
    7312:	de bf       	out	0x3e, r29	; 62
    7314:	0f be       	out	0x3f, r0	; 63
    7316:	cd bf       	out	0x3d, r28	; 61
    7318:	df 91       	pop	r29
    731a:	cf 91       	pop	r28
    731c:	1f 91       	pop	r17
    731e:	0f 91       	pop	r16
    7320:	08 95       	ret

00007322 <disk_timerproc>:
/* Device Timer Interrupt Procedure                                      */
/*-----------------------------------------------------------------------*/
/* This function must be called in period of 10ms                        */

void disk_timerproc (void)
{
    7322:	cf 93       	push	r28
    7324:	df 93       	push	r29
    7326:	00 d0       	rcall	.+0      	; 0x7328 <disk_timerproc+0x6>
    7328:	cd b7       	in	r28, 0x3d	; 61
    732a:	de b7       	in	r29, 0x3e	; 62
	BYTE n, s;


	n = Timer1;						/* 100Hz decrement timer */
    732c:	80 91 99 01 	lds	r24, 0x0199	; 0x800199 <Timer1>
    7330:	89 83       	std	Y+1, r24	; 0x01
	if (n) Timer1 = --n;
    7332:	89 81       	ldd	r24, Y+1	; 0x01
    7334:	88 23       	and	r24, r24
    7336:	31 f0       	breq	.+12     	; 0x7344 <disk_timerproc+0x22>
    7338:	89 81       	ldd	r24, Y+1	; 0x01
    733a:	81 50       	subi	r24, 0x01	; 1
    733c:	89 83       	std	Y+1, r24	; 0x01
    733e:	89 81       	ldd	r24, Y+1	; 0x01
    7340:	80 93 99 01 	sts	0x0199, r24	; 0x800199 <Timer1>
	n = Timer2;
    7344:	80 91 9a 01 	lds	r24, 0x019A	; 0x80019a <Timer2>
    7348:	89 83       	std	Y+1, r24	; 0x01
	if (n) Timer2 = --n;
    734a:	89 81       	ldd	r24, Y+1	; 0x01
    734c:	88 23       	and	r24, r24
    734e:	31 f0       	breq	.+12     	; 0x735c <disk_timerproc+0x3a>
    7350:	89 81       	ldd	r24, Y+1	; 0x01
    7352:	81 50       	subi	r24, 0x01	; 1
    7354:	89 83       	std	Y+1, r24	; 0x01
    7356:	89 81       	ldd	r24, Y+1	; 0x01
    7358:	80 93 9a 01 	sts	0x019A, r24	; 0x80019a <Timer2>

	s = Stat;
    735c:	80 91 60 00 	lds	r24, 0x0060	; 0x800060 <__data_start>
    7360:	8a 83       	std	Y+2, r24	; 0x02

	//if ( (SOCKWP & SOCKPORT ))				/* Write protected */
	//	s |= STA_PROTECT;
	//else					/* Write enabled */
		s &= ~STA_PROTECT;
    7362:	8a 81       	ldd	r24, Y+2	; 0x02
    7364:	8b 7f       	andi	r24, 0xFB	; 251
    7366:	8a 83       	std	Y+2, r24	; 0x02
	//if ( (SOCKINS & SOCKPORT))			/* Card inserted */
	//	s |= (STA_NODISK | STA_NOINIT);
	//else					/* Socket empty */ 
		s &= ~STA_NODISK;
    7368:	8a 81       	ldd	r24, Y+2	; 0x02
    736a:	8d 7f       	andi	r24, 0xFD	; 253
    736c:	8a 83       	std	Y+2, r24	; 0x02
	Stat = s;
    736e:	8a 81       	ldd	r24, Y+2	; 0x02
    7370:	80 93 60 00 	sts	0x0060, r24	; 0x800060 <__data_start>
}
    7374:	00 00       	nop
    7376:	0f 90       	pop	r0
    7378:	0f 90       	pop	r0
    737a:	df 91       	pop	r29
    737c:	cf 91       	pop	r28
    737e:	08 95       	ret

00007380 <spiInit>:
}
#endif

// access routines
void spiInit()
{
    7380:	cf 93       	push	r28
    7382:	df 93       	push	r29
    7384:	cd b7       	in	r28, 0x3d	; 61
    7386:	de b7       	in	r29, 0x3e	; 62
    cbi(DDRB, 4);   // set MISO as input
    sbi(DDRB, 3);   // set MOSI as output
    sbi(DDRB, 2);   // SS must be output for Master mode to work
#else
	// setup SPI I/O pins
	sbi(PORTB, SCK);	// set SCK hi
    7388:	88 e3       	ldi	r24, 0x38	; 56
    738a:	90 e0       	ldi	r25, 0x00	; 0
    738c:	28 e3       	ldi	r18, 0x38	; 56
    738e:	30 e0       	ldi	r19, 0x00	; 0
    7390:	f9 01       	movw	r30, r18
    7392:	20 81       	ld	r18, Z
    7394:	20 68       	ori	r18, 0x80	; 128
    7396:	fc 01       	movw	r30, r24
    7398:	20 83       	st	Z, r18
	sbi(PORTB,MISO);	// set pull-up for MISO
    739a:	88 e3       	ldi	r24, 0x38	; 56
    739c:	90 e0       	ldi	r25, 0x00	; 0
    739e:	28 e3       	ldi	r18, 0x38	; 56
    73a0:	30 e0       	ldi	r19, 0x00	; 0
    73a2:	f9 01       	movw	r30, r18
    73a4:	20 81       	ld	r18, Z
    73a6:	20 64       	ori	r18, 0x40	; 64
    73a8:	fc 01       	movw	r30, r24
    73aa:	20 83       	st	Z, r18
	sbi(DDRB, SCK);	// set SCK as output
    73ac:	87 e3       	ldi	r24, 0x37	; 55
    73ae:	90 e0       	ldi	r25, 0x00	; 0
    73b0:	27 e3       	ldi	r18, 0x37	; 55
    73b2:	30 e0       	ldi	r19, 0x00	; 0
    73b4:	f9 01       	movw	r30, r18
    73b6:	20 81       	ld	r18, Z
    73b8:	20 68       	ori	r18, 0x80	; 128
    73ba:	fc 01       	movw	r30, r24
    73bc:	20 83       	st	Z, r18
	cbi(DDRB, MISO);	// set MISO as input
    73be:	87 e3       	ldi	r24, 0x37	; 55
    73c0:	90 e0       	ldi	r25, 0x00	; 0
    73c2:	27 e3       	ldi	r18, 0x37	; 55
    73c4:	30 e0       	ldi	r19, 0x00	; 0
    73c6:	f9 01       	movw	r30, r18
    73c8:	20 81       	ld	r18, Z
    73ca:	2f 7b       	andi	r18, 0xBF	; 191
    73cc:	fc 01       	movw	r30, r24
    73ce:	20 83       	st	Z, r18
	sbi(DDRB, MOSI);	// set MOSI as output
    73d0:	87 e3       	ldi	r24, 0x37	; 55
    73d2:	90 e0       	ldi	r25, 0x00	; 0
    73d4:	27 e3       	ldi	r18, 0x37	; 55
    73d6:	30 e0       	ldi	r19, 0x00	; 0
    73d8:	f9 01       	movw	r30, r18
    73da:	20 81       	ld	r18, Z
    73dc:	20 62       	ori	r18, 0x20	; 32
    73de:	fc 01       	movw	r30, r24
    73e0:	20 83       	st	Z, r18
	sbi(DDRB, CS);	// SS must be output for Master mode to work
    73e2:	87 e3       	ldi	r24, 0x37	; 55
    73e4:	90 e0       	ldi	r25, 0x00	; 0
    73e6:	27 e3       	ldi	r18, 0x37	; 55
    73e8:	30 e0       	ldi	r19, 0x00	; 0
    73ea:	f9 01       	movw	r30, r18
    73ec:	20 81       	ld	r18, Z
    73ee:	20 61       	ori	r18, 0x10	; 16
    73f0:	fc 01       	movw	r30, r24
    73f2:	20 83       	st	Z, r18
#endif
	
	// setup SPI interface :
	// master mode
	sbi(SPCR, MSTR);
    73f4:	8d e2       	ldi	r24, 0x2D	; 45
    73f6:	90 e0       	ldi	r25, 0x00	; 0
    73f8:	2d e2       	ldi	r18, 0x2D	; 45
    73fa:	30 e0       	ldi	r19, 0x00	; 0
    73fc:	f9 01       	movw	r30, r18
    73fe:	20 81       	ld	r18, Z
    7400:	20 61       	ori	r18, 0x10	; 16
    7402:	fc 01       	movw	r30, r24
    7404:	20 83       	st	Z, r18
	// clock = f/4
//	cbi(SPCR, SPR0);
//	cbi(SPCR, SPR1);
	// clock = f/16
	sbi(SPCR, SPR0);
    7406:	8d e2       	ldi	r24, 0x2D	; 45
    7408:	90 e0       	ldi	r25, 0x00	; 0
    740a:	2d e2       	ldi	r18, 0x2D	; 45
    740c:	30 e0       	ldi	r19, 0x00	; 0
    740e:	f9 01       	movw	r30, r18
    7410:	20 81       	ld	r18, Z
    7412:	21 60       	ori	r18, 0x01	; 1
    7414:	fc 01       	movw	r30, r24
    7416:	20 83       	st	Z, r18
	sbi(SPCR, SPR1);
    7418:	8d e2       	ldi	r24, 0x2D	; 45
    741a:	90 e0       	ldi	r25, 0x00	; 0
    741c:	2d e2       	ldi	r18, 0x2D	; 45
    741e:	30 e0       	ldi	r19, 0x00	; 0
    7420:	f9 01       	movw	r30, r18
    7422:	20 81       	ld	r18, Z
    7424:	22 60       	ori	r18, 0x02	; 2
    7426:	fc 01       	movw	r30, r24
    7428:	20 83       	st	Z, r18
	// select clock phase positive-going in middle of data
	cbi(SPCR, CPOL);
    742a:	8d e2       	ldi	r24, 0x2D	; 45
    742c:	90 e0       	ldi	r25, 0x00	; 0
    742e:	2d e2       	ldi	r18, 0x2D	; 45
    7430:	30 e0       	ldi	r19, 0x00	; 0
    7432:	f9 01       	movw	r30, r18
    7434:	20 81       	ld	r18, Z
    7436:	27 7f       	andi	r18, 0xF7	; 247
    7438:	fc 01       	movw	r30, r24
    743a:	20 83       	st	Z, r18
	// Data order MSB first
	cbi(SPCR,DORD);
    743c:	8d e2       	ldi	r24, 0x2D	; 45
    743e:	90 e0       	ldi	r25, 0x00	; 0
    7440:	2d e2       	ldi	r18, 0x2D	; 45
    7442:	30 e0       	ldi	r19, 0x00	; 0
    7444:	f9 01       	movw	r30, r18
    7446:	20 81       	ld	r18, Z
    7448:	2f 7d       	andi	r18, 0xDF	; 223
    744a:	fc 01       	movw	r30, r24
    744c:	20 83       	st	Z, r18
	// enable SPI
	sbi(SPCR, SPE);
    744e:	8d e2       	ldi	r24, 0x2D	; 45
    7450:	90 e0       	ldi	r25, 0x00	; 0
    7452:	2d e2       	ldi	r18, 0x2D	; 45
    7454:	30 e0       	ldi	r19, 0x00	; 0
    7456:	f9 01       	movw	r30, r18
    7458:	20 81       	ld	r18, Z
    745a:	20 64       	ori	r18, 0x40	; 64
    745c:	fc 01       	movw	r30, r24
    745e:	20 83       	st	Z, r18
	//outp((1<<MSTR)|(1<<SPE)|(1<<SPR0), SPCR );
	//outp((1<<CPHA)|(1<<CPOL)|(1<<MSTR)|(1<<SPE)|(1<<SPR0)|(1<<SPR1), SPCR );
	//outp((1<<CPHA)|(1<<MSTR)|(1<<SPE)|(1<<SPR0), SPCR );
	
	// clear status
	inb(SPSR);
    7460:	8e e2       	ldi	r24, 0x2E	; 46
    7462:	90 e0       	ldi	r25, 0x00	; 0
    7464:	fc 01       	movw	r30, r24
    7466:	80 81       	ld	r24, Z
	spiTransferComplete = TRUE;
    7468:	81 e0       	ldi	r24, 0x01	; 1
    746a:	80 93 67 04 	sts	0x0467, r24	; 0x800467 <spiTransferComplete>

	// enable SPI interrupt
	#ifdef SPI_USEINT
	sbi(SPCR, SPIE);
	#endif
}
    746e:	00 00       	nop
    7470:	df 91       	pop	r29
    7472:	cf 91       	pop	r28
    7474:	08 95       	ret

00007476 <delay_us>:
	//			pwmDuty should be in the range 0-511 for 9bit PWM
	//			pwmDuty should be in the range 0-1023 for 10bit PWM
	//outp( (pwmDuty>>8), OCR1BH);		// set the high 8bits of OCR1B
	//outp( (pwmDuty&0x00FF), OCR1BL);	// set the low 8bits of OCR1B
	OCR1B = pwmDuty;
}
    7476:	0f 93       	push	r16
    7478:	1f 93       	push	r17
    747a:	cf 93       	push	r28
    747c:	df 93       	push	r29
    747e:	00 d0       	rcall	.+0      	; 0x7480 <delay_us+0xa>
    7480:	00 d0       	rcall	.+0      	; 0x7482 <delay_us+0xc>
    7482:	cd b7       	in	r28, 0x3d	; 61
    7484:	de b7       	in	r29, 0x3e	; 62
    7486:	9c 83       	std	Y+4, r25	; 0x04
    7488:	8b 83       	std	Y+3, r24	; 0x03
    748a:	8b 81       	ldd	r24, Y+3	; 0x03
    748c:	9c 81       	ldd	r25, Y+4	; 0x04
    748e:	03 96       	adiw	r24, 0x03	; 3
    7490:	9c 01       	movw	r18, r24
    7492:	ad ec       	ldi	r26, 0xCD	; 205
    7494:	bc ec       	ldi	r27, 0xCC	; 204
    7496:	0e 94 a5 3e 	call	0x7d4a	; 0x7d4a <__umulhisi3>
    749a:	96 95       	lsr	r25
    749c:	87 95       	ror	r24
    749e:	96 95       	lsr	r25
    74a0:	87 95       	ror	r24
    74a2:	82 95       	swap	r24
    74a4:	92 95       	swap	r25
    74a6:	90 7f       	andi	r25, 0xF0	; 240
    74a8:	98 27       	eor	r25, r24
    74aa:	80 7f       	andi	r24, 0xF0	; 240
    74ac:	98 27       	eor	r25, r24
    74ae:	9a 83       	std	Y+2, r25	; 0x02
    74b0:	89 83       	std	Y+1, r24	; 0x01
    74b2:	00 e0       	ldi	r16, 0x00	; 0
    74b4:	10 e0       	ldi	r17, 0x00	; 0
    74b6:	04 c0       	rjmp	.+8      	; 0x74c0 <delay_us+0x4a>
    74b8:	c8 01       	movw	r24, r16
    74ba:	8c 01       	movw	r16, r24
    74bc:	0f 5f       	subi	r16, 0xFF	; 255
    74be:	1f 4f       	sbci	r17, 0xFF	; 255
    74c0:	89 81       	ldd	r24, Y+1	; 0x01
    74c2:	9a 81       	ldd	r25, Y+2	; 0x02
    74c4:	08 17       	cp	r16, r24
    74c6:	19 07       	cpc	r17, r25
    74c8:	b8 f3       	brcs	.-18     	; 0x74b8 <delay_us+0x42>
    74ca:	00 00       	nop
    74cc:	0f 90       	pop	r0
    74ce:	0f 90       	pop	r0
    74d0:	0f 90       	pop	r0
    74d2:	0f 90       	pop	r0
    74d4:	df 91       	pop	r29
    74d6:	cf 91       	pop	r28
    74d8:	1f 91       	pop	r17
    74da:	0f 91       	pop	r16
    74dc:	08 95       	ret

000074de <timerAttach>:
    74de:	cf 93       	push	r28
    74e0:	df 93       	push	r29
    74e2:	00 d0       	rcall	.+0      	; 0x74e4 <timerAttach+0x6>
    74e4:	1f 92       	push	r1
    74e6:	cd b7       	in	r28, 0x3d	; 61
    74e8:	de b7       	in	r29, 0x3e	; 62
    74ea:	89 83       	std	Y+1, r24	; 0x01
    74ec:	7b 83       	std	Y+3, r23	; 0x03
    74ee:	6a 83       	std	Y+2, r22	; 0x02
    74f0:	89 81       	ldd	r24, Y+1	; 0x01
    74f2:	88 30       	cpi	r24, 0x08	; 8
    74f4:	60 f4       	brcc	.+24     	; 0x750e <timerAttach+0x30>
    74f6:	89 81       	ldd	r24, Y+1	; 0x01
    74f8:	88 2f       	mov	r24, r24
    74fa:	90 e0       	ldi	r25, 0x00	; 0
    74fc:	88 0f       	add	r24, r24
    74fe:	99 1f       	adc	r25, r25
    7500:	84 56       	subi	r24, 0x64	; 100
    7502:	9e 4f       	sbci	r25, 0xFE	; 254
    7504:	2a 81       	ldd	r18, Y+2	; 0x02
    7506:	3b 81       	ldd	r19, Y+3	; 0x03
    7508:	fc 01       	movw	r30, r24
    750a:	31 83       	std	Z+1, r19	; 0x01
    750c:	20 83       	st	Z, r18
    750e:	00 00       	nop
    7510:	0f 90       	pop	r0
    7512:	0f 90       	pop	r0
    7514:	0f 90       	pop	r0
    7516:	df 91       	pop	r29
    7518:	cf 91       	pop	r28
    751a:	08 95       	ret

0000751c <__vector_11>:

//! Interrupt handler for tcnt0 overflow interrupt
TIMER_INTERRUPT_HANDLER(TIMER0_OVF_vect)
{
    751c:	1f 92       	push	r1
    751e:	0f 92       	push	r0
    7520:	00 90 5f 00 	lds	r0, 0x005F	; 0x80005f <__TEXT_REGION_LENGTH__+0x7e005f>
    7524:	0f 92       	push	r0
    7526:	11 24       	eor	r1, r1
    7528:	2f 93       	push	r18
    752a:	3f 93       	push	r19
    752c:	4f 93       	push	r20
    752e:	5f 93       	push	r21
    7530:	6f 93       	push	r22
    7532:	7f 93       	push	r23
    7534:	8f 93       	push	r24
    7536:	9f 93       	push	r25
    7538:	af 93       	push	r26
    753a:	bf 93       	push	r27
    753c:	ef 93       	push	r30
    753e:	ff 93       	push	r31
    7540:	cf 93       	push	r28
    7542:	df 93       	push	r29
    7544:	cd b7       	in	r28, 0x3d	; 61
    7546:	de b7       	in	r29, 0x3e	; 62
	Timer0Reg0++;			// increment low-order counter
    7548:	80 91 68 04 	lds	r24, 0x0468	; 0x800468 <Timer0Reg0>
    754c:	90 91 69 04 	lds	r25, 0x0469	; 0x800469 <Timer0Reg0+0x1>
    7550:	a0 91 6a 04 	lds	r26, 0x046A	; 0x80046a <Timer0Reg0+0x2>
    7554:	b0 91 6b 04 	lds	r27, 0x046B	; 0x80046b <Timer0Reg0+0x3>
    7558:	01 96       	adiw	r24, 0x01	; 1
    755a:	a1 1d       	adc	r26, r1
    755c:	b1 1d       	adc	r27, r1
    755e:	80 93 68 04 	sts	0x0468, r24	; 0x800468 <Timer0Reg0>
    7562:	90 93 69 04 	sts	0x0469, r25	; 0x800469 <Timer0Reg0+0x1>
    7566:	a0 93 6a 04 	sts	0x046A, r26	; 0x80046a <Timer0Reg0+0x2>
    756a:	b0 93 6b 04 	sts	0x046B, r27	; 0x80046b <Timer0Reg0+0x3>

	// increment pause counter
	TimerPauseReg++;
    756e:	80 91 6c 04 	lds	r24, 0x046C	; 0x80046c <TimerPauseReg>
    7572:	90 91 6d 04 	lds	r25, 0x046D	; 0x80046d <TimerPauseReg+0x1>
    7576:	a0 91 6e 04 	lds	r26, 0x046E	; 0x80046e <TimerPauseReg+0x2>
    757a:	b0 91 6f 04 	lds	r27, 0x046F	; 0x80046f <TimerPauseReg+0x3>
    757e:	01 96       	adiw	r24, 0x01	; 1
    7580:	a1 1d       	adc	r26, r1
    7582:	b1 1d       	adc	r27, r1
    7584:	80 93 6c 04 	sts	0x046C, r24	; 0x80046c <TimerPauseReg>
    7588:	90 93 6d 04 	sts	0x046D, r25	; 0x80046d <TimerPauseReg+0x1>
    758c:	a0 93 6e 04 	sts	0x046E, r26	; 0x80046e <TimerPauseReg+0x2>
    7590:	b0 93 6f 04 	sts	0x046F, r27	; 0x80046f <TimerPauseReg+0x3>

	// if a user function is defined, execute it too
	if(TimerIntFunc[TIMER0OVERFLOW_INT])
    7594:	80 91 9c 01 	lds	r24, 0x019C	; 0x80019c <TimerIntFunc>
    7598:	90 91 9d 01 	lds	r25, 0x019D	; 0x80019d <TimerIntFunc+0x1>
    759c:	89 2b       	or	r24, r25
    759e:	31 f0       	breq	.+12     	; 0x75ac <__vector_11+0x90>
		TimerIntFunc[TIMER0OVERFLOW_INT]();
    75a0:	80 91 9c 01 	lds	r24, 0x019C	; 0x80019c <TimerIntFunc>
    75a4:	90 91 9d 01 	lds	r25, 0x019D	; 0x80019d <TimerIntFunc+0x1>
    75a8:	fc 01       	movw	r30, r24
    75aa:	09 95       	icall
}
    75ac:	00 00       	nop
    75ae:	df 91       	pop	r29
    75b0:	cf 91       	pop	r28
    75b2:	ff 91       	pop	r31
    75b4:	ef 91       	pop	r30
    75b6:	bf 91       	pop	r27
    75b8:	af 91       	pop	r26
    75ba:	9f 91       	pop	r25
    75bc:	8f 91       	pop	r24
    75be:	7f 91       	pop	r23
    75c0:	6f 91       	pop	r22
    75c2:	5f 91       	pop	r21
    75c4:	4f 91       	pop	r20
    75c6:	3f 91       	pop	r19
    75c8:	2f 91       	pop	r18
    75ca:	0f 90       	pop	r0
    75cc:	00 92 5f 00 	sts	0x005F, r0	; 0x80005f <__TEXT_REGION_LENGTH__+0x7e005f>
    75d0:	0f 90       	pop	r0
    75d2:	1f 90       	pop	r1
    75d4:	18 95       	reti

000075d6 <__vector_9>:

//! Interrupt handler for tcnt1 overflow interrupt
TIMER_INTERRUPT_HANDLER(TIMER1_OVF_vect)
{
    75d6:	1f 92       	push	r1
    75d8:	0f 92       	push	r0
    75da:	00 90 5f 00 	lds	r0, 0x005F	; 0x80005f <__TEXT_REGION_LENGTH__+0x7e005f>
    75de:	0f 92       	push	r0
    75e0:	11 24       	eor	r1, r1
    75e2:	2f 93       	push	r18
    75e4:	3f 93       	push	r19
    75e6:	4f 93       	push	r20
    75e8:	5f 93       	push	r21
    75ea:	6f 93       	push	r22
    75ec:	7f 93       	push	r23
    75ee:	8f 93       	push	r24
    75f0:	9f 93       	push	r25
    75f2:	af 93       	push	r26
    75f4:	bf 93       	push	r27
    75f6:	ef 93       	push	r30
    75f8:	ff 93       	push	r31
    75fa:	cf 93       	push	r28
    75fc:	df 93       	push	r29
    75fe:	cd b7       	in	r28, 0x3d	; 61
    7600:	de b7       	in	r29, 0x3e	; 62
	// if a user function is defined, execute it
	if(TimerIntFunc[TIMER1OVERFLOW_INT])
    7602:	80 91 9e 01 	lds	r24, 0x019E	; 0x80019e <TimerIntFunc+0x2>
    7606:	90 91 9f 01 	lds	r25, 0x019F	; 0x80019f <TimerIntFunc+0x3>
    760a:	89 2b       	or	r24, r25
    760c:	31 f0       	breq	.+12     	; 0x761a <__vector_9+0x44>
		TimerIntFunc[TIMER1OVERFLOW_INT]();
    760e:	80 91 9e 01 	lds	r24, 0x019E	; 0x80019e <TimerIntFunc+0x2>
    7612:	90 91 9f 01 	lds	r25, 0x019F	; 0x80019f <TimerIntFunc+0x3>
    7616:	fc 01       	movw	r30, r24
    7618:	09 95       	icall
}
    761a:	00 00       	nop
    761c:	df 91       	pop	r29
    761e:	cf 91       	pop	r28
    7620:	ff 91       	pop	r31
    7622:	ef 91       	pop	r30
    7624:	bf 91       	pop	r27
    7626:	af 91       	pop	r26
    7628:	9f 91       	pop	r25
    762a:	8f 91       	pop	r24
    762c:	7f 91       	pop	r23
    762e:	6f 91       	pop	r22
    7630:	5f 91       	pop	r21
    7632:	4f 91       	pop	r20
    7634:	3f 91       	pop	r19
    7636:	2f 91       	pop	r18
    7638:	0f 90       	pop	r0
    763a:	00 92 5f 00 	sts	0x005F, r0	; 0x80005f <__TEXT_REGION_LENGTH__+0x7e005f>
    763e:	0f 90       	pop	r0
    7640:	1f 90       	pop	r1
    7642:	18 95       	reti

00007644 <__vector_5>:

#ifdef TCNT2	// support timer2 only if it exists
//! Interrupt handler for tcnt2 overflow interrupt
TIMER_INTERRUPT_HANDLER(TIMER2_OVF_vect)
{
    7644:	1f 92       	push	r1
    7646:	0f 92       	push	r0
    7648:	00 90 5f 00 	lds	r0, 0x005F	; 0x80005f <__TEXT_REGION_LENGTH__+0x7e005f>
    764c:	0f 92       	push	r0
    764e:	11 24       	eor	r1, r1
    7650:	2f 93       	push	r18
    7652:	3f 93       	push	r19
    7654:	4f 93       	push	r20
    7656:	5f 93       	push	r21
    7658:	6f 93       	push	r22
    765a:	7f 93       	push	r23
    765c:	8f 93       	push	r24
    765e:	9f 93       	push	r25
    7660:	af 93       	push	r26
    7662:	bf 93       	push	r27
    7664:	ef 93       	push	r30
    7666:	ff 93       	push	r31
    7668:	cf 93       	push	r28
    766a:	df 93       	push	r29
    766c:	cd b7       	in	r28, 0x3d	; 61
    766e:	de b7       	in	r29, 0x3e	; 62
	Timer2Reg0++;			// increment low-order counter
    7670:	80 91 70 04 	lds	r24, 0x0470	; 0x800470 <Timer2Reg0>
    7674:	90 91 71 04 	lds	r25, 0x0471	; 0x800471 <Timer2Reg0+0x1>
    7678:	a0 91 72 04 	lds	r26, 0x0472	; 0x800472 <Timer2Reg0+0x2>
    767c:	b0 91 73 04 	lds	r27, 0x0473	; 0x800473 <Timer2Reg0+0x3>
    7680:	01 96       	adiw	r24, 0x01	; 1
    7682:	a1 1d       	adc	r26, r1
    7684:	b1 1d       	adc	r27, r1
    7686:	80 93 70 04 	sts	0x0470, r24	; 0x800470 <Timer2Reg0>
    768a:	90 93 71 04 	sts	0x0471, r25	; 0x800471 <Timer2Reg0+0x1>
    768e:	a0 93 72 04 	sts	0x0472, r26	; 0x800472 <Timer2Reg0+0x2>
    7692:	b0 93 73 04 	sts	0x0473, r27	; 0x800473 <Timer2Reg0+0x3>

	// if a user function is defined, execute it
	if(TimerIntFunc[TIMER2OVERFLOW_INT])
    7696:	80 91 a6 01 	lds	r24, 0x01A6	; 0x8001a6 <TimerIntFunc+0xa>
    769a:	90 91 a7 01 	lds	r25, 0x01A7	; 0x8001a7 <TimerIntFunc+0xb>
    769e:	89 2b       	or	r24, r25
    76a0:	31 f0       	breq	.+12     	; 0x76ae <__vector_5+0x6a>
		TimerIntFunc[TIMER2OVERFLOW_INT]();
    76a2:	80 91 a6 01 	lds	r24, 0x01A6	; 0x8001a6 <TimerIntFunc+0xa>
    76a6:	90 91 a7 01 	lds	r25, 0x01A7	; 0x8001a7 <TimerIntFunc+0xb>
    76aa:	fc 01       	movw	r30, r24
    76ac:	09 95       	icall
}
    76ae:	00 00       	nop
    76b0:	df 91       	pop	r29
    76b2:	cf 91       	pop	r28
    76b4:	ff 91       	pop	r31
    76b6:	ef 91       	pop	r30
    76b8:	bf 91       	pop	r27
    76ba:	af 91       	pop	r26
    76bc:	9f 91       	pop	r25
    76be:	8f 91       	pop	r24
    76c0:	7f 91       	pop	r23
    76c2:	6f 91       	pop	r22
    76c4:	5f 91       	pop	r21
    76c6:	4f 91       	pop	r20
    76c8:	3f 91       	pop	r19
    76ca:	2f 91       	pop	r18
    76cc:	0f 90       	pop	r0
    76ce:	00 92 5f 00 	sts	0x005F, r0	; 0x80005f <__TEXT_REGION_LENGTH__+0x7e005f>
    76d2:	0f 90       	pop	r0
    76d4:	1f 90       	pop	r1
    76d6:	18 95       	reti

000076d8 <__vector_10>:

#ifdef OCR0
// include support for Output Compare 0 for new AVR processors that support it
//! Interrupt handler for OutputCompare0 match (OC0) interrupt
TIMER_INTERRUPT_HANDLER(TIMER0_COMP_vect)
{
    76d8:	1f 92       	push	r1
    76da:	0f 92       	push	r0
    76dc:	00 90 5f 00 	lds	r0, 0x005F	; 0x80005f <__TEXT_REGION_LENGTH__+0x7e005f>
    76e0:	0f 92       	push	r0
    76e2:	11 24       	eor	r1, r1
    76e4:	2f 93       	push	r18
    76e6:	3f 93       	push	r19
    76e8:	4f 93       	push	r20
    76ea:	5f 93       	push	r21
    76ec:	6f 93       	push	r22
    76ee:	7f 93       	push	r23
    76f0:	8f 93       	push	r24
    76f2:	9f 93       	push	r25
    76f4:	af 93       	push	r26
    76f6:	bf 93       	push	r27
    76f8:	ef 93       	push	r30
    76fa:	ff 93       	push	r31
    76fc:	cf 93       	push	r28
    76fe:	df 93       	push	r29
    7700:	cd b7       	in	r28, 0x3d	; 61
    7702:	de b7       	in	r29, 0x3e	; 62
	// if a user function is defined, execute it
	if(TimerIntFunc[TIMER0OUTCOMPARE_INT])
    7704:	80 91 aa 01 	lds	r24, 0x01AA	; 0x8001aa <TimerIntFunc+0xe>
    7708:	90 91 ab 01 	lds	r25, 0x01AB	; 0x8001ab <TimerIntFunc+0xf>
    770c:	89 2b       	or	r24, r25
    770e:	31 f0       	breq	.+12     	; 0x771c <__vector_10+0x44>
		TimerIntFunc[TIMER0OUTCOMPARE_INT]();
    7710:	80 91 aa 01 	lds	r24, 0x01AA	; 0x8001aa <TimerIntFunc+0xe>
    7714:	90 91 ab 01 	lds	r25, 0x01AB	; 0x8001ab <TimerIntFunc+0xf>
    7718:	fc 01       	movw	r30, r24
    771a:	09 95       	icall
}
    771c:	00 00       	nop
    771e:	df 91       	pop	r29
    7720:	cf 91       	pop	r28
    7722:	ff 91       	pop	r31
    7724:	ef 91       	pop	r30
    7726:	bf 91       	pop	r27
    7728:	af 91       	pop	r26
    772a:	9f 91       	pop	r25
    772c:	8f 91       	pop	r24
    772e:	7f 91       	pop	r23
    7730:	6f 91       	pop	r22
    7732:	5f 91       	pop	r21
    7734:	4f 91       	pop	r20
    7736:	3f 91       	pop	r19
    7738:	2f 91       	pop	r18
    773a:	0f 90       	pop	r0
    773c:	00 92 5f 00 	sts	0x005F, r0	; 0x80005f <__TEXT_REGION_LENGTH__+0x7e005f>
    7740:	0f 90       	pop	r0
    7742:	1f 90       	pop	r1
    7744:	18 95       	reti

00007746 <__vector_7>:
#endif

//! Interrupt handler for CutputCompare1A match (OC1A) interrupt
TIMER_INTERRUPT_HANDLER(TIMER1_COMPA_vect)
{
    7746:	1f 92       	push	r1
    7748:	0f 92       	push	r0
    774a:	00 90 5f 00 	lds	r0, 0x005F	; 0x80005f <__TEXT_REGION_LENGTH__+0x7e005f>
    774e:	0f 92       	push	r0
    7750:	11 24       	eor	r1, r1
    7752:	2f 93       	push	r18
    7754:	3f 93       	push	r19
    7756:	4f 93       	push	r20
    7758:	5f 93       	push	r21
    775a:	6f 93       	push	r22
    775c:	7f 93       	push	r23
    775e:	8f 93       	push	r24
    7760:	9f 93       	push	r25
    7762:	af 93       	push	r26
    7764:	bf 93       	push	r27
    7766:	ef 93       	push	r30
    7768:	ff 93       	push	r31
    776a:	cf 93       	push	r28
    776c:	df 93       	push	r29
    776e:	cd b7       	in	r28, 0x3d	; 61
    7770:	de b7       	in	r29, 0x3e	; 62
	// if a user function is defined, execute it
	if(TimerIntFunc[TIMER1OUTCOMPAREA_INT])
    7772:	80 91 a0 01 	lds	r24, 0x01A0	; 0x8001a0 <TimerIntFunc+0x4>
    7776:	90 91 a1 01 	lds	r25, 0x01A1	; 0x8001a1 <TimerIntFunc+0x5>
    777a:	89 2b       	or	r24, r25
    777c:	31 f0       	breq	.+12     	; 0x778a <__vector_7+0x44>
		TimerIntFunc[TIMER1OUTCOMPAREA_INT]();
    777e:	80 91 a0 01 	lds	r24, 0x01A0	; 0x8001a0 <TimerIntFunc+0x4>
    7782:	90 91 a1 01 	lds	r25, 0x01A1	; 0x8001a1 <TimerIntFunc+0x5>
    7786:	fc 01       	movw	r30, r24
    7788:	09 95       	icall
}
    778a:	00 00       	nop
    778c:	df 91       	pop	r29
    778e:	cf 91       	pop	r28
    7790:	ff 91       	pop	r31
    7792:	ef 91       	pop	r30
    7794:	bf 91       	pop	r27
    7796:	af 91       	pop	r26
    7798:	9f 91       	pop	r25
    779a:	8f 91       	pop	r24
    779c:	7f 91       	pop	r23
    779e:	6f 91       	pop	r22
    77a0:	5f 91       	pop	r21
    77a2:	4f 91       	pop	r20
    77a4:	3f 91       	pop	r19
    77a6:	2f 91       	pop	r18
    77a8:	0f 90       	pop	r0
    77aa:	00 92 5f 00 	sts	0x005F, r0	; 0x80005f <__TEXT_REGION_LENGTH__+0x7e005f>
    77ae:	0f 90       	pop	r0
    77b0:	1f 90       	pop	r1
    77b2:	18 95       	reti

000077b4 <__vector_8>:

//! Interrupt handler for OutputCompare1B match (OC1B) interrupt
TIMER_INTERRUPT_HANDLER(TIMER1_COMPB_vect)
{
    77b4:	1f 92       	push	r1
    77b6:	0f 92       	push	r0
    77b8:	00 90 5f 00 	lds	r0, 0x005F	; 0x80005f <__TEXT_REGION_LENGTH__+0x7e005f>
    77bc:	0f 92       	push	r0
    77be:	11 24       	eor	r1, r1
    77c0:	2f 93       	push	r18
    77c2:	3f 93       	push	r19
    77c4:	4f 93       	push	r20
    77c6:	5f 93       	push	r21
    77c8:	6f 93       	push	r22
    77ca:	7f 93       	push	r23
    77cc:	8f 93       	push	r24
    77ce:	9f 93       	push	r25
    77d0:	af 93       	push	r26
    77d2:	bf 93       	push	r27
    77d4:	ef 93       	push	r30
    77d6:	ff 93       	push	r31
    77d8:	cf 93       	push	r28
    77da:	df 93       	push	r29
    77dc:	cd b7       	in	r28, 0x3d	; 61
    77de:	de b7       	in	r29, 0x3e	; 62
	// if a user function is defined, execute it
	if(TimerIntFunc[TIMER1OUTCOMPAREB_INT])
    77e0:	80 91 a2 01 	lds	r24, 0x01A2	; 0x8001a2 <TimerIntFunc+0x6>
    77e4:	90 91 a3 01 	lds	r25, 0x01A3	; 0x8001a3 <TimerIntFunc+0x7>
    77e8:	89 2b       	or	r24, r25
    77ea:	31 f0       	breq	.+12     	; 0x77f8 <__vector_8+0x44>
		TimerIntFunc[TIMER1OUTCOMPAREB_INT]();
    77ec:	80 91 a2 01 	lds	r24, 0x01A2	; 0x8001a2 <TimerIntFunc+0x6>
    77f0:	90 91 a3 01 	lds	r25, 0x01A3	; 0x8001a3 <TimerIntFunc+0x7>
    77f4:	fc 01       	movw	r30, r24
    77f6:	09 95       	icall
}
    77f8:	00 00       	nop
    77fa:	df 91       	pop	r29
    77fc:	cf 91       	pop	r28
    77fe:	ff 91       	pop	r31
    7800:	ef 91       	pop	r30
    7802:	bf 91       	pop	r27
    7804:	af 91       	pop	r26
    7806:	9f 91       	pop	r25
    7808:	8f 91       	pop	r24
    780a:	7f 91       	pop	r23
    780c:	6f 91       	pop	r22
    780e:	5f 91       	pop	r21
    7810:	4f 91       	pop	r20
    7812:	3f 91       	pop	r19
    7814:	2f 91       	pop	r18
    7816:	0f 90       	pop	r0
    7818:	00 92 5f 00 	sts	0x005F, r0	; 0x80005f <__TEXT_REGION_LENGTH__+0x7e005f>
    781c:	0f 90       	pop	r0
    781e:	1f 90       	pop	r1
    7820:	18 95       	reti

00007822 <__vector_6>:

//! Interrupt handler for InputCapture1 (IC1) interrupt
TIMER_INTERRUPT_HANDLER(TIMER1_CAPT_vect)
{
    7822:	1f 92       	push	r1
    7824:	0f 92       	push	r0
    7826:	00 90 5f 00 	lds	r0, 0x005F	; 0x80005f <__TEXT_REGION_LENGTH__+0x7e005f>
    782a:	0f 92       	push	r0
    782c:	11 24       	eor	r1, r1
    782e:	2f 93       	push	r18
    7830:	3f 93       	push	r19
    7832:	4f 93       	push	r20
    7834:	5f 93       	push	r21
    7836:	6f 93       	push	r22
    7838:	7f 93       	push	r23
    783a:	8f 93       	push	r24
    783c:	9f 93       	push	r25
    783e:	af 93       	push	r26
    7840:	bf 93       	push	r27
    7842:	ef 93       	push	r30
    7844:	ff 93       	push	r31
    7846:	cf 93       	push	r28
    7848:	df 93       	push	r29
    784a:	cd b7       	in	r28, 0x3d	; 61
    784c:	de b7       	in	r29, 0x3e	; 62
	// if a user function is defined, execute it
	if(TimerIntFunc[TIMER1INPUTCAPTURE_INT])
    784e:	80 91 a4 01 	lds	r24, 0x01A4	; 0x8001a4 <TimerIntFunc+0x8>
    7852:	90 91 a5 01 	lds	r25, 0x01A5	; 0x8001a5 <TimerIntFunc+0x9>
    7856:	89 2b       	or	r24, r25
    7858:	31 f0       	breq	.+12     	; 0x7866 <__vector_6+0x44>
		TimerIntFunc[TIMER1INPUTCAPTURE_INT]();
    785a:	80 91 a4 01 	lds	r24, 0x01A4	; 0x8001a4 <TimerIntFunc+0x8>
    785e:	90 91 a5 01 	lds	r25, 0x01A5	; 0x8001a5 <TimerIntFunc+0x9>
    7862:	fc 01       	movw	r30, r24
    7864:	09 95       	icall
}
    7866:	00 00       	nop
    7868:	df 91       	pop	r29
    786a:	cf 91       	pop	r28
    786c:	ff 91       	pop	r31
    786e:	ef 91       	pop	r30
    7870:	bf 91       	pop	r27
    7872:	af 91       	pop	r26
    7874:	9f 91       	pop	r25
    7876:	8f 91       	pop	r24
    7878:	7f 91       	pop	r23
    787a:	6f 91       	pop	r22
    787c:	5f 91       	pop	r21
    787e:	4f 91       	pop	r20
    7880:	3f 91       	pop	r19
    7882:	2f 91       	pop	r18
    7884:	0f 90       	pop	r0
    7886:	00 92 5f 00 	sts	0x005F, r0	; 0x80005f <__TEXT_REGION_LENGTH__+0x7e005f>
    788a:	0f 90       	pop	r0
    788c:	1f 90       	pop	r1
    788e:	18 95       	reti

00007890 <__vector_4>:

//! Interrupt handler for OutputCompare2 match (OC2) interrupt
TIMER_INTERRUPT_HANDLER(TIMER2_COMP_vect)
{
    7890:	1f 92       	push	r1
    7892:	0f 92       	push	r0
    7894:	00 90 5f 00 	lds	r0, 0x005F	; 0x80005f <__TEXT_REGION_LENGTH__+0x7e005f>
    7898:	0f 92       	push	r0
    789a:	11 24       	eor	r1, r1
    789c:	2f 93       	push	r18
    789e:	3f 93       	push	r19
    78a0:	4f 93       	push	r20
    78a2:	5f 93       	push	r21
    78a4:	6f 93       	push	r22
    78a6:	7f 93       	push	r23
    78a8:	8f 93       	push	r24
    78aa:	9f 93       	push	r25
    78ac:	af 93       	push	r26
    78ae:	bf 93       	push	r27
    78b0:	ef 93       	push	r30
    78b2:	ff 93       	push	r31
    78b4:	cf 93       	push	r28
    78b6:	df 93       	push	r29
    78b8:	cd b7       	in	r28, 0x3d	; 61
    78ba:	de b7       	in	r29, 0x3e	; 62
	// if a user function is defined, execute it
	if(TimerIntFunc[TIMER2OUTCOMPARE_INT])
    78bc:	80 91 a8 01 	lds	r24, 0x01A8	; 0x8001a8 <TimerIntFunc+0xc>
    78c0:	90 91 a9 01 	lds	r25, 0x01A9	; 0x8001a9 <TimerIntFunc+0xd>
    78c4:	89 2b       	or	r24, r25
    78c6:	31 f0       	breq	.+12     	; 0x78d4 <__vector_4+0x44>
		TimerIntFunc[TIMER2OUTCOMPARE_INT]();
    78c8:	80 91 a8 01 	lds	r24, 0x01A8	; 0x8001a8 <TimerIntFunc+0xc>
    78cc:	90 91 a9 01 	lds	r25, 0x01A9	; 0x8001a9 <TimerIntFunc+0xd>
    78d0:	fc 01       	movw	r30, r24
    78d2:	09 95       	icall
}
    78d4:	00 00       	nop
    78d6:	df 91       	pop	r29
    78d8:	cf 91       	pop	r28
    78da:	ff 91       	pop	r31
    78dc:	ef 91       	pop	r30
    78de:	bf 91       	pop	r27
    78e0:	af 91       	pop	r26
    78e2:	9f 91       	pop	r25
    78e4:	8f 91       	pop	r24
    78e6:	7f 91       	pop	r23
    78e8:	6f 91       	pop	r22
    78ea:	5f 91       	pop	r21
    78ec:	4f 91       	pop	r20
    78ee:	3f 91       	pop	r19
    78f0:	2f 91       	pop	r18
    78f2:	0f 90       	pop	r0
    78f4:	00 92 5f 00 	sts	0x005F, r0	; 0x80005f <__TEXT_REGION_LENGTH__+0x7e005f>
    78f8:	0f 90       	pop	r0
    78fa:	1f 90       	pop	r1
    78fc:	18 95       	reti

000078fe <uartInit>:
	else
	{
		// return failure
		return FALSE;
	}
}
    78fe:	cf 93       	push	r28
    7900:	df 93       	push	r29
    7902:	cd b7       	in	r28, 0x3d	; 61
    7904:	de b7       	in	r29, 0x3e	; 62
    7906:	0e 94 a7 3c 	call	0x794e	; 0x794e <uartInitBuffers>
    790a:	10 92 2d 02 	sts	0x022D, r1	; 0x80022d <UartRxFunc+0x1>
    790e:	10 92 2c 02 	sts	0x022C, r1	; 0x80022c <UartRxFunc>
    7912:	8a e2       	ldi	r24, 0x2A	; 42
    7914:	90 e0       	ldi	r25, 0x00	; 0
    7916:	28 ed       	ldi	r18, 0xD8	; 216
    7918:	fc 01       	movw	r30, r24
    791a:	20 83       	st	Z, r18
    791c:	80 e4       	ldi	r24, 0x40	; 64
    791e:	90 e0       	ldi	r25, 0x00	; 0
    7920:	26 e8       	ldi	r18, 0x86	; 134
    7922:	fc 01       	movw	r30, r24
    7924:	20 83       	st	Z, r18
    7926:	60 e8       	ldi	r22, 0x80	; 128
    7928:	75 e2       	ldi	r23, 0x25	; 37
    792a:	80 e0       	ldi	r24, 0x00	; 0
    792c:	90 e0       	ldi	r25, 0x00	; 0
    792e:	0e 94 d2 3c 	call	0x79a4	; 0x79a4 <uartSetBaudRate>
    7932:	81 e0       	ldi	r24, 0x01	; 1
    7934:	80 93 74 04 	sts	0x0474, r24	; 0x800474 <uartReadyTx>
    7938:	10 92 7e 04 	sts	0x047E, r1	; 0x80047e <uartBufferedTx>
    793c:	10 92 88 04 	sts	0x0488, r1	; 0x800488 <uartRxOverflow+0x1>
    7940:	10 92 87 04 	sts	0x0487, r1	; 0x800487 <uartRxOverflow>
    7944:	78 94       	sei
    7946:	00 00       	nop
    7948:	df 91       	pop	r29
    794a:	cf 91       	pop	r28
    794c:	08 95       	ret

0000794e <uartInitBuffers>:
    794e:	cf 93       	push	r28
    7950:	df 93       	push	r29
    7952:	cd b7       	in	r28, 0x3d	; 61
    7954:	de b7       	in	r29, 0x3e	; 62
    7956:	40 e4       	ldi	r20, 0x40	; 64
    7958:	50 e0       	ldi	r21, 0x00	; 0
    795a:	6c ea       	ldi	r22, 0xAC	; 172
    795c:	71 e0       	ldi	r23, 0x01	; 1
    795e:	85 e7       	ldi	r24, 0x75	; 117
    7960:	94 e0       	ldi	r25, 0x04	; 4
    7962:	0e 94 d4 01 	call	0x3a8	; 0x3a8 <bufferInit>
    7966:	40 e4       	ldi	r20, 0x40	; 64
    7968:	50 e0       	ldi	r21, 0x00	; 0
    796a:	6c ee       	ldi	r22, 0xEC	; 236
    796c:	71 e0       	ldi	r23, 0x01	; 1
    796e:	8f e7       	ldi	r24, 0x7F	; 127
    7970:	94 e0       	ldi	r25, 0x04	; 4
    7972:	0e 94 d4 01 	call	0x3a8	; 0x3a8 <bufferInit>
    7976:	00 00       	nop
    7978:	df 91       	pop	r29
    797a:	cf 91       	pop	r28
    797c:	08 95       	ret

0000797e <uartSetRxHandler>:
    797e:	cf 93       	push	r28
    7980:	df 93       	push	r29
    7982:	00 d0       	rcall	.+0      	; 0x7984 <uartSetRxHandler+0x6>
    7984:	cd b7       	in	r28, 0x3d	; 61
    7986:	de b7       	in	r29, 0x3e	; 62
    7988:	9a 83       	std	Y+2, r25	; 0x02
    798a:	89 83       	std	Y+1, r24	; 0x01
    798c:	89 81       	ldd	r24, Y+1	; 0x01
    798e:	9a 81       	ldd	r25, Y+2	; 0x02
    7990:	90 93 2d 02 	sts	0x022D, r25	; 0x80022d <UartRxFunc+0x1>
    7994:	80 93 2c 02 	sts	0x022C, r24	; 0x80022c <UartRxFunc>
    7998:	00 00       	nop
    799a:	0f 90       	pop	r0
    799c:	0f 90       	pop	r0
    799e:	df 91       	pop	r29
    79a0:	cf 91       	pop	r28
    79a2:	08 95       	ret

000079a4 <uartSetBaudRate>:
    79a4:	ef 92       	push	r14
    79a6:	ff 92       	push	r15
    79a8:	0f 93       	push	r16
    79aa:	1f 93       	push	r17
    79ac:	cf 93       	push	r28
    79ae:	df 93       	push	r29
    79b0:	00 d0       	rcall	.+0      	; 0x79b2 <uartSetBaudRate+0xe>
    79b2:	00 d0       	rcall	.+0      	; 0x79b4 <uartSetBaudRate+0x10>
    79b4:	00 d0       	rcall	.+0      	; 0x79b6 <uartSetBaudRate+0x12>
    79b6:	cd b7       	in	r28, 0x3d	; 61
    79b8:	de b7       	in	r29, 0x3e	; 62
    79ba:	6b 83       	std	Y+3, r22	; 0x03
    79bc:	7c 83       	std	Y+4, r23	; 0x04
    79be:	8d 83       	std	Y+5, r24	; 0x05
    79c0:	9e 83       	std	Y+6, r25	; 0x06
    79c2:	8b 81       	ldd	r24, Y+3	; 0x03
    79c4:	9c 81       	ldd	r25, Y+4	; 0x04
    79c6:	ad 81       	ldd	r26, Y+5	; 0x05
    79c8:	be 81       	ldd	r27, Y+6	; 0x06
    79ca:	80 58       	subi	r24, 0x80	; 128
    79cc:	9b 47       	sbci	r25, 0x7B	; 123
    79ce:	a1 4e       	sbci	r26, 0xE1	; 225
    79d0:	bf 4f       	sbci	r27, 0xFF	; 255
    79d2:	88 0f       	add	r24, r24
    79d4:	99 1f       	adc	r25, r25
    79d6:	aa 1f       	adc	r26, r26
    79d8:	bb 1f       	adc	r27, r27
    79da:	88 0f       	add	r24, r24
    79dc:	99 1f       	adc	r25, r25
    79de:	aa 1f       	adc	r26, r26
    79e0:	bb 1f       	adc	r27, r27
    79e2:	88 0f       	add	r24, r24
    79e4:	99 1f       	adc	r25, r25
    79e6:	aa 1f       	adc	r26, r26
    79e8:	bb 1f       	adc	r27, r27
    79ea:	7c 01       	movw	r14, r24
    79ec:	8d 01       	movw	r16, r26
    79ee:	8b 81       	ldd	r24, Y+3	; 0x03
    79f0:	9c 81       	ldd	r25, Y+4	; 0x04
    79f2:	ad 81       	ldd	r26, Y+5	; 0x05
    79f4:	be 81       	ldd	r27, Y+6	; 0x06
    79f6:	88 0f       	add	r24, r24
    79f8:	99 1f       	adc	r25, r25
    79fa:	aa 1f       	adc	r26, r26
    79fc:	bb 1f       	adc	r27, r27
    79fe:	88 0f       	add	r24, r24
    7a00:	99 1f       	adc	r25, r25
    7a02:	aa 1f       	adc	r26, r26
    7a04:	bb 1f       	adc	r27, r27
    7a06:	88 0f       	add	r24, r24
    7a08:	99 1f       	adc	r25, r25
    7a0a:	aa 1f       	adc	r26, r26
    7a0c:	bb 1f       	adc	r27, r27
    7a0e:	88 0f       	add	r24, r24
    7a10:	99 1f       	adc	r25, r25
    7a12:	aa 1f       	adc	r26, r26
    7a14:	bb 1f       	adc	r27, r27
    7a16:	9c 01       	movw	r18, r24
    7a18:	ad 01       	movw	r20, r26
    7a1a:	c8 01       	movw	r24, r16
    7a1c:	b7 01       	movw	r22, r14
    7a1e:	0e 94 5e 3e 	call	0x7cbc	; 0x7cbc <__udivmodsi4>
    7a22:	da 01       	movw	r26, r20
    7a24:	c9 01       	movw	r24, r18
    7a26:	01 97       	sbiw	r24, 0x01	; 1
    7a28:	9a 83       	std	Y+2, r25	; 0x02
    7a2a:	89 83       	std	Y+1, r24	; 0x01
    7a2c:	89 e2       	ldi	r24, 0x29	; 41
    7a2e:	90 e0       	ldi	r25, 0x00	; 0
    7a30:	29 81       	ldd	r18, Y+1	; 0x01
    7a32:	fc 01       	movw	r30, r24
    7a34:	20 83       	st	Z, r18
    7a36:	80 e4       	ldi	r24, 0x40	; 64
    7a38:	90 e0       	ldi	r25, 0x00	; 0
    7a3a:	29 81       	ldd	r18, Y+1	; 0x01
    7a3c:	3a 81       	ldd	r19, Y+2	; 0x02
    7a3e:	23 2f       	mov	r18, r19
    7a40:	33 27       	eor	r19, r19
    7a42:	fc 01       	movw	r30, r24
    7a44:	20 83       	st	Z, r18
    7a46:	00 00       	nop
    7a48:	26 96       	adiw	r28, 0x06	; 6
    7a4a:	0f b6       	in	r0, 0x3f	; 63
    7a4c:	f8 94       	cli
    7a4e:	de bf       	out	0x3e, r29	; 62
    7a50:	0f be       	out	0x3f, r0	; 63
    7a52:	cd bf       	out	0x3d, r28	; 61
    7a54:	df 91       	pop	r29
    7a56:	cf 91       	pop	r28
    7a58:	1f 91       	pop	r17
    7a5a:	0f 91       	pop	r16
    7a5c:	ff 90       	pop	r15
    7a5e:	ef 90       	pop	r14
    7a60:	08 95       	ret

00007a62 <uartSendByte>:
    7a62:	cf 93       	push	r28
    7a64:	df 93       	push	r29
    7a66:	1f 92       	push	r1
    7a68:	cd b7       	in	r28, 0x3d	; 61
    7a6a:	de b7       	in	r29, 0x3e	; 62
    7a6c:	89 83       	std	Y+1, r24	; 0x01
    7a6e:	00 00       	nop
    7a70:	80 91 74 04 	lds	r24, 0x0474	; 0x800474 <uartReadyTx>
    7a74:	88 23       	and	r24, r24
    7a76:	e1 f3       	breq	.-8      	; 0x7a70 <uartSendByte+0xe>
    7a78:	8c e2       	ldi	r24, 0x2C	; 44
    7a7a:	90 e0       	ldi	r25, 0x00	; 0
    7a7c:	29 81       	ldd	r18, Y+1	; 0x01
    7a7e:	fc 01       	movw	r30, r24
    7a80:	20 83       	st	Z, r18
    7a82:	10 92 74 04 	sts	0x0474, r1	; 0x800474 <uartReadyTx>
    7a86:	00 00       	nop
    7a88:	0f 90       	pop	r0
    7a8a:	df 91       	pop	r29
    7a8c:	cf 91       	pop	r28
    7a8e:	08 95       	ret

00007a90 <uartGetByte>:
    7a90:	cf 93       	push	r28
    7a92:	df 93       	push	r29
    7a94:	1f 92       	push	r1
    7a96:	cd b7       	in	r28, 0x3d	; 61
    7a98:	de b7       	in	r29, 0x3e	; 62
    7a9a:	ce 01       	movw	r24, r28
    7a9c:	01 96       	adiw	r24, 0x01	; 1
    7a9e:	0e 94 5d 3d 	call	0x7aba	; 0x7aba <uartReceiveByte>
    7aa2:	88 23       	and	r24, r24
    7aa4:	21 f0       	breq	.+8      	; 0x7aae <uartGetByte+0x1e>
    7aa6:	89 81       	ldd	r24, Y+1	; 0x01
    7aa8:	88 2f       	mov	r24, r24
    7aaa:	90 e0       	ldi	r25, 0x00	; 0
    7aac:	02 c0       	rjmp	.+4      	; 0x7ab2 <uartGetByte+0x22>
    7aae:	8f ef       	ldi	r24, 0xFF	; 255
    7ab0:	9f ef       	ldi	r25, 0xFF	; 255
    7ab2:	0f 90       	pop	r0
    7ab4:	df 91       	pop	r29
    7ab6:	cf 91       	pop	r28
    7ab8:	08 95       	ret

00007aba <uartReceiveByte>:
    7aba:	cf 93       	push	r28
    7abc:	df 93       	push	r29
    7abe:	00 d0       	rcall	.+0      	; 0x7ac0 <uartReceiveByte+0x6>
    7ac0:	cd b7       	in	r28, 0x3d	; 61
    7ac2:	de b7       	in	r29, 0x3e	; 62
    7ac4:	9a 83       	std	Y+2, r25	; 0x02
    7ac6:	89 83       	std	Y+1, r24	; 0x01
    7ac8:	80 91 77 04 	lds	r24, 0x0477	; 0x800477 <uartRxBuffer+0x2>
    7acc:	90 91 78 04 	lds	r25, 0x0478	; 0x800478 <uartRxBuffer+0x3>
    7ad0:	89 2b       	or	r24, r25
    7ad2:	99 f0       	breq	.+38     	; 0x7afa <uartReceiveByte+0x40>
    7ad4:	80 91 79 04 	lds	r24, 0x0479	; 0x800479 <uartRxBuffer+0x4>
    7ad8:	90 91 7a 04 	lds	r25, 0x047A	; 0x80047a <uartRxBuffer+0x5>
    7adc:	89 2b       	or	r24, r25
    7ade:	59 f0       	breq	.+22     	; 0x7af6 <uartReceiveByte+0x3c>
    7ae0:	85 e7       	ldi	r24, 0x75	; 117
    7ae2:	94 e0       	ldi	r25, 0x04	; 4
    7ae4:	0e 94 11 02 	call	0x422	; 0x422 <bufferGetFromFront>
    7ae8:	28 2f       	mov	r18, r24
    7aea:	89 81       	ldd	r24, Y+1	; 0x01
    7aec:	9a 81       	ldd	r25, Y+2	; 0x02
    7aee:	fc 01       	movw	r30, r24
    7af0:	20 83       	st	Z, r18
    7af2:	81 e0       	ldi	r24, 0x01	; 1
    7af4:	03 c0       	rjmp	.+6      	; 0x7afc <uartReceiveByte+0x42>
    7af6:	80 e0       	ldi	r24, 0x00	; 0
    7af8:	01 c0       	rjmp	.+2      	; 0x7afc <uartReceiveByte+0x42>
    7afa:	80 e0       	ldi	r24, 0x00	; 0
    7afc:	0f 90       	pop	r0
    7afe:	0f 90       	pop	r0
    7b00:	df 91       	pop	r29
    7b02:	cf 91       	pop	r28
    7b04:	08 95       	ret

00007b06 <uartFlushReceiveBuffer>:
    7b06:	cf 93       	push	r28
    7b08:	df 93       	push	r29
    7b0a:	cd b7       	in	r28, 0x3d	; 61
    7b0c:	de b7       	in	r29, 0x3e	; 62
    7b0e:	10 92 7a 04 	sts	0x047A, r1	; 0x80047a <uartRxBuffer+0x5>
    7b12:	10 92 79 04 	sts	0x0479, r1	; 0x800479 <uartRxBuffer+0x4>
    7b16:	00 00       	nop
    7b18:	df 91       	pop	r29
    7b1a:	cf 91       	pop	r28
    7b1c:	08 95       	ret

00007b1e <uartReceiveBufferIsEmpty>:
    7b1e:	cf 93       	push	r28
    7b20:	df 93       	push	r29
    7b22:	cd b7       	in	r28, 0x3d	; 61
    7b24:	de b7       	in	r29, 0x3e	; 62
    7b26:	80 91 79 04 	lds	r24, 0x0479	; 0x800479 <uartRxBuffer+0x4>
    7b2a:	90 91 7a 04 	lds	r25, 0x047A	; 0x80047a <uartRxBuffer+0x5>
    7b2e:	89 2b       	or	r24, r25
    7b30:	11 f4       	brne	.+4      	; 0x7b36 <uartReceiveBufferIsEmpty+0x18>
    7b32:	81 e0       	ldi	r24, 0x01	; 1
    7b34:	01 c0       	rjmp	.+2      	; 0x7b38 <uartReceiveBufferIsEmpty+0x1a>
    7b36:	80 e0       	ldi	r24, 0x00	; 0
    7b38:	df 91       	pop	r29
    7b3a:	cf 91       	pop	r28
    7b3c:	08 95       	ret

00007b3e <__vector_15>:

// UART Transmit Complete Interrupt Handler
UART_INTERRUPT_HANDLER(USART_TXC_vect)
{
    7b3e:	1f 92       	push	r1
    7b40:	0f 92       	push	r0
    7b42:	00 90 5f 00 	lds	r0, 0x005F	; 0x80005f <__TEXT_REGION_LENGTH__+0x7e005f>
    7b46:	0f 92       	push	r0
    7b48:	11 24       	eor	r1, r1
    7b4a:	0f 93       	push	r16
    7b4c:	1f 93       	push	r17
    7b4e:	2f 93       	push	r18
    7b50:	3f 93       	push	r19
    7b52:	4f 93       	push	r20
    7b54:	5f 93       	push	r21
    7b56:	6f 93       	push	r22
    7b58:	7f 93       	push	r23
    7b5a:	8f 93       	push	r24
    7b5c:	9f 93       	push	r25
    7b5e:	af 93       	push	r26
    7b60:	bf 93       	push	r27
    7b62:	ef 93       	push	r30
    7b64:	ff 93       	push	r31
    7b66:	cf 93       	push	r28
    7b68:	df 93       	push	r29
    7b6a:	cd b7       	in	r28, 0x3d	; 61
    7b6c:	de b7       	in	r29, 0x3e	; 62
	// check if buffered tx is enabled
	if(uartBufferedTx)
    7b6e:	80 91 7e 04 	lds	r24, 0x047E	; 0x80047e <uartBufferedTx>
    7b72:	88 23       	and	r24, r24
    7b74:	a9 f0       	breq	.+42     	; 0x7ba0 <__vector_15+0x62>
	{
		// check if there's data left in the buffer
		if(uartTxBuffer.datalength)
    7b76:	80 91 83 04 	lds	r24, 0x0483	; 0x800483 <uartTxBuffer+0x4>
    7b7a:	90 91 84 04 	lds	r25, 0x0484	; 0x800484 <uartTxBuffer+0x5>
    7b7e:	89 2b       	or	r24, r25
    7b80:	49 f0       	breq	.+18     	; 0x7b94 <__vector_15+0x56>
		{
			// send byte from top of buffer
			outb(UDR, bufferGetFromFront(&uartTxBuffer));
    7b82:	0c e2       	ldi	r16, 0x2C	; 44
    7b84:	10 e0       	ldi	r17, 0x00	; 0
    7b86:	8f e7       	ldi	r24, 0x7F	; 127
    7b88:	94 e0       	ldi	r25, 0x04	; 4
    7b8a:	0e 94 11 02 	call	0x422	; 0x422 <bufferGetFromFront>
    7b8e:	f8 01       	movw	r30, r16
    7b90:	80 83       	st	Z, r24
	{
		// we're using single-byte tx mode
		// indicate transmit complete, back to ready
		uartReadyTx = TRUE;
	}
}
    7b92:	09 c0       	rjmp	.+18     	; 0x7ba6 <__vector_15+0x68>
			outb(UDR, bufferGetFromFront(&uartTxBuffer));
		}
		else
		{
			// no data left
			uartBufferedTx = FALSE;
    7b94:	10 92 7e 04 	sts	0x047E, r1	; 0x80047e <uartBufferedTx>
			// return to ready state
			uartReadyTx = TRUE;
    7b98:	81 e0       	ldi	r24, 0x01	; 1
    7b9a:	80 93 74 04 	sts	0x0474, r24	; 0x800474 <uartReadyTx>
	{
		// we're using single-byte tx mode
		// indicate transmit complete, back to ready
		uartReadyTx = TRUE;
	}
}
    7b9e:	03 c0       	rjmp	.+6      	; 0x7ba6 <__vector_15+0x68>
	}
	else
	{
		// we're using single-byte tx mode
		// indicate transmit complete, back to ready
		uartReadyTx = TRUE;
    7ba0:	81 e0       	ldi	r24, 0x01	; 1
    7ba2:	80 93 74 04 	sts	0x0474, r24	; 0x800474 <uartReadyTx>
	}
}
    7ba6:	00 00       	nop
    7ba8:	df 91       	pop	r29
    7baa:	cf 91       	pop	r28
    7bac:	ff 91       	pop	r31
    7bae:	ef 91       	pop	r30
    7bb0:	bf 91       	pop	r27
    7bb2:	af 91       	pop	r26
    7bb4:	9f 91       	pop	r25
    7bb6:	8f 91       	pop	r24
    7bb8:	7f 91       	pop	r23
    7bba:	6f 91       	pop	r22
    7bbc:	5f 91       	pop	r21
    7bbe:	4f 91       	pop	r20
    7bc0:	3f 91       	pop	r19
    7bc2:	2f 91       	pop	r18
    7bc4:	1f 91       	pop	r17
    7bc6:	0f 91       	pop	r16
    7bc8:	0f 90       	pop	r0
    7bca:	00 92 5f 00 	sts	0x005F, r0	; 0x80005f <__TEXT_REGION_LENGTH__+0x7e005f>
    7bce:	0f 90       	pop	r0
    7bd0:	1f 90       	pop	r1
    7bd2:	18 95       	reti

00007bd4 <__vector_13>:

// UART Receive Complete Interrupt Handler
UART_INTERRUPT_HANDLER(USART_RXC_vect)
{
    7bd4:	1f 92       	push	r1
    7bd6:	0f 92       	push	r0
    7bd8:	00 90 5f 00 	lds	r0, 0x005F	; 0x80005f <__TEXT_REGION_LENGTH__+0x7e005f>
    7bdc:	0f 92       	push	r0
    7bde:	11 24       	eor	r1, r1
    7be0:	2f 93       	push	r18
    7be2:	3f 93       	push	r19
    7be4:	4f 93       	push	r20
    7be6:	5f 93       	push	r21
    7be8:	6f 93       	push	r22
    7bea:	7f 93       	push	r23
    7bec:	8f 93       	push	r24
    7bee:	9f 93       	push	r25
    7bf0:	af 93       	push	r26
    7bf2:	bf 93       	push	r27
    7bf4:	ef 93       	push	r30
    7bf6:	ff 93       	push	r31
    7bf8:	cf 93       	push	r28
    7bfa:	df 93       	push	r29
    7bfc:	1f 92       	push	r1
    7bfe:	cd b7       	in	r28, 0x3d	; 61
    7c00:	de b7       	in	r29, 0x3e	; 62
	u08 c;
	
	// get received char
	c = inb(UDR);
    7c02:	8c e2       	ldi	r24, 0x2C	; 44
    7c04:	90 e0       	ldi	r25, 0x00	; 0
    7c06:	fc 01       	movw	r30, r24
    7c08:	80 81       	ld	r24, Z
    7c0a:	89 83       	std	Y+1, r24	; 0x01
	
	// if there's a user function to handle this receive event
	if(UartRxFunc)
    7c0c:	80 91 2c 02 	lds	r24, 0x022C	; 0x80022c <UartRxFunc>
    7c10:	90 91 2d 02 	lds	r25, 0x022D	; 0x80022d <UartRxFunc+0x1>
    7c14:	89 2b       	or	r24, r25
    7c16:	41 f0       	breq	.+16     	; 0x7c28 <__vector_13+0x54>
	{
		// call it and pass the received data
		UartRxFunc(c);
    7c18:	20 91 2c 02 	lds	r18, 0x022C	; 0x80022c <UartRxFunc>
    7c1c:	30 91 2d 02 	lds	r19, 0x022D	; 0x80022d <UartRxFunc+0x1>
    7c20:	89 81       	ldd	r24, Y+1	; 0x01
    7c22:	f9 01       	movw	r30, r18
    7c24:	09 95       	icall
			// no space in buffer
			// count overflow
			uartRxOverflow++;
		}
	}
}
    7c26:	10 c0       	rjmp	.+32     	; 0x7c48 <__vector_13+0x74>
	else
	{
		// otherwise do default processing
		// put received char in buffer
		// check if there's space
		if( !bufferAddToEnd(&uartRxBuffer, c) )
    7c28:	69 81       	ldd	r22, Y+1	; 0x01
    7c2a:	85 e7       	ldi	r24, 0x75	; 117
    7c2c:	94 e0       	ldi	r25, 0x04	; 4
    7c2e:	0e 94 7c 02 	call	0x4f8	; 0x4f8 <bufferAddToEnd>
    7c32:	88 23       	and	r24, r24
    7c34:	49 f4       	brne	.+18     	; 0x7c48 <__vector_13+0x74>
		{
			// no space in buffer
			// count overflow
			uartRxOverflow++;
    7c36:	80 91 87 04 	lds	r24, 0x0487	; 0x800487 <uartRxOverflow>
    7c3a:	90 91 88 04 	lds	r25, 0x0488	; 0x800488 <uartRxOverflow+0x1>
    7c3e:	01 96       	adiw	r24, 0x01	; 1
    7c40:	90 93 88 04 	sts	0x0488, r25	; 0x800488 <uartRxOverflow+0x1>
    7c44:	80 93 87 04 	sts	0x0487, r24	; 0x800487 <uartRxOverflow>
		}
	}
}
    7c48:	00 00       	nop
    7c4a:	0f 90       	pop	r0
    7c4c:	df 91       	pop	r29
    7c4e:	cf 91       	pop	r28
    7c50:	ff 91       	pop	r31
    7c52:	ef 91       	pop	r30
    7c54:	bf 91       	pop	r27
    7c56:	af 91       	pop	r26
    7c58:	9f 91       	pop	r25
    7c5a:	8f 91       	pop	r24
    7c5c:	7f 91       	pop	r23
    7c5e:	6f 91       	pop	r22
    7c60:	5f 91       	pop	r21
    7c62:	4f 91       	pop	r20
    7c64:	3f 91       	pop	r19
    7c66:	2f 91       	pop	r18
    7c68:	0f 90       	pop	r0
    7c6a:	00 92 5f 00 	sts	0x005F, r0	; 0x80005f <__TEXT_REGION_LENGTH__+0x7e005f>
    7c6e:	0f 90       	pop	r0
    7c70:	1f 90       	pop	r1
    7c72:	18 95       	reti

00007c74 <__mulsi3>:
    7c74:	db 01       	movw	r26, r22
    7c76:	8f 93       	push	r24
    7c78:	9f 93       	push	r25
    7c7a:	0e 94 b4 3e 	call	0x7d68	; 0x7d68 <__muluhisi3>
    7c7e:	bf 91       	pop	r27
    7c80:	af 91       	pop	r26
    7c82:	a2 9f       	mul	r26, r18
    7c84:	80 0d       	add	r24, r0
    7c86:	91 1d       	adc	r25, r1
    7c88:	a3 9f       	mul	r26, r19
    7c8a:	90 0d       	add	r25, r0
    7c8c:	b2 9f       	mul	r27, r18
    7c8e:	90 0d       	add	r25, r0
    7c90:	11 24       	eor	r1, r1
    7c92:	08 95       	ret

00007c94 <__udivmodhi4>:
    7c94:	aa 1b       	sub	r26, r26
    7c96:	bb 1b       	sub	r27, r27
    7c98:	51 e1       	ldi	r21, 0x11	; 17
    7c9a:	07 c0       	rjmp	.+14     	; 0x7caa <__udivmodhi4_ep>

00007c9c <__udivmodhi4_loop>:
    7c9c:	aa 1f       	adc	r26, r26
    7c9e:	bb 1f       	adc	r27, r27
    7ca0:	a6 17       	cp	r26, r22
    7ca2:	b7 07       	cpc	r27, r23
    7ca4:	10 f0       	brcs	.+4      	; 0x7caa <__udivmodhi4_ep>
    7ca6:	a6 1b       	sub	r26, r22
    7ca8:	b7 0b       	sbc	r27, r23

00007caa <__udivmodhi4_ep>:
    7caa:	88 1f       	adc	r24, r24
    7cac:	99 1f       	adc	r25, r25
    7cae:	5a 95       	dec	r21
    7cb0:	a9 f7       	brne	.-22     	; 0x7c9c <__udivmodhi4_loop>
    7cb2:	80 95       	com	r24
    7cb4:	90 95       	com	r25
    7cb6:	bc 01       	movw	r22, r24
    7cb8:	cd 01       	movw	r24, r26
    7cba:	08 95       	ret

00007cbc <__udivmodsi4>:
    7cbc:	a1 e2       	ldi	r26, 0x21	; 33
    7cbe:	1a 2e       	mov	r1, r26
    7cc0:	aa 1b       	sub	r26, r26
    7cc2:	bb 1b       	sub	r27, r27
    7cc4:	fd 01       	movw	r30, r26
    7cc6:	0d c0       	rjmp	.+26     	; 0x7ce2 <__udivmodsi4_ep>

00007cc8 <__udivmodsi4_loop>:
    7cc8:	aa 1f       	adc	r26, r26
    7cca:	bb 1f       	adc	r27, r27
    7ccc:	ee 1f       	adc	r30, r30
    7cce:	ff 1f       	adc	r31, r31
    7cd0:	a2 17       	cp	r26, r18
    7cd2:	b3 07       	cpc	r27, r19
    7cd4:	e4 07       	cpc	r30, r20
    7cd6:	f5 07       	cpc	r31, r21
    7cd8:	20 f0       	brcs	.+8      	; 0x7ce2 <__udivmodsi4_ep>
    7cda:	a2 1b       	sub	r26, r18
    7cdc:	b3 0b       	sbc	r27, r19
    7cde:	e4 0b       	sbc	r30, r20
    7ce0:	f5 0b       	sbc	r31, r21

00007ce2 <__udivmodsi4_ep>:
    7ce2:	66 1f       	adc	r22, r22
    7ce4:	77 1f       	adc	r23, r23
    7ce6:	88 1f       	adc	r24, r24
    7ce8:	99 1f       	adc	r25, r25
    7cea:	1a 94       	dec	r1
    7cec:	69 f7       	brne	.-38     	; 0x7cc8 <__udivmodsi4_loop>
    7cee:	60 95       	com	r22
    7cf0:	70 95       	com	r23
    7cf2:	80 95       	com	r24
    7cf4:	90 95       	com	r25
    7cf6:	9b 01       	movw	r18, r22
    7cf8:	ac 01       	movw	r20, r24
    7cfa:	bd 01       	movw	r22, r26
    7cfc:	cf 01       	movw	r24, r30
    7cfe:	08 95       	ret

00007d00 <__divmodsi4>:
    7d00:	05 2e       	mov	r0, r21
    7d02:	97 fb       	bst	r25, 7
    7d04:	1e f4       	brtc	.+6      	; 0x7d0c <__divmodsi4+0xc>
    7d06:	00 94       	com	r0
    7d08:	0e 94 97 3e 	call	0x7d2e	; 0x7d2e <__negsi2>
    7d0c:	57 fd       	sbrc	r21, 7
    7d0e:	07 d0       	rcall	.+14     	; 0x7d1e <__divmodsi4_neg2>
    7d10:	0e 94 5e 3e 	call	0x7cbc	; 0x7cbc <__udivmodsi4>
    7d14:	07 fc       	sbrc	r0, 7
    7d16:	03 d0       	rcall	.+6      	; 0x7d1e <__divmodsi4_neg2>
    7d18:	4e f4       	brtc	.+18     	; 0x7d2c <__divmodsi4_exit>
    7d1a:	0c 94 97 3e 	jmp	0x7d2e	; 0x7d2e <__negsi2>

00007d1e <__divmodsi4_neg2>:
    7d1e:	50 95       	com	r21
    7d20:	40 95       	com	r20
    7d22:	30 95       	com	r19
    7d24:	21 95       	neg	r18
    7d26:	3f 4f       	sbci	r19, 0xFF	; 255
    7d28:	4f 4f       	sbci	r20, 0xFF	; 255
    7d2a:	5f 4f       	sbci	r21, 0xFF	; 255

00007d2c <__divmodsi4_exit>:
    7d2c:	08 95       	ret

00007d2e <__negsi2>:
    7d2e:	90 95       	com	r25
    7d30:	80 95       	com	r24
    7d32:	70 95       	com	r23
    7d34:	61 95       	neg	r22
    7d36:	7f 4f       	sbci	r23, 0xFF	; 255
    7d38:	8f 4f       	sbci	r24, 0xFF	; 255
    7d3a:	9f 4f       	sbci	r25, 0xFF	; 255
    7d3c:	08 95       	ret

00007d3e <__tablejump2__>:
    7d3e:	ee 0f       	add	r30, r30
    7d40:	ff 1f       	adc	r31, r31
    7d42:	05 90       	lpm	r0, Z+
    7d44:	f4 91       	lpm	r31, Z
    7d46:	e0 2d       	mov	r30, r0
    7d48:	09 94       	ijmp

00007d4a <__umulhisi3>:
    7d4a:	a2 9f       	mul	r26, r18
    7d4c:	b0 01       	movw	r22, r0
    7d4e:	b3 9f       	mul	r27, r19
    7d50:	c0 01       	movw	r24, r0
    7d52:	a3 9f       	mul	r26, r19
    7d54:	70 0d       	add	r23, r0
    7d56:	81 1d       	adc	r24, r1
    7d58:	11 24       	eor	r1, r1
    7d5a:	91 1d       	adc	r25, r1
    7d5c:	b2 9f       	mul	r27, r18
    7d5e:	70 0d       	add	r23, r0
    7d60:	81 1d       	adc	r24, r1
    7d62:	11 24       	eor	r1, r1
    7d64:	91 1d       	adc	r25, r1
    7d66:	08 95       	ret

00007d68 <__muluhisi3>:
    7d68:	0e 94 a5 3e 	call	0x7d4a	; 0x7d4a <__umulhisi3>
    7d6c:	a5 9f       	mul	r26, r21
    7d6e:	90 0d       	add	r25, r0
    7d70:	b4 9f       	mul	r27, r20
    7d72:	90 0d       	add	r25, r0
    7d74:	a4 9f       	mul	r26, r20
    7d76:	80 0d       	add	r24, r0
    7d78:	91 1d       	adc	r25, r1
    7d7a:	11 24       	eor	r1, r1
    7d7c:	08 95       	ret

00007d7e <memset>:
    7d7e:	dc 01       	movw	r26, r24
    7d80:	01 c0       	rjmp	.+2      	; 0x7d84 <memset+0x6>
    7d82:	6d 93       	st	X+, r22
    7d84:	41 50       	subi	r20, 0x01	; 1
    7d86:	50 40       	sbci	r21, 0x00	; 0
    7d88:	e0 f7       	brcc	.-8      	; 0x7d82 <memset+0x4>
    7d8a:	08 95       	ret

00007d8c <strcmp>:
    7d8c:	fb 01       	movw	r30, r22
    7d8e:	dc 01       	movw	r26, r24
    7d90:	8d 91       	ld	r24, X+
    7d92:	01 90       	ld	r0, Z+
    7d94:	80 19       	sub	r24, r0
    7d96:	01 10       	cpse	r0, r1
    7d98:	d9 f3       	breq	.-10     	; 0x7d90 <strcmp+0x4>
    7d9a:	99 0b       	sbc	r25, r25
    7d9c:	08 95       	ret

00007d9e <strcpy>:
    7d9e:	fb 01       	movw	r30, r22
    7da0:	dc 01       	movw	r26, r24
    7da2:	01 90       	ld	r0, Z+
    7da4:	0d 92       	st	X+, r0
    7da6:	00 20       	and	r0, r0
    7da8:	e1 f7       	brne	.-8      	; 0x7da2 <strcpy+0x4>
    7daa:	08 95       	ret

00007dac <strlen>:
    7dac:	fc 01       	movw	r30, r24
    7dae:	01 90       	ld	r0, Z+
    7db0:	00 20       	and	r0, r0
    7db2:	e9 f7       	brne	.-6      	; 0x7dae <strlen+0x2>
    7db4:	80 95       	com	r24
    7db6:	90 95       	com	r25
    7db8:	8e 0f       	add	r24, r30
    7dba:	9f 1f       	adc	r25, r31
    7dbc:	08 95       	ret

00007dbe <_exit>:
    7dbe:	f8 94       	cli

00007dc0 <__stop_program>:
    7dc0:	ff cf       	rjmp	.-2      	; 0x7dc0 <__stop_program>
